; Listing generated by Microsoft (R) Optimizing Compiler Version 16.00.40219.01 

	TITLE	C:\A17\prolog\ptarau_prolog\pl2c\brev.c
	.686P
	.XMM
	include listing.inc
	.model	flat

INCLUDELIB LIBCMT
INCLUDELIB OLDNAMES

PUBLIC	??_C@_07IPMECBNO@user_bp?$AA@			; `string'
PUBLIC	??_C@_01PAPGNFGE@c?$AA@				; `string'
PUBLIC	??_C@_07FFBONCCO@v0563c0?$AA@			; `string'
PUBLIC	??_C@_04CMGAJDGD@brev?$AA@			; `string'
PUBLIC	??_C@_01JBBJJEPG@p?$AA@				; `string'
PUBLIC	??_C@_07OKPPBOMK@runtime?$AA@			; `string'
PUBLIC	??_C@_04KOJKLCBG@1000?$AA@			; `string'
PUBLIC	??_C@_0CB@PKICBPCH@BMARK_brev_1000_times_300_nrevs?3@ ; `string'
PUBLIC	??_C@_03CCCOBCKE@big?$AA@			; `string'
PUBLIC	??_C@_03MHAIKEMP@300?$AA@			; `string'
PUBLIC	??_C@_0M@HGBLNGMI@BMARK_brev?3?$AA@		; `string'
PUBLIC	??_C@_04CEJDCDCH@test?$AA@			; `string'
PUBLIC	??_C@_02PGAMAILP@g4?$AA@			; `string'
PUBLIC	??_C@_0P@MFKLNEDB@use?5bp?5?9h20000?$AA@	; `string'
PUBLIC	??_C@_04OJDKMIMG@2000?$AA@			; `string'
PUBLIC	??_C@_02LJENJOHI@g3?$AA@			; `string'
PUBLIC	??_C@_02KAFGKPDJ@g2?$AA@			; `string'
PUBLIC	??_C@_03BAAJCDMO@800?$AA@			; `string'
PUBLIC	??_C@_02ILHLPMPK@g1?$AA@			; `string'
PUBLIC	??_C@_03HPLEMDKK@200?$AA@			; `string'
PUBLIC	??_C@_02JCGAMNLL@g0?$AA@			; `string'
PUBLIC	??_C@_03GNABGMEE@100?$AA@			; `string'
PUBLIC	??_C@_02PNFIDHGF@50?$AA@			; `string'
PUBLIC	??_C@_02GHJKAGCI@gg?$AA@			; `string'
PUBLIC	??_C@_05GGABMBGF@klips?$AA@			; `string'
PUBLIC	??_C@_04CLCEDBPF@time?$AA@			; `string'
PUBLIC	??_C@_06IJDLPEM@length?$AA@			; `string'
PUBLIC	??_C@_0L@LEIMKHLK@iterations?$AA@		; `string'
PUBLIC	??_C@_04PKENOLLO@heap?$AA@			; `string'
PUBLIC	??_C@_05IANLDAEP@stack?$AA@			; `string'
PUBLIC	??_C@_01NEMOKFLO@?$DN?$AA@			; `string'
PUBLIC	??_C@_05NGFEDHGN@write?$AA@			; `string'
PUBLIC	??_C@_02ILLPOEGM@nl?$AA@			; `string'
PUBLIC	??_C@_02KPEDIMCA@go?$AA@			; `string'
PUBLIC	??_C@_0M@IHKJBCMK@local_stack?$AA@		; `string'
PUBLIC	??_C@_05FAEIOGEG@trail?$AA@			; `string'
PUBLIC	??_C@_0N@GPEKCFBP@global_stack?$AA@		; `string'
PUBLIC	??_C@_0L@PIHPICBN@statistics?$AA@		; `string'
PUBLIC	??_C@_05LHNEPIKO@htest?$AA@			; `string'
PUBLIC	??_C@_09FGHMLDD@270782464?$AA@			; `string'
PUBLIC	??_C@_06LKANLBLF@$float?$AA@			; `string'
PUBLIC	??_C@_01KMDKNFGN@?1?$AA@			; `string'
PUBLIC	??_C@_01NBENCBCI@?$CK?$AA@			; `string'
PUBLIC	??_C@_01FDFGLJHB@2?$AA@				; `string'
PUBLIC	??_C@_01MIFGBAGJ@?$CL?$AA@			; `string'
PUBLIC	??_C@_05NAPFDJNG@timer?$AA@			; `string'
PUBLIC	??_C@_02JLLOCMEJ@bm?$AA@			; `string'
PUBLIC	??_C@_08BIMEDOJB@integers?$AA@			; `string'
PUBLIC	??_C@_01GBGANLPD@0?$AA@				; `string'
PUBLIC	??_C@_0M@POEMMNFD@empty_range?$AA@		; `string'
PUBLIC	??_C@_05JLNEMJLN@dummy?$AA@			; `string'
PUBLIC	??_C@_05CCGOGOBM@range?$AA@			; `string'
PUBLIC	??_C@_04CCHLMOGN@fail?$AA@			; `string'
PUBLIC	??_C@_01IDAFKMJL@_?$AA@				; `string'
PUBLIC	??_C@_0L@LIKEDCOO@full_range?$AA@		; `string'
PUBLIC	??_C@_04OJJAHOGC@nrev?$AA@			; `string'
PUBLIC	??_C@_01HIHLOKLC@1?$AA@				; `string'
PUBLIC	??_C@_01JOAMLHOP@?9?$AA@			; `string'
PUBLIC	??_C@_01LFCBOECM@?4?$AA@			; `string'
PUBLIC	??_C@_04LOAJBDKD@true?$AA@			; `string'
PUBLIC	??_C@_01OGPIMHDM@?$DP?$AA@			; `string'
PUBLIC	??_C@_02GPECMEKF@?$FL?$FN?$AA@			; `string'
PUBLIC	??_C@_03CGOPKBCD@app?$AA@			; `string'
PUBLIC	_user_bp
PUBLIC	_user_bp_size
_DATA	SEGMENT
_user_bp DB	0dcH
	ORG $+1
	DW	00H
	DW	04H
	ORG $+2
	DD	FLAT:??_C@_03CGOPKBCD@app?$AA@
	DB	0ddH
	ORG $+1
	DW	06H
	DW	00H
	ORG $+2
	DD	FLAT:??_C@_02GPECMEKF@?$FL?$FN?$AA@
	DB	07H
	ORG $+1
	DW	01H
	DW	00H
	ORG $+2
	DD	FLAT:??_C@_02GPECMEKF@?$FL?$FN?$AA@
	DB	0dH
	ORG $+1
	DW	02H
	DW	03H
	ORG $+2
	DD	FLAT:??_C@_01OGPIMHDM@?$DP?$AA@
	DB	0bH
	ORG $+1
	DW	01H
	DW	04H
	ORG $+2
	DD	FLAT:??_C@_01OGPIMHDM@?$DP?$AA@
	DB	011H
	ORG $+1
	DW	00H
	DW	01H
	ORG $+2
	DD	FLAT:??_C@_04LOAJBDKD@true?$AA@
	DB	0dcH
	ORG $+1
	DW	00H
	DW	04H
	ORG $+2
	DD	FLAT:??_C@_03CGOPKBCD@app?$AA@
	DB	0ddH
	ORG $+1
	DW	09H
	DW	02H
	ORG $+2
	DD	FLAT:??_C@_01LFCBOECM@?4?$AA@
	DB	08H
	ORG $+1
	DW	01H
	DW	02H
	ORG $+2
	DD	FLAT:??_C@_01LFCBOECM@?4?$AA@
	DB	01H
	ORG $+1
	DW	05H
	DW	00H
	ORG $+2
	DD	FLAT:??_C@_01OGPIMHDM@?$DP?$AA@
	DB	01H
	ORG $+1
	DW	06H
	DW	00H
	ORG $+2
	DD	FLAT:??_C@_01OGPIMHDM@?$DP?$AA@
	DB	08H
	ORG $+1
	DW	03H
	DW	02H
	ORG $+2
	DD	FLAT:??_C@_01LFCBOECM@?4?$AA@
	DB	03H
	ORG $+1
	DW	05H
	DW	00H
	ORG $+2
	DD	FLAT:??_C@_01OGPIMHDM@?$DP?$AA@
	DB	01H
	ORG $+1
	DW	05H
	DW	00H
	ORG $+2
	DD	FLAT:??_C@_01OGPIMHDM@?$DP?$AA@
	DB	0aH
	ORG $+1
	DW	08H
	DW	02H
	ORG $+2
	DD	FLAT:??_C@_01JOAMLHOP@?9?$AA@
	DB	02H
	ORG $+1
	DW	01H
	DW	00H
	ORG $+2
	DD	FLAT:??_C@_01OGPIMHDM@?$DP?$AA@
	DB	04H
	ORG $+1
	DW	05H
	DW	00H
	ORG $+2
	DD	FLAT:??_C@_01OGPIMHDM@?$DP?$AA@
	DB	01dH
	ORG $+1
	DW	01H
	DW	06H
	ORG $+2
	DD	FLAT:??_C@_01OGPIMHDM@?$DP?$AA@
	DB	032H
	ORG $+1
	DW	02H
	DW	03H
	ORG $+2
	DD	FLAT:??_C@_01OGPIMHDM@?$DP?$AA@
	DB	04aH
	ORG $+1
	DW	08H
	DW	035H
	ORG $+2
	DD	FLAT:??_C@_01HIHLOKLC@1?$AA@
	DB	011H
	ORG $+1
	DW	00H
	DW	04H
	ORG $+2
	DD	FLAT:??_C@_03CGOPKBCD@app?$AA@
	DB	0dcH
	ORG $+1
	DW	00H
	DW	03H
	ORG $+2
	DD	FLAT:??_C@_04OJJAHOGC@nrev?$AA@
	DB	0ddH
	ORG $+1
	DW	05H
	DW	00H
	ORG $+2
	DD	FLAT:??_C@_02GPECMEKF@?$FL?$FN?$AA@
	DB	07H
	ORG $+1
	DW	01H
	DW	00H
	ORG $+2
	DD	FLAT:??_C@_02GPECMEKF@?$FL?$FN?$AA@
	DB	07H
	ORG $+1
	DW	02H
	DW	00H
	ORG $+2
	DD	FLAT:??_C@_02GPECMEKF@?$FL?$FN?$AA@
	DB	0bH
	ORG $+1
	DW	01H
	DW	03H
	ORG $+2
	DD	FLAT:??_C@_01OGPIMHDM@?$DP?$AA@
	DB	011H
	ORG $+1
	DW	00H
	DW	01H
	ORG $+2
	DD	FLAT:??_C@_04LOAJBDKD@true?$AA@
	DB	0dcH
	ORG $+1
	DW	00H
	DW	03H
	ORG $+2
	DD	FLAT:??_C@_04OJJAHOGC@nrev?$AA@
	DB	0ddH
	ORG $+1
	DW	09H
	DW	02H
	ORG $+2
	DD	FLAT:??_C@_01LFCBOECM@?4?$AA@
	DB	08H
	ORG $+1
	DW	01H
	DW	02H
	ORG $+2
	DD	FLAT:??_C@_01LFCBOECM@?4?$AA@
	DB	01H
	ORG $+1
	DW	04H
	DW	00H
	ORG $+2
	DD	FLAT:??_C@_01OGPIMHDM@?$DP?$AA@
	DB	01H
	ORG $+1
	DW	01H
	DW	00H
	ORG $+2
	DD	FLAT:??_C@_01OGPIMHDM@?$DP?$AA@
	DB	0aH
	ORG $+1
	DW	06H
	DW	04H
	ORG $+2
	DD	FLAT:??_C@_03CGOPKBCD@app?$AA@
	DB	02H
	ORG $+1
	DW	07H
	DW	00H
	ORG $+2
	DD	FLAT:??_C@_01OGPIMHDM@?$DP?$AA@
	DB	034H
	ORG $+1
	DW	08H
	DW	00H
	ORG $+2
	DD	FLAT:??_C@_01OGPIMHDM@?$DP?$AA@
	DB	04H
	ORG $+1
	DW	02H
	DW	00H
	ORG $+2
	DD	FLAT:??_C@_01OGPIMHDM@?$DP?$AA@
	DB	04H
	ORG $+1
	DW	03H
	DW	00H
	ORG $+2
	DD	FLAT:??_C@_01OGPIMHDM@?$DP?$AA@
	DB	033H
	ORG $+1
	DW	08H
	DW	02H
	ORG $+2
	DD	FLAT:??_C@_01LFCBOECM@?4?$AA@
	DB	04H
	ORG $+1
	DW	04H
	DW	00H
	ORG $+2
	DD	FLAT:??_C@_01OGPIMHDM@?$DP?$AA@
	DB	06H
	ORG $+1
	DW	00H
	DW	00H
	ORG $+2
	DD	FLAT:??_C@_02GPECMEKF@?$FL?$FN?$AA@
	DB	0bH
	ORG $+1
	DW	02H
	DW	07H
	ORG $+2
	DD	FLAT:??_C@_01OGPIMHDM@?$DP?$AA@
	DB	0bH
	ORG $+1
	DW	03H
	DW	06H
	ORG $+2
	DD	FLAT:??_C@_01OGPIMHDM@?$DP?$AA@
	DB	011H
	ORG $+1
	DW	00H
	DW	03H
	ORG $+2
	DD	FLAT:??_C@_04OJJAHOGC@nrev?$AA@
	DB	0dcH
	ORG $+1
	DW	00H
	DW	03H
	ORG $+2
	DD	FLAT:??_C@_0L@LIKEDCOO@full_range?$AA@
	DB	0ddH
	ORG $+1
	DW	08H
	DW	00H
	ORG $+2
	DD	FLAT:??_C@_01IDAFKMJL@_?$AA@
	DB	0bH
	ORG $+1
	DW	05H
	DW	01H
	ORG $+2
	DD	FLAT:??_C@_01OGPIMHDM@?$DP?$AA@
	DB	0aH
	ORG $+1
	DW	04H
	DW	03H
	ORG $+2
	DD	FLAT:??_C@_04OJJAHOGC@nrev?$AA@
	DB	04H
	ORG $+1
	DW	02H
	DW	00H
	ORG $+2
	DD	FLAT:??_C@_01OGPIMHDM@?$DP?$AA@
	DB	03eH
	ORG $+1
	DW	01H
	DW	00H
	ORG $+2
	DD	FLAT:??_C@_01OGPIMHDM@?$DP?$AA@
	DB	06H
	ORG $+1
	DW	07H
	DW	01H
	ORG $+2
	DD	FLAT:??_C@_04CCHLMOGN@fail?$AA@
	DB	04H
	ORG $+1
	DW	03H
	DW	00H
	ORG $+2
	DD	FLAT:??_C@_01OGPIMHDM@?$DP?$AA@
	DB	0cH
	ORG $+1
	DW	01H
	DW	01H
	ORG $+2
	DD	FLAT:??_C@_01OGPIMHDM@?$DP?$AA@
	DB	09H
	ORG $+1
	DW	02H
	DW	00H
	ORG $+2
	DD	FLAT:??_C@_01HIHLOKLC@1?$AA@
	DB	0bH
	ORG $+1
	DW	03H
	DW	05H
	ORG $+2
	DD	FLAT:??_C@_01OGPIMHDM@?$DP?$AA@
	DB	011H
	ORG $+1
	DW	00H
	DW	04H
	ORG $+2
	DD	FLAT:??_C@_05CCGOGOBM@range?$AA@
	DB	0dcH
	ORG $+1
	DW	00H
	DW	03H
	ORG $+2
	DD	FLAT:??_C@_0L@LIKEDCOO@full_range?$AA@
	DB	0ddH
	ORG $+1
	DW	05H
	DW	00H
	ORG $+2
	DD	FLAT:??_C@_01IDAFKMJL@_?$AA@
	DB	0bH
	ORG $+1
	DW	01H
	DW	03H
	ORG $+2
	DD	FLAT:??_C@_01OGPIMHDM@?$DP?$AA@
	DB	011H
	ORG $+1
	DW	00H
	DW	01H
	ORG $+2
	DD	FLAT:??_C@_04LOAJBDKD@true?$AA@
	DB	0dcH
	ORG $+1
	DW	00H
	DW	03H
	ORG $+2
	DD	FLAT:??_C@_05JLNEMJLN@dummy?$AA@
	DB	0ddH
	ORG $+1
	DW	05H
	DW	00H
	ORG $+2
	DD	FLAT:??_C@_01IDAFKMJL@_?$AA@
	DB	0bH
	ORG $+1
	DW	01H
	DW	03H
	ORG $+2
	DD	FLAT:??_C@_01OGPIMHDM@?$DP?$AA@
	DB	011H
	ORG $+1
	DW	00H
	DW	01H
	ORG $+2
	DD	FLAT:??_C@_04LOAJBDKD@true?$AA@
	DB	0dcH
	ORG $+1
	DW	00H
	DW	03H
	ORG $+2
	DD	FLAT:??_C@_0M@POEMMNFD@empty_range?$AA@
	DB	0ddH
	ORG $+1
	DW	08H
	DW	00H
	ORG $+2
	DD	FLAT:??_C@_01IDAFKMJL@_?$AA@
	DB	0bH
	ORG $+1
	DW	05H
	DW	01H
	ORG $+2
	DD	FLAT:??_C@_01OGPIMHDM@?$DP?$AA@
	DB	0aH
	ORG $+1
	DW	04H
	DW	03H
	ORG $+2
	DD	FLAT:??_C@_05JLNEMJLN@dummy?$AA@
	DB	04H
	ORG $+1
	DW	02H
	DW	00H
	ORG $+2
	DD	FLAT:??_C@_01OGPIMHDM@?$DP?$AA@
	DB	03eH
	ORG $+1
	DW	01H
	DW	00H
	ORG $+2
	DD	FLAT:??_C@_01OGPIMHDM@?$DP?$AA@
	DB	06H
	ORG $+1
	DW	07H
	DW	01H
	ORG $+2
	DD	FLAT:??_C@_04CCHLMOGN@fail?$AA@
	DB	04H
	ORG $+1
	DW	03H
	DW	00H
	ORG $+2
	DD	FLAT:??_C@_01OGPIMHDM@?$DP?$AA@
	DB	0cH
	ORG $+1
	DW	01H
	DW	01H
	ORG $+2
	DD	FLAT:??_C@_01OGPIMHDM@?$DP?$AA@
	DB	09H
	ORG $+1
	DW	02H
	DW	00H
	ORG $+2
	DD	FLAT:??_C@_01HIHLOKLC@1?$AA@
	DB	0bH
	ORG $+1
	DW	03H
	DW	05H
	ORG $+2
	DD	FLAT:??_C@_01OGPIMHDM@?$DP?$AA@
	DB	011H
	ORG $+1
	DW	00H
	DW	04H
	ORG $+2
	DD	FLAT:??_C@_05CCGOGOBM@range?$AA@
	DB	0dcH
	ORG $+1
	DW	00H
	DW	03H
	ORG $+2
	DD	FLAT:??_C@_0M@POEMMNFD@empty_range?$AA@
	DB	0ddH
	ORG $+1
	DW	05H
	DW	00H
	ORG $+2
	DD	FLAT:??_C@_01IDAFKMJL@_?$AA@
	DB	0bH
	ORG $+1
	DW	01H
	DW	03H
	ORG $+2
	DD	FLAT:??_C@_01OGPIMHDM@?$DP?$AA@
	DB	011H
	ORG $+1
	DW	00H
	DW	01H
	ORG $+2
	DD	FLAT:??_C@_04LOAJBDKD@true?$AA@
	DB	0dcH
	ORG $+1
	DW	00H
	DW	04H
	ORG $+2
	DD	FLAT:??_C@_05CCGOGOBM@range?$AA@
	DB	0ddH
	ORG $+1
	DW	07H
	DW	00H
	ORG $+2
	DD	FLAT:??_C@_01IDAFKMJL@_?$AA@
	DB	0dH
	ORG $+1
	DW	01H
	DW	02H
	ORG $+2
	DD	FLAT:??_C@_01OGPIMHDM@?$DP?$AA@
	DB	01dH
	ORG $+1
	DW	01H
	DW	01H
	ORG $+2
	DD	FLAT:??_C@_01OGPIMHDM@?$DP?$AA@
	DB	01dH
	ORG $+1
	DW	02H
	DW	03H
	ORG $+2
	DD	FLAT:??_C@_01OGPIMHDM@?$DP?$AA@
	DB	04aH
	ORG $+1
	DW	06H
	DW	0bH
	ORG $+2
	DD	FLAT:??_C@_01GBGANLPD@0?$AA@
	DB	0bH
	ORG $+1
	DW	01H
	DW	04H
	ORG $+2
	DD	FLAT:??_C@_01OGPIMHDM@?$DP?$AA@
	DB	011H
	ORG $+1
	DW	00H
	DW	01H
	ORG $+2
	DD	FLAT:??_C@_04LOAJBDKD@true?$AA@
	DB	0dcH
	ORG $+1
	DW	00H
	DW	04H
	ORG $+2
	DD	FLAT:??_C@_05CCGOGOBM@range?$AA@
	DB	0ddH
	ORG $+1
	DW	07H
	DW	00H
	ORG $+2
	DD	FLAT:??_C@_01IDAFKMJL@_?$AA@
	DB	01dH
	ORG $+1
	DW	01H
	DW	02H
	ORG $+2
	DD	FLAT:??_C@_01OGPIMHDM@?$DP?$AA@
	DB	01dH
	ORG $+1
	DW	02H
	DW	03H
	ORG $+2
	DD	FLAT:??_C@_01OGPIMHDM@?$DP?$AA@
	DB	04aH
	ORG $+1
	DW	06H
	DW	09H
	ORG $+2
	DD	FLAT:??_C@_01GBGANLPD@0?$AA@
	DB	01dH
	ORG $+1
	DW	01H
	DW	02H
	ORG $+2
	DD	FLAT:??_C@_01OGPIMHDM@?$DP?$AA@
	DB	01cH
	ORG $+1
	DW	02H
	DW	00H
	ORG $+2
	DD	FLAT:??_C@_01HIHLOKLC@1?$AA@
	DB	04aH
	ORG $+1
	DW	02H
	DW	00H
	ORG $+2
	DD	FLAT:??_C@_01GBGANLPD@0?$AA@
	DB	011H
	ORG $+1
	DW	00H
	DW	04H
	ORG $+2
	DD	FLAT:??_C@_05CCGOGOBM@range?$AA@
	DB	0dcH
	ORG $+1
	DW	00H
	DW	04H
	ORG $+2
	DD	FLAT:??_C@_08BIMEDOJB@integers?$AA@
	DB	0ddH
	ORG $+1
	DW	06H
	DW	00H
	ORG $+2
	DD	FLAT:??_C@_02GPECMEKF@?$FL?$FN?$AA@
	DB	07H
	ORG $+1
	DW	01H
	DW	00H
	ORG $+2
	DD	FLAT:??_C@_02GPECMEKF@?$FL?$FN?$AA@
	DB	0dH
	ORG $+1
	DW	02H
	DW	03H
	ORG $+2
	DD	FLAT:??_C@_01OGPIMHDM@?$DP?$AA@
	DB	0bH
	ORG $+1
	DW	01H
	DW	04H
	ORG $+2
	DD	FLAT:??_C@_01OGPIMHDM@?$DP?$AA@
	DB	0fH
	ORG $+1
	DW	00H
	DW	00H
	ORG $+2
	DD	FLAT:??_C@_01OGPIMHDM@?$DP?$AA@
	DB	011H
	ORG $+1
	DW	00H
	DW	01H
	ORG $+2
	DD	FLAT:??_C@_04LOAJBDKD@true?$AA@
	DB	0dcH
	ORG $+1
	DW	00H
	DW	04H
	ORG $+2
	DD	FLAT:??_C@_08BIMEDOJB@integers?$AA@
	DB	0ddH
	ORG $+1
	DW	08H
	DW	02H
	ORG $+2
	DD	FLAT:??_C@_01LFCBOECM@?4?$AA@
	DB	08H
	ORG $+1
	DW	01H
	DW	02H
	ORG $+2
	DD	FLAT:??_C@_01LFCBOECM@?4?$AA@
	DB	01H
	ORG $+1
	DW	05H
	DW	00H
	ORG $+2
	DD	FLAT:??_C@_01OGPIMHDM@?$DP?$AA@
	DB	01H
	ORG $+1
	DW	01H
	DW	00H
	ORG $+2
	DD	FLAT:??_C@_01OGPIMHDM@?$DP?$AA@
	DB	0dH
	ORG $+1
	DW	05H
	DW	02H
	ORG $+2
	DD	FLAT:??_C@_01OGPIMHDM@?$DP?$AA@
	DB	01dH
	ORG $+1
	DW	01H
	DW	05H
	ORG $+2
	DD	FLAT:??_C@_01OGPIMHDM@?$DP?$AA@
	DB	01dH
	ORG $+1
	DW	02H
	DW	03H
	ORG $+2
	DD	FLAT:??_C@_01OGPIMHDM@?$DP?$AA@
	DB	04aH
	ORG $+1
	DW	07H
	DW	09H
	ORG $+2
	DD	FLAT:??_C@_01GBGANLPD@0?$AA@
	DB	01dH
	ORG $+1
	DW	01H
	DW	05H
	ORG $+2
	DD	FLAT:??_C@_01OGPIMHDM@?$DP?$AA@
	DB	01cH
	ORG $+1
	DW	02H
	DW	00H
	ORG $+2
	DD	FLAT:??_C@_01HIHLOKLC@1?$AA@
	DB	04aH
	ORG $+1
	DW	02H
	DW	00H
	ORG $+2
	DD	FLAT:??_C@_01GBGANLPD@0?$AA@
	DB	011H
	ORG $+1
	DW	00H
	DW	04H
	ORG $+2
	DD	FLAT:??_C@_08BIMEDOJB@integers?$AA@
	DB	0dcH
	ORG $+1
	DW	00H
	DW	05H
	ORG $+2
	DD	FLAT:??_C@_02JLLOCMEJ@bm?$AA@
	DB	0ddH
	ORG $+1
	DW	0eH
	DW	00H
	ORG $+2
	DD	FLAT:??_C@_01IDAFKMJL@_?$AA@
	DB	0bH
	ORG $+1
	DW	07H
	DW	02H
	ORG $+2
	DD	FLAT:??_C@_01OGPIMHDM@?$DP?$AA@
	DB	0aH
	ORG $+1
	DW	08H
	DW	02H
	ORG $+2
	DD	FLAT:??_C@_05NAPFDJNG@timer?$AA@
	DB	02H
	ORG $+1
	DW	09H
	DW	00H
	ORG $+2
	DD	FLAT:??_C@_01OGPIMHDM@?$DP?$AA@
	DB	06H
	ORG $+1
	DW	0aH
	DW	03H
	ORG $+2
	DD	FLAT:??_C@_0M@POEMMNFD@empty_range?$AA@
	DB	04H
	ORG $+1
	DW	01H
	DW	00H
	ORG $+2
	DD	FLAT:??_C@_01OGPIMHDM@?$DP?$AA@
	DB	02H
	ORG $+1
	DW	0aH
	DW	00H
	ORG $+2
	DD	FLAT:??_C@_01OGPIMHDM@?$DP?$AA@
	DB	06H
	ORG $+1
	DW	0bH
	DW	02H
	ORG $+2
	DD	FLAT:??_C@_05NAPFDJNG@timer?$AA@
	DB	02H
	ORG $+1
	DW	0bH
	DW	00H
	ORG $+2
	DD	FLAT:??_C@_01OGPIMHDM@?$DP?$AA@
	DB	06H
	ORG $+1
	DW	0cH
	DW	03H
	ORG $+2
	DD	FLAT:??_C@_0L@LIKEDCOO@full_range?$AA@
	DB	04H
	ORG $+1
	DW	01H
	DW	00H
	ORG $+2
	DD	FLAT:??_C@_01OGPIMHDM@?$DP?$AA@
	DB	04H
	ORG $+1
	DW	0aH
	DW	00H
	ORG $+2
	DD	FLAT:??_C@_01OGPIMHDM@?$DP?$AA@
	DB	06H
	ORG $+1
	DW	0cH
	DW	02H
	ORG $+2
	DD	FLAT:??_C@_05NAPFDJNG@timer?$AA@
	DB	02H
	ORG $+1
	DW	0cH
	DW	00H
	ORG $+2
	DD	FLAT:??_C@_01OGPIMHDM@?$DP?$AA@
	DB	06H
	ORG $+1
	DW	0dH
	DW	04H
	ORG $+2
	DD	FLAT:??_C@_01JOAMLHOP@?9?$AA@
	DB	04H
	ORG $+1
	DW	0cH
	DW	00H
	ORG $+2
	DD	FLAT:??_C@_01OGPIMHDM@?$DP?$AA@
	DB	04H
	ORG $+1
	DW	0bH
	DW	00H
	ORG $+2
	DD	FLAT:??_C@_01OGPIMHDM@?$DP?$AA@
	DB	02H
	ORG $+1
	DW	0cH
	DW	00H
	ORG $+2
	DD	FLAT:??_C@_01OGPIMHDM@?$DP?$AA@
	DB	06H
	ORG $+1
	DW	0dH
	DW	04H
	ORG $+2
	DD	FLAT:??_C@_01JOAMLHOP@?9?$AA@
	DB	04H
	ORG $+1
	DW	0bH
	DW	00H
	ORG $+2
	DD	FLAT:??_C@_01OGPIMHDM@?$DP?$AA@
	DB	04H
	ORG $+1
	DW	09H
	DW	00H
	ORG $+2
	DD	FLAT:??_C@_01OGPIMHDM@?$DP?$AA@
	DB	02H
	ORG $+1
	DW	09H
	DW	00H
	ORG $+2
	DD	FLAT:??_C@_01OGPIMHDM@?$DP?$AA@
	DB	06H
	ORG $+1
	DW	0bH
	DW	04H
	ORG $+2
	DD	FLAT:??_C@_01JOAMLHOP@?9?$AA@
	DB	04H
	ORG $+1
	DW	0cH
	DW	00H
	ORG $+2
	DD	FLAT:??_C@_01OGPIMHDM@?$DP?$AA@
	DB	04H
	ORG $+1
	DW	09H
	DW	00H
	ORG $+2
	DD	FLAT:??_C@_01OGPIMHDM@?$DP?$AA@
	DB	04H
	ORG $+1
	DW	03H
	DW	00H
	ORG $+2
	DD	FLAT:??_C@_01OGPIMHDM@?$DP?$AA@
	DB	06H
	ORG $+1
	DW	09H
	DW	04H
	ORG $+2
	DD	FLAT:??_C@_01MIFGBAGJ@?$CL?$AA@
	DB	04H
	ORG $+1
	DW	07H
	DW	00H
	ORG $+2
	DD	FLAT:??_C@_01OGPIMHDM@?$DP?$AA@
	DB	06H
	ORG $+1
	DW	00H
	DW	00H
	ORG $+2
	DD	FLAT:??_C@_01HIHLOKLC@1?$AA@
	DB	02H
	ORG $+1
	DW	09H
	DW	00H
	ORG $+2
	DD	FLAT:??_C@_01OGPIMHDM@?$DP?$AA@
	DB	06H
	ORG $+1
	DW	0cH
	DW	04H
	ORG $+2
	DD	FLAT:??_C@_01MIFGBAGJ@?$CL?$AA@
	DB	04H
	ORG $+1
	DW	07H
	DW	00H
	ORG $+2
	DD	FLAT:??_C@_01OGPIMHDM@?$DP?$AA@
	DB	06H
	ORG $+1
	DW	00H
	DW	00H
	ORG $+2
	DD	FLAT:??_C@_01FDFGLJHB@2?$AA@
	DB	02H
	ORG $+1
	DW	0cH
	DW	00H
	ORG $+2
	DD	FLAT:??_C@_01OGPIMHDM@?$DP?$AA@
	DB	06H
	ORG $+1
	DW	0bH
	DW	04H
	ORG $+2
	DD	FLAT:??_C@_01NBENCBCI@?$CK?$AA@
	DB	04H
	ORG $+1
	DW	09H
	DW	00H
	ORG $+2
	DD	FLAT:??_C@_01OGPIMHDM@?$DP?$AA@
	DB	04H
	ORG $+1
	DW	0cH
	DW	00H
	ORG $+2
	DD	FLAT:??_C@_01OGPIMHDM@?$DP?$AA@
	DB	02H
	ORG $+1
	DW	0cH
	DW	00H
	ORG $+2
	DD	FLAT:??_C@_01OGPIMHDM@?$DP?$AA@
	DB	06H
	ORG $+1
	DW	09H
	DW	04H
	ORG $+2
	DD	FLAT:??_C@_01KMDKNFGN@?1?$AA@
	DB	04H
	ORG $+1
	DW	0cH
	DW	00H
	ORG $+2
	DD	FLAT:??_C@_01OGPIMHDM@?$DP?$AA@
	DB	06H
	ORG $+1
	DW	00H
	DW	00H
	ORG $+2
	DD	FLAT:??_C@_01FDFGLJHB@2?$AA@
	DB	02H
	ORG $+1
	DW	0cH
	DW	00H
	ORG $+2
	DD	FLAT:??_C@_01OGPIMHDM@?$DP?$AA@
	DB	06H
	ORG $+1
	DW	09H
	DW	04H
	ORG $+2
	DD	FLAT:??_C@_01NBENCBCI@?$CK?$AA@
	DB	04H
	ORG $+1
	DW	01H
	DW	00H
	ORG $+2
	DD	FLAT:??_C@_01OGPIMHDM@?$DP?$AA@
	DB	04H
	ORG $+1
	DW	0cH
	DW	00H
	ORG $+2
	DD	FLAT:??_C@_01OGPIMHDM@?$DP?$AA@
	DB	02H
	ORG $+1
	DW	0cH
	DW	00H
	ORG $+2
	DD	FLAT:??_C@_01OGPIMHDM@?$DP?$AA@
	DB	06H
	ORG $+1
	DW	09H
	DW	04H
	ORG $+2
	DD	FLAT:??_C@_01KMDKNFGN@?1?$AA@
	DB	04H
	ORG $+1
	DW	0cH
	DW	00H
	ORG $+2
	DD	FLAT:??_C@_01OGPIMHDM@?$DP?$AA@
	DB	04H
	ORG $+1
	DW	03H
	DW	00H
	ORG $+2
	DD	FLAT:??_C@_01OGPIMHDM@?$DP?$AA@
	DB	02H
	ORG $+1
	DW	0cH
	DW	00H
	ORG $+2
	DD	FLAT:??_C@_01OGPIMHDM@?$DP?$AA@
	DB	06H
	ORG $+1
	DW	09H
	DW	04H
	ORG $+2
	DD	FLAT:??_C@_01KMDKNFGN@?1?$AA@
	DB	04H
	ORG $+1
	DW	0cH
	DW	00H
	ORG $+2
	DD	FLAT:??_C@_01OGPIMHDM@?$DP?$AA@
	DB	034H
	ORG $+1
	DW	0cH
	DW	00H
	ORG $+2
	DD	FLAT:??_C@_01OGPIMHDM@?$DP?$AA@
	DB	04H
	ORG $+1
	DW	04H
	DW	00H
	ORG $+2
	DD	FLAT:??_C@_01OGPIMHDM@?$DP?$AA@
	DB	04H
	ORG $+1
	DW	05H
	DW	00H
	ORG $+2
	DD	FLAT:??_C@_01OGPIMHDM@?$DP?$AA@
	DB	033H
	ORG $+1
	DW	0cH
	DW	03H
	ORG $+2
	DD	FLAT:??_C@_06LKANLBLF@$float?$AA@
	DB	06H
	ORG $+1
	DW	00H
	DW	00H
	ORG $+2
	DD	FLAT:??_C@_01GBGANLPD@0?$AA@
	DB	06H
	ORG $+1
	DW	00H
	DW	00H
	ORG $+2
	DD	FLAT:??_C@_01GBGANLPD@0?$AA@
	DB	06H
	ORG $+1
	DW	00H
	DW	00H
	ORG $+2
	DD	FLAT:??_C@_09FGHMLDD@270782464?$AA@
	DB	0bH
	ORG $+1
	DW	01H
	DW	0aH
	ORG $+2
	DD	FLAT:??_C@_01OGPIMHDM@?$DP?$AA@
	DB	09H
	ORG $+1
	DW	02H
	DW	00H
	ORG $+2
	DD	FLAT:??_C@_01GBGANLPD@0?$AA@
	DB	0bH
	ORG $+1
	DW	03H
	DW	07H
	ORG $+2
	DD	FLAT:??_C@_01OGPIMHDM@?$DP?$AA@
	DB	0bH
	ORG $+1
	DW	04H
	DW	08H
	ORG $+2
	DD	FLAT:??_C@_01OGPIMHDM@?$DP?$AA@
	DB	011H
	ORG $+1
	DW	00H
	DW	04H
	ORG $+2
	DD	FLAT:??_C@_08BIMEDOJB@integers?$AA@
	DB	0dcH
	ORG $+1
	DW	00H
	DW	05H
	ORG $+2
	DD	FLAT:??_C@_05LHNEPIKO@htest?$AA@
	DB	0ddH
	ORG $+1
	DW	015H
	DW	00H
	ORG $+2
	DD	FLAT:??_C@_01IDAFKMJL@_?$AA@
	DB	0bH
	ORG $+1
	DW	06H
	DW	01H
	ORG $+2
	DD	FLAT:??_C@_01OGPIMHDM@?$DP?$AA@
	DB	0aH
	ORG $+1
	DW	08H
	DW	03H
	ORG $+2
	DD	FLAT:??_C@_0L@PIHPICBN@statistics?$AA@
	DB	06H
	ORG $+1
	DW	00H
	DW	00H
	ORG $+2
	DD	FLAT:??_C@_0N@GPEKCFBP@global_stack?$AA@
	DB	034H
	ORG $+1
	DW	09H
	DW	00H
	ORG $+2
	DD	FLAT:??_C@_01OGPIMHDM@?$DP?$AA@
	DB	06H
	ORG $+1
	DW	0aH
	DW	03H
	ORG $+2
	DD	FLAT:??_C@_0L@PIHPICBN@statistics?$AA@
	DB	06H
	ORG $+1
	DW	00H
	DW	00H
	ORG $+2
	DD	FLAT:??_C@_05FAEIOGEG@trail?$AA@
	DB	034H
	ORG $+1
	DW	0aH
	DW	00H
	ORG $+2
	DD	FLAT:??_C@_01OGPIMHDM@?$DP?$AA@
	DB	06H
	ORG $+1
	DW	0bH
	DW	03H
	ORG $+2
	DD	FLAT:??_C@_0L@PIHPICBN@statistics?$AA@
	DB	06H
	ORG $+1
	DW	00H
	DW	00H
	ORG $+2
	DD	FLAT:??_C@_0M@IHKJBCMK@local_stack?$AA@
	DB	034H
	ORG $+1
	DW	0bH
	DW	00H
	ORG $+2
	DD	FLAT:??_C@_01OGPIMHDM@?$DP?$AA@
	DB	06H
	ORG $+1
	DW	0cH
	DW	03H
	ORG $+2
	DD	FLAT:??_C@_04OJJAHOGC@nrev?$AA@
	DB	02H
	ORG $+1
	DW	01H
	DW	00H
	ORG $+2
	DD	FLAT:??_C@_01OGPIMHDM@?$DP?$AA@
	DB	03eH
	ORG $+1
	DW	01H
	DW	00H
	ORG $+2
	DD	FLAT:??_C@_01OGPIMHDM@?$DP?$AA@
	DB	06H
	ORG $+1
	DW	0cH
	DW	03H
	ORG $+2
	DD	FLAT:??_C@_0L@PIHPICBN@statistics?$AA@
	DB	06H
	ORG $+1
	DW	00H
	DW	00H
	ORG $+2
	DD	FLAT:??_C@_0N@GPEKCFBP@global_stack?$AA@
	DB	034H
	ORG $+1
	DW	0cH
	DW	00H
	ORG $+2
	DD	FLAT:??_C@_01OGPIMHDM@?$DP?$AA@
	DB	06H
	ORG $+1
	DW	0dH
	DW	03H
	ORG $+2
	DD	FLAT:??_C@_0L@PIHPICBN@statistics?$AA@
	DB	06H
	ORG $+1
	DW	00H
	DW	00H
	ORG $+2
	DD	FLAT:??_C@_05FAEIOGEG@trail?$AA@
	DB	034H
	ORG $+1
	DW	0dH
	DW	00H
	ORG $+2
	DD	FLAT:??_C@_01OGPIMHDM@?$DP?$AA@
	DB	06H
	ORG $+1
	DW	0eH
	DW	03H
	ORG $+2
	DD	FLAT:??_C@_0L@PIHPICBN@statistics?$AA@
	DB	06H
	ORG $+1
	DW	00H
	DW	00H
	ORG $+2
	DD	FLAT:??_C@_0M@IHKJBCMK@local_stack?$AA@
	DB	034H
	ORG $+1
	DW	0eH
	DW	00H
	ORG $+2
	DD	FLAT:??_C@_01OGPIMHDM@?$DP?$AA@
	DB	06H
	ORG $+1
	DW	0fH
	DW	04H
	ORG $+2
	DD	FLAT:??_C@_01JOAMLHOP@?9?$AA@
	DB	02H
	ORG $+1
	DW	0fH
	DW	00H
	ORG $+2
	DD	FLAT:??_C@_01OGPIMHDM@?$DP?$AA@
	DB	02H
	ORG $+1
	DW	010H
	DW	00H
	ORG $+2
	DD	FLAT:??_C@_01OGPIMHDM@?$DP?$AA@
	DB	04H
	ORG $+1
	DW	02H
	DW	00H
	ORG $+2
	DD	FLAT:??_C@_01OGPIMHDM@?$DP?$AA@
	DB	06H
	ORG $+1
	DW	011H
	DW	04H
	ORG $+2
	DD	FLAT:??_C@_01JOAMLHOP@?9?$AA@
	DB	02H
	ORG $+1
	DW	011H
	DW	00H
	ORG $+2
	DD	FLAT:??_C@_01OGPIMHDM@?$DP?$AA@
	DB	02H
	ORG $+1
	DW	012H
	DW	00H
	ORG $+2
	DD	FLAT:??_C@_01OGPIMHDM@?$DP?$AA@
	DB	04H
	ORG $+1
	DW	03H
	DW	00H
	ORG $+2
	DD	FLAT:??_C@_01OGPIMHDM@?$DP?$AA@
	DB	06H
	ORG $+1
	DW	013H
	DW	04H
	ORG $+2
	DD	FLAT:??_C@_01JOAMLHOP@?9?$AA@
	DB	02H
	ORG $+1
	DW	013H
	DW	00H
	ORG $+2
	DD	FLAT:??_C@_01OGPIMHDM@?$DP?$AA@
	DB	02H
	ORG $+1
	DW	014H
	DW	00H
	ORG $+2
	DD	FLAT:??_C@_01OGPIMHDM@?$DP?$AA@
	DB	04H
	ORG $+1
	DW	04H
	DW	00H
	ORG $+2
	DD	FLAT:??_C@_01OGPIMHDM@?$DP?$AA@
	DB	04H
	ORG $+1
	DW	05H
	DW	00H
	ORG $+2
	DD	FLAT:??_C@_01OGPIMHDM@?$DP?$AA@
	DB	033H
	ORG $+1
	DW	0eH
	DW	02H
	ORG $+2
	DD	FLAT:??_C@_01LFCBOECM@?4?$AA@
	DB	04H
	ORG $+1
	DW	013H
	DW	00H
	ORG $+2
	DD	FLAT:??_C@_01OGPIMHDM@?$DP?$AA@
	DB	06H
	ORG $+1
	DW	013H
	DW	02H
	ORG $+2
	DD	FLAT:??_C@_01LFCBOECM@?4?$AA@
	DB	03eH
	ORG $+1
	DW	01H
	DW	00H
	ORG $+2
	DD	FLAT:??_C@_01OGPIMHDM@?$DP?$AA@
	DB	06H
	ORG $+1
	DW	00H
	DW	00H
	ORG $+2
	DD	FLAT:??_C@_02GPECMEKF@?$FL?$FN?$AA@
	DB	033H
	ORG $+1
	DW	0dH
	DW	02H
	ORG $+2
	DD	FLAT:??_C@_01LFCBOECM@?4?$AA@
	DB	04H
	ORG $+1
	DW	011H
	DW	00H
	ORG $+2
	DD	FLAT:??_C@_01OGPIMHDM@?$DP?$AA@
	DB	06H
	ORG $+1
	DW	011H
	DW	02H
	ORG $+2
	DD	FLAT:??_C@_01LFCBOECM@?4?$AA@
	DB	03eH
	ORG $+1
	DW	01H
	DW	00H
	ORG $+2
	DD	FLAT:??_C@_01OGPIMHDM@?$DP?$AA@
	DB	06H
	ORG $+1
	DW	00H
	DW	00H
	ORG $+2
	DD	FLAT:??_C@_02GPECMEKF@?$FL?$FN?$AA@
	DB	033H
	ORG $+1
	DW	0cH
	DW	02H
	ORG $+2
	DD	FLAT:??_C@_01LFCBOECM@?4?$AA@
	DB	04H
	ORG $+1
	DW	0fH
	DW	00H
	ORG $+2
	DD	FLAT:??_C@_01OGPIMHDM@?$DP?$AA@
	DB	06H
	ORG $+1
	DW	0fH
	DW	02H
	ORG $+2
	DD	FLAT:??_C@_01LFCBOECM@?4?$AA@
	DB	03eH
	ORG $+1
	DW	01H
	DW	00H
	ORG $+2
	DD	FLAT:??_C@_01OGPIMHDM@?$DP?$AA@
	DB	06H
	ORG $+1
	DW	00H
	DW	00H
	ORG $+2
	DD	FLAT:??_C@_02GPECMEKF@?$FL?$FN?$AA@
	DB	033H
	ORG $+1
	DW	0bH
	DW	02H
	ORG $+2
	DD	FLAT:??_C@_01LFCBOECM@?4?$AA@
	DB	04H
	ORG $+1
	DW	014H
	DW	00H
	ORG $+2
	DD	FLAT:??_C@_01OGPIMHDM@?$DP?$AA@
	DB	06H
	ORG $+1
	DW	014H
	DW	02H
	ORG $+2
	DD	FLAT:??_C@_01LFCBOECM@?4?$AA@
	DB	03eH
	ORG $+1
	DW	01H
	DW	00H
	ORG $+2
	DD	FLAT:??_C@_01OGPIMHDM@?$DP?$AA@
	DB	06H
	ORG $+1
	DW	00H
	DW	00H
	ORG $+2
	DD	FLAT:??_C@_02GPECMEKF@?$FL?$FN?$AA@
	DB	033H
	ORG $+1
	DW	0aH
	DW	02H
	ORG $+2
	DD	FLAT:??_C@_01LFCBOECM@?4?$AA@
	DB	04H
	ORG $+1
	DW	012H
	DW	00H
	ORG $+2
	DD	FLAT:??_C@_01OGPIMHDM@?$DP?$AA@
	DB	06H
	ORG $+1
	DW	012H
	DW	02H
	ORG $+2
	DD	FLAT:??_C@_01LFCBOECM@?4?$AA@
	DB	03eH
	ORG $+1
	DW	01H
	DW	00H
	ORG $+2
	DD	FLAT:??_C@_01OGPIMHDM@?$DP?$AA@
	DB	06H
	ORG $+1
	DW	00H
	DW	00H
	ORG $+2
	DD	FLAT:??_C@_02GPECMEKF@?$FL?$FN?$AA@
	DB	033H
	ORG $+1
	DW	09H
	DW	02H
	ORG $+2
	DD	FLAT:??_C@_01LFCBOECM@?4?$AA@
	DB	04H
	ORG $+1
	DW	010H
	DW	00H
	ORG $+2
	DD	FLAT:??_C@_01OGPIMHDM@?$DP?$AA@
	DB	06H
	ORG $+1
	DW	010H
	DW	02H
	ORG $+2
	DD	FLAT:??_C@_01LFCBOECM@?4?$AA@
	DB	03eH
	ORG $+1
	DW	01H
	DW	00H
	ORG $+2
	DD	FLAT:??_C@_01OGPIMHDM@?$DP?$AA@
	DB	06H
	ORG $+1
	DW	00H
	DW	00H
	ORG $+2
	DD	FLAT:??_C@_02GPECMEKF@?$FL?$FN?$AA@
	DB	09H
	ORG $+1
	DW	02H
	DW	00H
	ORG $+2
	DD	FLAT:??_C@_01GBGANLPD@0?$AA@
	DB	0bH
	ORG $+1
	DW	03H
	DW	06H
	ORG $+2
	DD	FLAT:??_C@_01OGPIMHDM@?$DP?$AA@
	DB	0bH
	ORG $+1
	DW	04H
	DW	08H
	ORG $+2
	DD	FLAT:??_C@_01OGPIMHDM@?$DP?$AA@
	DB	011H
	ORG $+1
	DW	00H
	DW	04H
	ORG $+2
	DD	FLAT:??_C@_08BIMEDOJB@integers?$AA@
	DB	0dcH
	ORG $+1
	DW	00H
	DW	04H
	ORG $+2
	DD	FLAT:??_C@_02KPEDIMCA@go?$AA@
	DB	0ddH
	ORG $+1
	DW	011H
	DW	00H
	ORG $+2
	DD	FLAT:??_C@_01IDAFKMJL@_?$AA@
	DB	03fH
	ORG $+1
	DW	06H
	DW	00H
	ORG $+2
	DD	FLAT:_go_4_1_1
	DB	06H
	ORG $+1
	DW	00H
	DW	05H
	ORG $+2
	DD	FLAT:??_C@_05LHNEPIKO@htest?$AA@
	DB	06H
	ORG $+1
	DW	00H
	DW	01H
	ORG $+2
	DD	FLAT:??_C@_02ILLPOEGM@nl?$AA@
	DB	06H
	ORG $+1
	DW	00H
	DW	02H
	ORG $+2
	DD	FLAT:??_C@_05NGFEDHGN@write?$AA@
	DB	06H
	ORG $+1
	DW	00H
	DW	02H
	ORG $+2
	DD	FLAT:??_C@_01NEMOKFLO@?$DN?$AA@
	DB	06H
	ORG $+1
	DW	00H
	DW	02H
	ORG $+2
	DD	FLAT:??_C@_01LFCBOECM@?4?$AA@
	DB	06H
	ORG $+1
	DW	00H
	DW	00H
	ORG $+2
	DD	FLAT:??_C@_02GPECMEKF@?$FL?$FN?$AA@
	DB	06H
	ORG $+1
	DW	00H
	DW	00H
	ORG $+2
	DD	FLAT:??_C@_05IANLDAEP@stack?$AA@
	DB	06H
	ORG $+1
	DW	00H
	DW	00H
	ORG $+2
	DD	FLAT:??_C@_05FAEIOGEG@trail?$AA@
	DB	06H
	ORG $+1
	DW	00H
	DW	00H
	ORG $+2
	DD	FLAT:??_C@_04PKENOLLO@heap?$AA@
	DB	06H
	ORG $+1
	DW	00H
	DW	00H
	ORG $+2
	DD	FLAT:??_C@_0L@LEIMKHLK@iterations?$AA@
	DB	06H
	ORG $+1
	DW	00H
	DW	00H
	ORG $+2
	DD	FLAT:??_C@_06IJDLPEM@length?$AA@
	DB	06H
	ORG $+1
	DW	00H
	DW	00H
	ORG $+2
	DD	FLAT:??_C@_04CLCEDBPF@time?$AA@
	DB	06H
	ORG $+1
	DW	00H
	DW	00H
	ORG $+2
	DD	FLAT:??_C@_05GGABMBGF@klips?$AA@
	DB	040H
	ORG $+1
	DW	00H
	DW	0eH
	ORG $+2
	DD	FLAT:??_C@_01OGPIMHDM@?$DP?$AA@
	DB	011H
	ORG $+1
	DW	00H
	DW	05H
	ORG $+2
	DD	FLAT:??_C@_02JLLOCMEJ@bm?$AA@
	DB	0dcH
	ORG $+1
	DW	00H
	DW	01H
	ORG $+2
	DD	FLAT:??_C@_02GHJKAGCI@gg?$AA@
	DB	0ddH
	ORG $+1
	DW	05H
	DW	00H
	ORG $+2
	DD	FLAT:??_C@_01IDAFKMJL@_?$AA@
	DB	0bH
	ORG $+1
	DW	03H
	DW	01H
	ORG $+2
	DD	FLAT:??_C@_01OGPIMHDM@?$DP?$AA@
	DB	09H
	ORG $+1
	DW	01H
	DW	00H
	ORG $+2
	DD	FLAT:??_C@_02PNFIDHGF@50?$AA@
	DB	09H
	ORG $+1
	DW	02H
	DW	00H
	ORG $+2
	DD	FLAT:??_C@_03GNABGMEE@100?$AA@
	DB	011H
	ORG $+1
	DW	00H
	DW	03H
	ORG $+2
	DD	FLAT:??_C@_02KPEDIMCA@go?$AA@
	DB	0dcH
	ORG $+1
	DW	00H
	DW	01H
	ORG $+2
	DD	FLAT:??_C@_02JCGAMNLL@g0?$AA@
	DB	0ddH
	ORG $+1
	DW	05H
	DW	00H
	ORG $+2
	DD	FLAT:??_C@_01IDAFKMJL@_?$AA@
	DB	0bH
	ORG $+1
	DW	03H
	DW	01H
	ORG $+2
	DD	FLAT:??_C@_01OGPIMHDM@?$DP?$AA@
	DB	09H
	ORG $+1
	DW	01H
	DW	00H
	ORG $+2
	DD	FLAT:??_C@_03GNABGMEE@100?$AA@
	DB	09H
	ORG $+1
	DW	02H
	DW	00H
	ORG $+2
	DD	FLAT:??_C@_03HPLEMDKK@200?$AA@
	DB	011H
	ORG $+1
	DW	00H
	DW	03H
	ORG $+2
	DD	FLAT:??_C@_02KPEDIMCA@go?$AA@
	DB	0dcH
	ORG $+1
	DW	00H
	DW	01H
	ORG $+2
	DD	FLAT:??_C@_02ILHLPMPK@g1?$AA@
	DB	0ddH
	ORG $+1
	DW	05H
	DW	00H
	ORG $+2
	DD	FLAT:??_C@_01IDAFKMJL@_?$AA@
	DB	0bH
	ORG $+1
	DW	03H
	DW	01H
	ORG $+2
	DD	FLAT:??_C@_01OGPIMHDM@?$DP?$AA@
	DB	09H
	ORG $+1
	DW	01H
	DW	00H
	ORG $+2
	DD	FLAT:??_C@_03GNABGMEE@100?$AA@
	DB	09H
	ORG $+1
	DW	02H
	DW	00H
	ORG $+2
	DD	FLAT:??_C@_03BAAJCDMO@800?$AA@
	DB	011H
	ORG $+1
	DW	00H
	DW	03H
	ORG $+2
	DD	FLAT:??_C@_02KPEDIMCA@go?$AA@
	DB	0dcH
	ORG $+1
	DW	00H
	DW	01H
	ORG $+2
	DD	FLAT:??_C@_02KAFGKPDJ@g2?$AA@
	DB	0ddH
	ORG $+1
	DW	05H
	DW	00H
	ORG $+2
	DD	FLAT:??_C@_01IDAFKMJL@_?$AA@
	DB	0bH
	ORG $+1
	DW	03H
	DW	01H
	ORG $+2
	DD	FLAT:??_C@_01OGPIMHDM@?$DP?$AA@
	DB	09H
	ORG $+1
	DW	01H
	DW	00H
	ORG $+2
	DD	FLAT:??_C@_03HPLEMDKK@200?$AA@
	DB	09H
	ORG $+1
	DW	02H
	DW	00H
	ORG $+2
	DD	FLAT:??_C@_03HPLEMDKK@200?$AA@
	DB	011H
	ORG $+1
	DW	00H
	DW	03H
	ORG $+2
	DD	FLAT:??_C@_02KPEDIMCA@go?$AA@
	DB	0dcH
	ORG $+1
	DW	00H
	DW	01H
	ORG $+2
	DD	FLAT:??_C@_02LJENJOHI@g3?$AA@
	DB	0ddH
	ORG $+1
	DW	05H
	DW	00H
	ORG $+2
	DD	FLAT:??_C@_01IDAFKMJL@_?$AA@
	DB	0aH
	ORG $+1
	DW	02H
	DW	01H
	ORG $+2
	DD	FLAT:??_C@_02ILLPOEGM@nl?$AA@
	DB	06H
	ORG $+1
	DW	04H
	DW	03H
	ORG $+2
	DD	FLAT:??_C@_02KPEDIMCA@go?$AA@
	DB	06H
	ORG $+1
	DW	00H
	DW	00H
	ORG $+2
	DD	FLAT:??_C@_04OJDKMIMG@2000?$AA@
	DB	06H
	ORG $+1
	DW	00H
	DW	00H
	ORG $+2
	DD	FLAT:??_C@_01HIHLOKLC@1?$AA@
	DB	04H
	ORG $+1
	DW	01H
	DW	00H
	ORG $+2
	DD	FLAT:??_C@_01OGPIMHDM@?$DP?$AA@
	DB	09H
	ORG $+1
	DW	01H
	DW	00H
	ORG $+2
	DD	FLAT:??_C@_0P@MFKLNEDB@use?5bp?5?9h20000?$AA@
	DB	011H
	ORG $+1
	DW	00H
	DW	02H
	ORG $+2
	DD	FLAT:??_C@_05NGFEDHGN@write?$AA@
	DB	0dcH
	ORG $+1
	DW	00H
	DW	01H
	ORG $+2
	DD	FLAT:??_C@_02PGAMAILP@g4?$AA@
	DB	0ddH
	ORG $+1
	DW	0aH
	DW	00H
	ORG $+2
	DD	FLAT:??_C@_01IDAFKMJL@_?$AA@
	DB	03fH
	ORG $+1
	DW	05H
	DW	00H
	ORG $+2
	DD	FLAT:_g4_1_1_1
	DB	06H
	ORG $+1
	DW	00H
	DW	03H
	ORG $+2
	DD	FLAT:??_C@_04OJJAHOGC@nrev?$AA@
	DB	06H
	ORG $+1
	DW	00H
	DW	03H
	ORG $+2
	DD	FLAT:??_C@_06IJDLPEM@length?$AA@
	DB	06H
	ORG $+1
	DW	00H
	DW	01H
	ORG $+2
	DD	FLAT:??_C@_0L@PIHPICBN@statistics?$AA@
	DB	06H
	ORG $+1
	DW	00H
	DW	02H
	ORG $+2
	DD	FLAT:??_C@_05NGFEDHGN@write?$AA@
	DB	06H
	ORG $+1
	DW	00H
	DW	01H
	ORG $+2
	DD	FLAT:??_C@_02ILLPOEGM@nl?$AA@
	DB	06H
	ORG $+1
	DW	00H
	DW	02H
	ORG $+2
	DD	FLAT:??_C@_01NEMOKFLO@?$DN?$AA@
	DB	06H
	ORG $+1
	DW	00H
	DW	00H
	ORG $+2
	DD	FLAT:??_C@_06IJDLPEM@length?$AA@
	DB	06H
	ORG $+1
	DW	00H
	DW	02H
	ORG $+2
	DD	FLAT:??_C@_01MIFGBAGJ@?$CL?$AA@
	DB	040H
	ORG $+1
	DW	00H
	DW	09H
	ORG $+2
	DD	FLAT:??_C@_01OGPIMHDM@?$DP?$AA@
	DB	011H
	ORG $+1
	DW	00H
	DW	04H
	ORG $+2
	DD	FLAT:??_C@_08BIMEDOJB@integers?$AA@
	DB	0dcH
	ORG $+1
	DW	00H
	DW	03H
	ORG $+2
	DD	FLAT:??_C@_02KPEDIMCA@go?$AA@
	DB	0ddH
	ORG $+1
	DW	08H
	DW	00H
	ORG $+2
	DD	FLAT:??_C@_01IDAFKMJL@_?$AA@
	DB	0bH
	ORG $+1
	DW	05H
	DW	01H
	ORG $+2
	DD	FLAT:??_C@_01OGPIMHDM@?$DP?$AA@
	DB	0bH
	ORG $+1
	DW	07H
	DW	02H
	ORG $+2
	DD	FLAT:??_C@_01OGPIMHDM@?$DP?$AA@
	DB	0bH
	ORG $+1
	DW	04H
	DW	03H
	ORG $+2
	DD	FLAT:??_C@_01OGPIMHDM@?$DP?$AA@
	DB	09H
	ORG $+1
	DW	01H
	DW	00H
	ORG $+2
	DD	FLAT:??_C@_04CEJDCDCH@test?$AA@
	DB	0bH
	ORG $+1
	DW	02H
	DW	05H
	ORG $+2
	DD	FLAT:??_C@_01OGPIMHDM@?$DP?$AA@
	DB	0bH
	ORG $+1
	DW	03H
	DW	07H
	ORG $+2
	DD	FLAT:??_C@_01OGPIMHDM@?$DP?$AA@
	DB	011H
	ORG $+1
	DW	00H
	DW	04H
	ORG $+2
	DD	FLAT:??_C@_02KPEDIMCA@go?$AA@
	DB	0dcH
	ORG $+1
	DW	00H
	DW	01H
	ORG $+2
	DD	FLAT:??_C@_02KPEDIMCA@go?$AA@
	DB	0ddH
	ORG $+1
	DW	04H
	DW	00H
	ORG $+2
	DD	FLAT:??_C@_01IDAFKMJL@_?$AA@
	DB	0bH
	ORG $+1
	DW	02H
	DW	01H
	ORG $+2
	DD	FLAT:??_C@_01OGPIMHDM@?$DP?$AA@
	DB	09H
	ORG $+1
	DW	01H
	DW	00H
	ORG $+2
	DD	FLAT:??_C@_0M@HGBLNGMI@BMARK_brev?3?$AA@
	DB	011H
	ORG $+1
	DW	00H
	DW	02H
	ORG $+2
	DD	FLAT:??_C@_02KPEDIMCA@go?$AA@
	DB	0dcH
	ORG $+1
	DW	00H
	DW	02H
	ORG $+2
	DD	FLAT:??_C@_02KPEDIMCA@go?$AA@
	DB	0ddH
	ORG $+1
	DW	06H
	DW	00H
	ORG $+2
	DD	FLAT:??_C@_01IDAFKMJL@_?$AA@
	DB	0bH
	ORG $+1
	DW	04H
	DW	02H
	ORG $+2
	DD	FLAT:??_C@_01OGPIMHDM@?$DP?$AA@
	DB	0cH
	ORG $+1
	DW	02H
	DW	00H
	ORG $+2
	DD	FLAT:??_C@_01OGPIMHDM@?$DP?$AA@
	DB	07H
	ORG $+1
	DW	00H
	DW	00H
	ORG $+2
	DD	FLAT:??_C@_03MHAIKEMP@300?$AA@
	DB	0cH
	ORG $+1
	DW	03H
	DW	00H
	ORG $+2
	DD	FLAT:??_C@_01OGPIMHDM@?$DP?$AA@
	DB	07H
	ORG $+1
	DW	00H
	DW	00H
	ORG $+2
	DD	FLAT:??_C@_03GNABGMEE@100?$AA@
	DB	011H
	ORG $+1
	DW	00H
	DW	04H
	ORG $+2
	DD	FLAT:??_C@_02KPEDIMCA@go?$AA@
	DB	0dcH
	ORG $+1
	DW	00H
	DW	01H
	ORG $+2
	DD	FLAT:??_C@_03CCCOBCKE@big?$AA@
	DB	0ddH
	ORG $+1
	DW	04H
	DW	00H
	ORG $+2
	DD	FLAT:??_C@_01IDAFKMJL@_?$AA@
	DB	0bH
	ORG $+1
	DW	02H
	DW	01H
	ORG $+2
	DD	FLAT:??_C@_01OGPIMHDM@?$DP?$AA@
	DB	09H
	ORG $+1
	DW	01H
	DW	00H
	ORG $+2
	DD	FLAT:??_C@_0CB@PKICBPCH@BMARK_brev_1000_times_300_nrevs?3@
	DB	011H
	ORG $+1
	DW	00H
	DW	02H
	ORG $+2
	DD	FLAT:??_C@_03CCCOBCKE@big?$AA@
	DB	0dcH
	ORG $+1
	DW	00H
	DW	02H
	ORG $+2
	DD	FLAT:??_C@_03CCCOBCKE@big?$AA@
	DB	0ddH
	ORG $+1
	DW	06H
	DW	00H
	ORG $+2
	DD	FLAT:??_C@_01IDAFKMJL@_?$AA@
	DB	0bH
	ORG $+1
	DW	04H
	DW	02H
	ORG $+2
	DD	FLAT:??_C@_01OGPIMHDM@?$DP?$AA@
	DB	0cH
	ORG $+1
	DW	02H
	DW	00H
	ORG $+2
	DD	FLAT:??_C@_01OGPIMHDM@?$DP?$AA@
	DB	07H
	ORG $+1
	DW	00H
	DW	00H
	ORG $+2
	DD	FLAT:??_C@_03MHAIKEMP@300?$AA@
	DB	0cH
	ORG $+1
	DW	03H
	DW	00H
	ORG $+2
	DD	FLAT:??_C@_01OGPIMHDM@?$DP?$AA@
	DB	07H
	ORG $+1
	DW	00H
	DW	00H
	ORG $+2
	DD	FLAT:??_C@_04KOJKLCBG@1000?$AA@
	DB	011H
	ORG $+1
	DW	00H
	DW	04H
	ORG $+2
	DD	FLAT:??_C@_02KPEDIMCA@go?$AA@
	DB	0dcH
	ORG $+1
	DW	00H
	DW	02H
	ORG $+2
	DD	FLAT:??_C@_05NAPFDJNG@timer?$AA@
	DB	0ddH
	ORG $+1
	DW	08H
	DW	00H
	ORG $+2
	DD	FLAT:??_C@_01IDAFKMJL@_?$AA@
	DB	03fH
	ORG $+1
	DW	04H
	DW	00H
	ORG $+2
	DD	FLAT:_timer_2_1_1
	DB	06H
	ORG $+1
	DW	00H
	DW	02H
	ORG $+2
	DD	FLAT:??_C@_01LFCBOECM@?4?$AA@
	DB	06H
	ORG $+1
	DW	00H
	DW	00H
	ORG $+2
	DD	FLAT:??_C@_02GPECMEKF@?$FL?$FN?$AA@
	DB	06H
	ORG $+1
	DW	00H
	DW	04H
	ORG $+2
	DD	FLAT:??_C@_01KMDKNFGN@?1?$AA@
	DB	06H
	ORG $+1
	DW	00H
	DW	03H
	ORG $+2
	DD	FLAT:??_C@_06LKANLBLF@$float?$AA@
	DB	06H
	ORG $+1
	DW	00H
	DW	00H
	ORG $+2
	DD	FLAT:??_C@_07OKPPBOMK@runtime?$AA@
	DB	040H
	ORG $+1
	DW	00H
	DW	06H
	ORG $+2
	DD	FLAT:??_C@_01OGPIMHDM@?$DP?$AA@
	DB	011H
	ORG $+1
	DW	00H
	DW	03H
	ORG $+2
	DD	FLAT:??_C@_0L@PIHPICBN@statistics?$AA@
	DB	0dcH
	ORG $+1
	DW	00H
	DW	01H
	ORG $+2
	DD	FLAT:??_C@_01JBBJJEPG@p?$AA@
	DB	0ddH
	ORG $+1
	DW	05H
	DW	00H
	ORG $+2
	DD	FLAT:??_C@_01IDAFKMJL@_?$AA@
	DB	0bH
	ORG $+1
	DW	03H
	DW	01H
	ORG $+2
	DD	FLAT:??_C@_01OGPIMHDM@?$DP?$AA@
	DB	09H
	ORG $+1
	DW	01H
	DW	00H
	ORG $+2
	DD	FLAT:??_C@_04CMGAJDGD@brev?$AA@
	DB	09H
	ORG $+1
	DW	02H
	DW	00H
	ORG $+2
	DD	FLAT:??_C@_02GPECMEKF@?$FL?$FN?$AA@
	DB	011H
	ORG $+1
	DW	00H
	DW	03H
	ORG $+2
	DD	FLAT:??_C@_01LFCBOECM@?4?$AA@
	DB	0dcH
	ORG $+1
	DW	00H
	DW	01H
	ORG $+2
	DD	FLAT:??_C@_07FFBONCCO@v0563c0?$AA@
	DB	0ddH
	ORG $+1
	DW	03H
	DW	00H
	ORG $+2
	DD	FLAT:??_C@_01IDAFKMJL@_?$AA@
	DB	011H
	ORG $+1
	DW	00H
	DW	01H
	ORG $+2
	DD	FLAT:??_C@_04LOAJBDKD@true?$AA@
	DB	00H
	ORG $+1
	DW	00H
	DW	00H
	ORG $+2
	DD	FLAT:??_C@_01PAPGNFGE@c?$AA@
	DB	0ffH
	ORG $+1
	DW	00H
	DW	00H
	ORG $+2
	DD	FLAT:??_C@_07IPMECBNO@user_bp?$AA@
_user_bp_size DD 01170H
_DATA	ENDS
;	COMDAT ??_C@_07IPMECBNO@user_bp?$AA@
CONST	SEGMENT
??_C@_07IPMECBNO@user_bp?$AA@ DB 'user_bp', 00H		; `string'
CONST	ENDS
;	COMDAT ??_C@_01PAPGNFGE@c?$AA@
CONST	SEGMENT
??_C@_01PAPGNFGE@c?$AA@ DB 'c', 00H			; `string'
CONST	ENDS
;	COMDAT ??_C@_07FFBONCCO@v0563c0?$AA@
CONST	SEGMENT
??_C@_07FFBONCCO@v0563c0?$AA@ DB 'v0563c0', 00H		; `string'
CONST	ENDS
;	COMDAT ??_C@_04CMGAJDGD@brev?$AA@
CONST	SEGMENT
??_C@_04CMGAJDGD@brev?$AA@ DB 'brev', 00H		; `string'
CONST	ENDS
;	COMDAT ??_C@_01JBBJJEPG@p?$AA@
CONST	SEGMENT
??_C@_01JBBJJEPG@p?$AA@ DB 'p', 00H			; `string'
CONST	ENDS
;	COMDAT ??_C@_07OKPPBOMK@runtime?$AA@
CONST	SEGMENT
??_C@_07OKPPBOMK@runtime?$AA@ DB 'runtime', 00H		; `string'
CONST	ENDS
;	COMDAT ??_C@_04KOJKLCBG@1000?$AA@
CONST	SEGMENT
??_C@_04KOJKLCBG@1000?$AA@ DB '1000', 00H		; `string'
CONST	ENDS
;	COMDAT ??_C@_0CB@PKICBPCH@BMARK_brev_1000_times_300_nrevs?3@
CONST	SEGMENT
??_C@_0CB@PKICBPCH@BMARK_brev_1000_times_300_nrevs?3@ DB 'BMARK_brev_1000'
	DB	'_times_300_nrevs:', 00H			; `string'
CONST	ENDS
;	COMDAT ??_C@_03CCCOBCKE@big?$AA@
CONST	SEGMENT
??_C@_03CCCOBCKE@big?$AA@ DB 'big', 00H			; `string'
CONST	ENDS
;	COMDAT ??_C@_03MHAIKEMP@300?$AA@
CONST	SEGMENT
??_C@_03MHAIKEMP@300?$AA@ DB '300', 00H			; `string'
CONST	ENDS
;	COMDAT ??_C@_0M@HGBLNGMI@BMARK_brev?3?$AA@
CONST	SEGMENT
??_C@_0M@HGBLNGMI@BMARK_brev?3?$AA@ DB 'BMARK_brev:', 00H ; `string'
CONST	ENDS
;	COMDAT ??_C@_04CEJDCDCH@test?$AA@
CONST	SEGMENT
??_C@_04CEJDCDCH@test?$AA@ DB 'test', 00H		; `string'
CONST	ENDS
;	COMDAT ??_C@_02PGAMAILP@g4?$AA@
CONST	SEGMENT
??_C@_02PGAMAILP@g4?$AA@ DB 'g4', 00H			; `string'
CONST	ENDS
;	COMDAT ??_C@_0P@MFKLNEDB@use?5bp?5?9h20000?$AA@
CONST	SEGMENT
??_C@_0P@MFKLNEDB@use?5bp?5?9h20000?$AA@ DB 'use bp -h20000', 00H ; `string'
CONST	ENDS
;	COMDAT ??_C@_04OJDKMIMG@2000?$AA@
CONST	SEGMENT
??_C@_04OJDKMIMG@2000?$AA@ DB '2000', 00H		; `string'
CONST	ENDS
;	COMDAT ??_C@_02LJENJOHI@g3?$AA@
CONST	SEGMENT
??_C@_02LJENJOHI@g3?$AA@ DB 'g3', 00H			; `string'
CONST	ENDS
;	COMDAT ??_C@_02KAFGKPDJ@g2?$AA@
CONST	SEGMENT
??_C@_02KAFGKPDJ@g2?$AA@ DB 'g2', 00H			; `string'
CONST	ENDS
;	COMDAT ??_C@_03BAAJCDMO@800?$AA@
CONST	SEGMENT
??_C@_03BAAJCDMO@800?$AA@ DB '800', 00H			; `string'
CONST	ENDS
;	COMDAT ??_C@_02ILHLPMPK@g1?$AA@
CONST	SEGMENT
??_C@_02ILHLPMPK@g1?$AA@ DB 'g1', 00H			; `string'
CONST	ENDS
;	COMDAT ??_C@_03HPLEMDKK@200?$AA@
CONST	SEGMENT
??_C@_03HPLEMDKK@200?$AA@ DB '200', 00H			; `string'
CONST	ENDS
;	COMDAT ??_C@_02JCGAMNLL@g0?$AA@
CONST	SEGMENT
??_C@_02JCGAMNLL@g0?$AA@ DB 'g0', 00H			; `string'
CONST	ENDS
;	COMDAT ??_C@_03GNABGMEE@100?$AA@
CONST	SEGMENT
??_C@_03GNABGMEE@100?$AA@ DB '100', 00H			; `string'
CONST	ENDS
;	COMDAT ??_C@_02PNFIDHGF@50?$AA@
CONST	SEGMENT
??_C@_02PNFIDHGF@50?$AA@ DB '50', 00H			; `string'
CONST	ENDS
;	COMDAT ??_C@_02GHJKAGCI@gg?$AA@
CONST	SEGMENT
??_C@_02GHJKAGCI@gg?$AA@ DB 'gg', 00H			; `string'
CONST	ENDS
;	COMDAT ??_C@_05GGABMBGF@klips?$AA@
CONST	SEGMENT
??_C@_05GGABMBGF@klips?$AA@ DB 'klips', 00H		; `string'
CONST	ENDS
;	COMDAT ??_C@_04CLCEDBPF@time?$AA@
CONST	SEGMENT
??_C@_04CLCEDBPF@time?$AA@ DB 'time', 00H		; `string'
CONST	ENDS
;	COMDAT ??_C@_06IJDLPEM@length?$AA@
CONST	SEGMENT
??_C@_06IJDLPEM@length?$AA@ DB 'length', 00H		; `string'
CONST	ENDS
;	COMDAT ??_C@_0L@LEIMKHLK@iterations?$AA@
CONST	SEGMENT
??_C@_0L@LEIMKHLK@iterations?$AA@ DB 'iterations', 00H	; `string'
CONST	ENDS
;	COMDAT ??_C@_04PKENOLLO@heap?$AA@
CONST	SEGMENT
??_C@_04PKENOLLO@heap?$AA@ DB 'heap', 00H		; `string'
CONST	ENDS
;	COMDAT ??_C@_05IANLDAEP@stack?$AA@
CONST	SEGMENT
??_C@_05IANLDAEP@stack?$AA@ DB 'stack', 00H		; `string'
CONST	ENDS
;	COMDAT ??_C@_01NEMOKFLO@?$DN?$AA@
CONST	SEGMENT
??_C@_01NEMOKFLO@?$DN?$AA@ DB '=', 00H			; `string'
CONST	ENDS
;	COMDAT ??_C@_05NGFEDHGN@write?$AA@
CONST	SEGMENT
??_C@_05NGFEDHGN@write?$AA@ DB 'write', 00H		; `string'
CONST	ENDS
;	COMDAT ??_C@_02ILLPOEGM@nl?$AA@
CONST	SEGMENT
??_C@_02ILLPOEGM@nl?$AA@ DB 'nl', 00H			; `string'
CONST	ENDS
;	COMDAT ??_C@_02KPEDIMCA@go?$AA@
CONST	SEGMENT
??_C@_02KPEDIMCA@go?$AA@ DB 'go', 00H			; `string'
CONST	ENDS
;	COMDAT ??_C@_0M@IHKJBCMK@local_stack?$AA@
CONST	SEGMENT
??_C@_0M@IHKJBCMK@local_stack?$AA@ DB 'local_stack', 00H ; `string'
CONST	ENDS
;	COMDAT ??_C@_05FAEIOGEG@trail?$AA@
CONST	SEGMENT
??_C@_05FAEIOGEG@trail?$AA@ DB 'trail', 00H		; `string'
CONST	ENDS
;	COMDAT ??_C@_0N@GPEKCFBP@global_stack?$AA@
CONST	SEGMENT
??_C@_0N@GPEKCFBP@global_stack?$AA@ DB 'global_stack', 00H ; `string'
CONST	ENDS
;	COMDAT ??_C@_0L@PIHPICBN@statistics?$AA@
CONST	SEGMENT
??_C@_0L@PIHPICBN@statistics?$AA@ DB 'statistics', 00H	; `string'
CONST	ENDS
;	COMDAT ??_C@_05LHNEPIKO@htest?$AA@
CONST	SEGMENT
??_C@_05LHNEPIKO@htest?$AA@ DB 'htest', 00H		; `string'
CONST	ENDS
;	COMDAT ??_C@_09FGHMLDD@270782464?$AA@
CONST	SEGMENT
??_C@_09FGHMLDD@270782464?$AA@ DB '270782464', 00H	; `string'
CONST	ENDS
;	COMDAT ??_C@_06LKANLBLF@$float?$AA@
CONST	SEGMENT
??_C@_06LKANLBLF@$float?$AA@ DB '$float', 00H		; `string'
CONST	ENDS
;	COMDAT ??_C@_01KMDKNFGN@?1?$AA@
CONST	SEGMENT
??_C@_01KMDKNFGN@?1?$AA@ DB '/', 00H			; `string'
CONST	ENDS
;	COMDAT ??_C@_01NBENCBCI@?$CK?$AA@
CONST	SEGMENT
??_C@_01NBENCBCI@?$CK?$AA@ DB '*', 00H			; `string'
CONST	ENDS
;	COMDAT ??_C@_01FDFGLJHB@2?$AA@
CONST	SEGMENT
??_C@_01FDFGLJHB@2?$AA@ DB '2', 00H			; `string'
CONST	ENDS
;	COMDAT ??_C@_01MIFGBAGJ@?$CL?$AA@
CONST	SEGMENT
??_C@_01MIFGBAGJ@?$CL?$AA@ DB '+', 00H			; `string'
CONST	ENDS
;	COMDAT ??_C@_05NAPFDJNG@timer?$AA@
CONST	SEGMENT
??_C@_05NAPFDJNG@timer?$AA@ DB 'timer', 00H		; `string'
CONST	ENDS
;	COMDAT ??_C@_02JLLOCMEJ@bm?$AA@
CONST	SEGMENT
??_C@_02JLLOCMEJ@bm?$AA@ DB 'bm', 00H			; `string'
CONST	ENDS
;	COMDAT ??_C@_08BIMEDOJB@integers?$AA@
CONST	SEGMENT
??_C@_08BIMEDOJB@integers?$AA@ DB 'integers', 00H	; `string'
CONST	ENDS
;	COMDAT ??_C@_01GBGANLPD@0?$AA@
CONST	SEGMENT
??_C@_01GBGANLPD@0?$AA@ DB '0', 00H			; `string'
CONST	ENDS
;	COMDAT ??_C@_0M@POEMMNFD@empty_range?$AA@
CONST	SEGMENT
??_C@_0M@POEMMNFD@empty_range?$AA@ DB 'empty_range', 00H ; `string'
CONST	ENDS
;	COMDAT ??_C@_05JLNEMJLN@dummy?$AA@
CONST	SEGMENT
??_C@_05JLNEMJLN@dummy?$AA@ DB 'dummy', 00H		; `string'
CONST	ENDS
;	COMDAT ??_C@_05CCGOGOBM@range?$AA@
CONST	SEGMENT
??_C@_05CCGOGOBM@range?$AA@ DB 'range', 00H		; `string'
CONST	ENDS
;	COMDAT ??_C@_04CCHLMOGN@fail?$AA@
CONST	SEGMENT
??_C@_04CCHLMOGN@fail?$AA@ DB 'fail', 00H		; `string'
CONST	ENDS
;	COMDAT ??_C@_01IDAFKMJL@_?$AA@
CONST	SEGMENT
??_C@_01IDAFKMJL@_?$AA@ DB '_', 00H			; `string'
CONST	ENDS
;	COMDAT ??_C@_0L@LIKEDCOO@full_range?$AA@
CONST	SEGMENT
??_C@_0L@LIKEDCOO@full_range?$AA@ DB 'full_range', 00H	; `string'
CONST	ENDS
;	COMDAT ??_C@_04OJJAHOGC@nrev?$AA@
CONST	SEGMENT
??_C@_04OJJAHOGC@nrev?$AA@ DB 'nrev', 00H		; `string'
CONST	ENDS
;	COMDAT ??_C@_01HIHLOKLC@1?$AA@
CONST	SEGMENT
??_C@_01HIHLOKLC@1?$AA@ DB '1', 00H			; `string'
CONST	ENDS
;	COMDAT ??_C@_01JOAMLHOP@?9?$AA@
CONST	SEGMENT
??_C@_01JOAMLHOP@?9?$AA@ DB '-', 00H			; `string'
CONST	ENDS
;	COMDAT ??_C@_01LFCBOECM@?4?$AA@
CONST	SEGMENT
??_C@_01LFCBOECM@?4?$AA@ DB '.', 00H			; `string'
CONST	ENDS
;	COMDAT ??_C@_04LOAJBDKD@true?$AA@
CONST	SEGMENT
??_C@_04LOAJBDKD@true?$AA@ DB 'true', 00H		; `string'
CONST	ENDS
;	COMDAT ??_C@_01OGPIMHDM@?$DP?$AA@
CONST	SEGMENT
??_C@_01OGPIMHDM@?$DP?$AA@ DB '?', 00H			; `string'
CONST	ENDS
;	COMDAT ??_C@_02GPECMEKF@?$FL?$FN?$AA@
CONST	SEGMENT
??_C@_02GPECMEKF@?$FL?$FN?$AA@ DB '[]', 00H		; `string'
CONST	ENDS
;	COMDAT ??_C@_03CGOPKBCD@app?$AA@
CONST	SEGMENT
??_C@_03CGOPKBCD@app?$AA@ DB 'app', 00H			; `string'
; Function compile flags: /Ogtpy
; File c:\a17\prolog\ptarau_prolog\pl2c\brev.h
CONST	ENDS
;	COMDAT _go_4_1_1
_TEXT	SEGMENT
_H$ = 8							; size = 4
_regs$ = 12						; size = 4
_P$ = 16						; size = 4
_cutB$ = 20						; size = 4
_A$ = 24						; size = 4
_wam$ = 28						; size = 4
_go_4_1_1 PROC						; COMDAT

; 4    : put_structure(0,0,5)

  00000	8b 44 24 04	 mov	 eax, DWORD PTR _H$[esp-4]
  00004	8b 4c 24 0c	 mov	 ecx, DWORD PTR _P$[esp-4]
  00008	8b 54 24 08	 mov	 edx, DWORD PTR _regs$[esp-4]
  0000c	89 42 14	 mov	 DWORD PTR [edx+20], eax
  0000f	56		 push	 esi
  00010	8b 31		 mov	 esi, DWORD PTR [ecx]
  00012	89 30		 mov	 DWORD PTR [eax], esi

; 5    : write_value(1,2)

  00014	8b 72 08	 mov	 esi, DWORD PTR [edx+8]
  00017	89 70 04	 mov	 DWORD PTR [eax+4], esi

; 6    : write_variable(2,7)

  0001a	8d 70 08	 lea	 esi, DWORD PTR [eax+8]
  0001d	89 36		 mov	 DWORD PTR [esi], esi
  0001f	89 72 1c	 mov	 DWORD PTR [edx+28], esi

; 7    : write_variable(3,8)

  00022	8d 70 0c	 lea	 esi, DWORD PTR [eax+12]
  00025	89 36		 mov	 DWORD PTR [esi], esi
  00027	89 72 20	 mov	 DWORD PTR [edx+32], esi

; 8    : write_variable(4,9)

  0002a	8d 70 10	 lea	 esi, DWORD PTR [eax+16]
  0002d	89 36		 mov	 DWORD PTR [esi], esi
  0002f	89 72 24	 mov	 DWORD PTR [edx+36], esi

; 9    : write_constant(5,1)

  00032	8b 71 04	 mov	 esi, DWORD PTR [ecx+4]
  00035	89 70 14	 mov	 DWORD PTR [eax+20], esi

; 10   : write_constant(6,2)

  00038	8b 71 08	 mov	 esi, DWORD PTR [ecx+8]
  0003b	89 70 18	 mov	 DWORD PTR [eax+24], esi

; 11   : push_variable()
; 12   : write_constant(8,1)

  0003e	8b 71 04	 mov	 esi, DWORD PTR [ecx+4]
  00041	89 70 20	 mov	 DWORD PTR [eax+32], esi

; 13   : write_value(9,4)

  00044	8b 72 10	 mov	 esi, DWORD PTR [edx+16]
  00047	89 70 24	 mov	 DWORD PTR [eax+36], esi
  0004a	57		 push	 edi

; 14   : push_structure(10,3,7)

  0004b	8d 70 28	 lea	 esi, DWORD PTR [eax+40]
  0004e	89 70 1c	 mov	 DWORD PTR [eax+28], esi
  00051	8b 79 0c	 mov	 edi, DWORD PTR [ecx+12]
  00054	89 3e		 mov	 DWORD PTR [esi], edi

; 15   : write_value(11,1)

  00056	8b 72 04	 mov	 esi, DWORD PTR [edx+4]
  00059	89 70 2c	 mov	 DWORD PTR [eax+44], esi

; 16   : write_constant(12,4)

  0005c	8b 71 10	 mov	 esi, DWORD PTR [ecx+16]
  0005f	89 70 30	 mov	 DWORD PTR [eax+48], esi

; 17   : push_variable()
; 18   : write_constant(14,4)

  00062	8b 71 10	 mov	 esi, DWORD PTR [ecx+16]
  00065	89 70 38	 mov	 DWORD PTR [eax+56], esi

; 19   : push_variable()
; 20   : write_constant(16,4)

  00068	8b 71 10	 mov	 esi, DWORD PTR [ecx+16]
  0006b	89 70 40	 mov	 DWORD PTR [eax+64], esi

; 21   : push_variable()
; 22   : write_constant(18,4)

  0006e	8b 71 10	 mov	 esi, DWORD PTR [ecx+16]
  00071	89 70 48	 mov	 DWORD PTR [eax+72], esi

; 23   : push_variable()
; 24   : write_constant(20,4)

  00074	8b 71 10	 mov	 esi, DWORD PTR [ecx+16]
  00077	89 70 50	 mov	 DWORD PTR [eax+80], esi

; 25   : push_variable()
; 26   : write_constant(22,4)

  0007a	8b 71 10	 mov	 esi, DWORD PTR [ecx+16]
  0007d	89 70 58	 mov	 DWORD PTR [eax+88], esi

; 27   : push_variable()
; 28   : write_constant(24,4)

  00080	8b 71 10	 mov	 esi, DWORD PTR [ecx+16]
  00083	89 70 60	 mov	 DWORD PTR [eax+96], esi

; 29   : push_variable()
; 30   : write_constant(26,5)

  00086	8b 71 14	 mov	 esi, DWORD PTR [ecx+20]
  00089	89 70 68	 mov	 DWORD PTR [eax+104], esi

; 31   : push_structure(27,3,25)

  0008c	8d 70 6c	 lea	 esi, DWORD PTR [eax+108]
  0008f	89 70 64	 mov	 DWORD PTR [eax+100], esi
  00092	8b 79 0c	 mov	 edi, DWORD PTR [ecx+12]
  00095	89 3e		 mov	 DWORD PTR [esi], edi

; 32   : write_constant(28,6)

  00097	8b 71 18	 mov	 esi, DWORD PTR [ecx+24]
  0009a	89 70 70	 mov	 DWORD PTR [eax+112], esi

; 33   : write_value(29,9)

  0009d	8b 72 24	 mov	 esi, DWORD PTR [edx+36]
  000a0	89 70 74	 mov	 DWORD PTR [eax+116], esi

; 34   : push_structure(30,3,23)

  000a3	8d 70 78	 lea	 esi, DWORD PTR [eax+120]
  000a6	89 70 5c	 mov	 DWORD PTR [eax+92], esi
  000a9	8b 79 0c	 mov	 edi, DWORD PTR [ecx+12]
  000ac	89 3e		 mov	 DWORD PTR [esi], edi

; 35   : write_constant(31,7)

  000ae	8b 71 1c	 mov	 esi, DWORD PTR [ecx+28]
  000b1	89 70 7c	 mov	 DWORD PTR [eax+124], esi

; 36   : write_value(32,8)

  000b4	8b 72 20	 mov	 esi, DWORD PTR [edx+32]
  000b7	89 b0 80 00 00
	00		 mov	 DWORD PTR [eax+128], esi

; 37   : push_structure(33,3,21)

  000bd	8d b0 84 00 00
	00		 lea	 esi, DWORD PTR [eax+132]
  000c3	89 70 54	 mov	 DWORD PTR [eax+84], esi
  000c6	8b 79 0c	 mov	 edi, DWORD PTR [ecx+12]
  000c9	89 3e		 mov	 DWORD PTR [esi], edi

; 38   : write_constant(34,8)

  000cb	8b 71 20	 mov	 esi, DWORD PTR [ecx+32]
  000ce	89 b0 88 00 00
	00		 mov	 DWORD PTR [eax+136], esi

; 39   : write_value(35,7)

  000d4	8b 72 1c	 mov	 esi, DWORD PTR [edx+28]
  000d7	89 b0 8c 00 00
	00		 mov	 DWORD PTR [eax+140], esi

; 40   : push_structure(36,3,19)

  000dd	8d b0 90 00 00
	00		 lea	 esi, DWORD PTR [eax+144]
  000e3	89 70 4c	 mov	 DWORD PTR [eax+76], esi
  000e6	8b 79 0c	 mov	 edi, DWORD PTR [ecx+12]
  000e9	89 3e		 mov	 DWORD PTR [esi], edi

; 41   : write_constant(37,9)

  000eb	8b 71 24	 mov	 esi, DWORD PTR [ecx+36]
  000ee	89 b0 94 00 00
	00		 mov	 DWORD PTR [eax+148], esi

; 42   : write_value(38,3)

  000f4	8b 72 0c	 mov	 esi, DWORD PTR [edx+12]
  000f7	89 b0 98 00 00
	00		 mov	 DWORD PTR [eax+152], esi

; 43   : push_structure(39,3,17)

  000fd	8d b0 9c 00 00
	00		 lea	 esi, DWORD PTR [eax+156]
  00103	89 70 44	 mov	 DWORD PTR [eax+68], esi
  00106	8b 79 0c	 mov	 edi, DWORD PTR [ecx+12]
  00109	89 3e		 mov	 DWORD PTR [esi], edi

; 44   : write_constant(40,10)

  0010b	8b 71 28	 mov	 esi, DWORD PTR [ecx+40]
  0010e	89 b0 a0 00 00
	00		 mov	 DWORD PTR [eax+160], esi

; 45   : write_value(41,2)

  00114	8b 72 08	 mov	 esi, DWORD PTR [edx+8]
  00117	89 b0 a4 00 00
	00		 mov	 DWORD PTR [eax+164], esi

; 46   : push_structure(42,3,15)

  0011d	8d b0 a8 00 00
	00		 lea	 esi, DWORD PTR [eax+168]
  00123	89 70 3c	 mov	 DWORD PTR [eax+60], esi
  00126	8b 79 0c	 mov	 edi, DWORD PTR [ecx+12]
  00129	89 3e		 mov	 DWORD PTR [esi], edi

; 47   : write_constant(43,11)

  0012b	8b 71 2c	 mov	 esi, DWORD PTR [ecx+44]
  0012e	89 b0 ac 00 00
	00		 mov	 DWORD PTR [eax+172], esi

; 48   : write_variable(44,11)

  00134	8d b0 b0 00 00
	00		 lea	 esi, DWORD PTR [eax+176]
  0013a	89 36		 mov	 DWORD PTR [esi], esi
  0013c	89 72 2c	 mov	 DWORD PTR [edx+44], esi

; 49   : push_structure(45,3,13)

  0013f	8d b0 b4 00 00
	00		 lea	 esi, DWORD PTR [eax+180]
  00145	89 70 34	 mov	 DWORD PTR [eax+52], esi
  00148	8b 79 0c	 mov	 edi, DWORD PTR [ecx+12]
  0014b	89 3e		 mov	 DWORD PTR [esi], edi

; 50   : write_constant(46,12)

  0014d	8b 71 30	 mov	 esi, DWORD PTR [ecx+48]
  00150	89 b0 b8 00 00
	00		 mov	 DWORD PTR [eax+184], esi

; 51   : write_variable(47,4)

  00156	8d b0 bc 00 00
	00		 lea	 esi, DWORD PTR [eax+188]
  0015c	89 36		 mov	 DWORD PTR [esi], esi
  0015e	89 72 10	 mov	 DWORD PTR [edx+16], esi

; 52   : move_reg(1,3)

  00161	8b 72 0c	 mov	 esi, DWORD PTR [edx+12]
  00164	89 72 04	 mov	 DWORD PTR [edx+4], esi

; 53   : move_reg(3,11)

  00167	8b 72 2c	 mov	 esi, DWORD PTR [edx+44]
  0016a	89 72 0c	 mov	 DWORD PTR [edx+12], esi

; 54   : c_chunk_value(48,14)

  0016d	8b 54 24 20	 mov	 edx, DWORD PTR _wam$[esp+4]
  00171	8b 74 24 1c	 mov	 esi, DWORD PTR _A$[esp+4]
  00175	83 c1 38	 add	 ecx, 56			; 00000038H
  00178	5f		 pop	 edi
  00179	89 72 50	 mov	 DWORD PTR [edx+80], esi
  0017c	89 4a 54	 mov	 DWORD PTR [edx+84], ecx
  0017f	05 c0 00 00 00	 add	 eax, 192		; 000000c0H
  00184	5e		 pop	 esi
  00185	c3		 ret	 0
_go_4_1_1 ENDP
_TEXT	ENDS
PUBLIC	??_C@_0BC@OCCOLGAN@trailing?5in?5unify?$AA@	; `string'
EXTRN	_bp_halt:PROC
EXTRN	_overflow_by:PROC
;	COMDAT ??_C@_0BC@OCCOLGAN@trailing?5in?5unify?$AA@
CONST	SEGMENT
??_C@_0BC@OCCOLGAN@trailing?5in?5unify?$AA@ DB 'trailing in unify', 00H ; `string'
; Function compile flags: /Ogtpy
CONST	ENDS
;	COMDAT _g4_1_1_1
_TEXT	SEGMENT
_H$ = 8							; size = 4
_regs$ = 12						; size = 4
_P$ = 16						; size = 4
_cutB$ = 20						; size = 4
_A$ = 24						; size = 4
_wam$ = 28						; size = 4
_g4_1_1_1 PROC						; COMDAT

; 56   : c_chunk_variable(g4_1_1_1)

  00000	53		 push	 ebx

; 57   : put_variable(0,3,0)

  00001	8b 5c 24 08	 mov	 ebx, DWORD PTR _H$[esp]
  00005	55		 push	 ebp
  00006	56		 push	 esi
  00007	8b 74 24 14	 mov	 esi, DWORD PTR _regs$[esp+8]
  0000b	89 1b		 mov	 DWORD PTR [ebx], ebx
  0000d	57		 push	 edi
  0000e	89 1e		 mov	 DWORD PTR [esi], ebx
  00010	89 5e 0c	 mov	 DWORD PTR [esi+12], ebx

; 58   : get_integer(2000,0)

  00013	8b eb		 mov	 ebp, ebx
  00015	f6 c3 03	 test	 bl, 3
  00018	74 04		 je	 SHORT $LN12@g4_1_1_1
  0001a	8b c3		 mov	 eax, ebx
  0001c	eb 12		 jmp	 SHORT $LN6@g4_1_1_1
$LN12@g4_1_1_1:
  0001e	8b 03		 mov	 eax, DWORD PTR [ebx]
  00020	a8 03		 test	 al, 3
  00022	75 0e		 jne	 SHORT $LN15@g4_1_1_1
$LL7@g4_1_1_1:
  00024	3b e8		 cmp	 ebp, eax
  00026	74 08		 je	 SHORT $LN6@g4_1_1_1
  00028	8b e8		 mov	 ebp, eax
  0002a	8b 00		 mov	 eax, DWORD PTR [eax]
  0002c	a8 03		 test	 al, 3
  0002e	74 f4		 je	 SHORT $LL7@g4_1_1_1
$LN6@g4_1_1_1:
  00030	a8 03		 test	 al, 3
$LN15@g4_1_1_1:
  00032	8b 7c 24 28	 mov	 edi, DWORD PTR _wam$[esp+12]
  00036	0f 85 c6 00 00
	00		 jne	 $LN5@g4_1_1_1
  0003c	8b 44 24 24	 mov	 eax, DWORD PTR _A$[esp+12]
  00040	c7 45 00 41 1f
	00 00		 mov	 DWORD PTR [ebp], 8001	; 00001f41H
  00047	3b 68 f8	 cmp	 ebp, DWORD PTR [eax-8]
  0004a	73 29		 jae	 SHORT $LN14@g4_1_1_1
  0004c	8b 47 2c	 mov	 eax, DWORD PTR [edi+44]
  0004f	3b 47 38	 cmp	 eax, DWORD PTR [edi+56]
  00052	72 18		 jb	 SHORT $LN3@g4_1_1_1
  00054	68 00 00 00 00	 push	 OFFSET ??_C@_0BC@OCCOLGAN@trailing?5in?5unify?$AA@
  00059	57		 push	 edi
  0005a	6a 01		 push	 1
  0005c	50		 push	 eax
  0005d	e8 00 00 00 00	 call	 _overflow_by
  00062	6a 0c		 push	 12			; 0000000cH
  00064	e8 00 00 00 00	 call	 _bp_halt
  00069	83 c4 14	 add	 esp, 20			; 00000014H
$LN3@g4_1_1_1:
  0006c	8b 4f 2c	 mov	 ecx, DWORD PTR [edi+44]
  0006f	89 29		 mov	 DWORD PTR [ecx], ebp
  00071	83 47 2c 04	 add	 DWORD PTR [edi+44], 4
$LN14@g4_1_1_1:

; 59   : put_structure(1,0,4)

  00075	8b 44 24 1c	 mov	 eax, DWORD PTR _P$[esp+12]
  00079	8d 4b 04	 lea	 ecx, DWORD PTR [ebx+4]
  0007c	89 4e 10	 mov	 DWORD PTR [esi+16], ecx
  0007f	8b 10		 mov	 edx, DWORD PTR [eax]
  00081	89 11		 mov	 DWORD PTR [ecx], edx

; 60   : write_variable(2,6)

  00083	8d 4b 08	 lea	 ecx, DWORD PTR [ebx+8]
  00086	89 09		 mov	 DWORD PTR [ecx], ecx
  00088	89 4e 18	 mov	 DWORD PTR [esi+24], ecx

; 61   : write_variable(3,7)

  0008b	8d 4b 0c	 lea	 ecx, DWORD PTR [ebx+12]
  0008e	89 09		 mov	 DWORD PTR [ecx], ecx
  00090	89 4e 1c	 mov	 DWORD PTR [esi+28], ecx

; 62   : write_constant(4,1)

  00093	8b 48 04	 mov	 ecx, DWORD PTR [eax+4]
  00096	89 4b 10	 mov	 DWORD PTR [ebx+16], ecx

; 63   : write_value(5,7)

  00099	8b 56 1c	 mov	 edx, DWORD PTR [esi+28]
  0009c	89 53 14	 mov	 DWORD PTR [ebx+20], edx

; 64   : write_value(6,3)

  0009f	8b 4e 0c	 mov	 ecx, DWORD PTR [esi+12]
  000a2	89 4b 18	 mov	 DWORD PTR [ebx+24], ecx

; 65   : write_constant(7,2)

  000a5	8b 50 08	 mov	 edx, DWORD PTR [eax+8]
  000a8	89 53 1c	 mov	 DWORD PTR [ebx+28], edx

; 66   : write_constant(8,3)

  000ab	8b 48 0c	 mov	 ecx, DWORD PTR [eax+12]
  000ae	89 4b 20	 mov	 DWORD PTR [ebx+32], ecx

; 67   : push_variable()
; 68   : write_constant(10,4)

  000b1	8b 50 10	 mov	 edx, DWORD PTR [eax+16]
  000b4	89 53 28	 mov	 DWORD PTR [ebx+40], edx

; 69   : write_value(11,1)

  000b7	8b 4e 04	 mov	 ecx, DWORD PTR [esi+4]
  000ba	89 4b 2c	 mov	 DWORD PTR [ebx+44], ecx

; 70   : push_structure(12,5,9)

  000bd	8d 4b 30	 lea	 ecx, DWORD PTR [ebx+48]
  000c0	89 4b 24	 mov	 DWORD PTR [ebx+36], ecx
  000c3	8b 50 14	 mov	 edx, DWORD PTR [eax+20]
  000c6	89 11		 mov	 DWORD PTR [ecx], edx

; 71   : write_constant(13,6)

  000c8	8b 48 18	 mov	 ecx, DWORD PTR [eax+24]
  000cb	89 4b 34	 mov	 DWORD PTR [ebx+52], ecx

; 72   : write_constant(14,7)

  000ce	8b 50 1c	 mov	 edx, DWORD PTR [eax+28]
  000d1	89 53 38	 mov	 DWORD PTR [ebx+56], edx

; 73   : write_value(15,3)

  000d4	8b 4e 0c	 mov	 ecx, DWORD PTR [esi+12]
  000d7	89 4b 3c	 mov	 DWORD PTR [ebx+60], ecx

; 74   : write_value(16,7)

  000da	8b 56 1c	 mov	 edx, DWORD PTR [esi+28]
  000dd	89 53 40	 mov	 DWORD PTR [ebx+64], edx

; 75   : move_reg(1,6)

  000e0	8b 4e 18	 mov	 ecx, DWORD PTR [esi+24]

; 76   : put_integer(0,2)
; 77   : c_chunk_value(17,9)

  000e3	8b 54 24 24	 mov	 edx, DWORD PTR _A$[esp+12]
  000e7	89 4e 04	 mov	 DWORD PTR [esi+4], ecx
  000ea	c7 46 08 01 00
	00 00		 mov	 DWORD PTR [esi+8], 1
  000f1	83 c0 24	 add	 eax, 36			; 00000024H
  000f4	89 47 54	 mov	 DWORD PTR [edi+84], eax
  000f7	89 57 50	 mov	 DWORD PTR [edi+80], edx
  000fa	5f		 pop	 edi
  000fb	5e		 pop	 esi
  000fc	5d		 pop	 ebp
  000fd	8d 43 44	 lea	 eax, DWORD PTR [ebx+68]
  00100	5b		 pop	 ebx
  00101	c3		 ret	 0
$LN5@g4_1_1_1:

; 58   : get_integer(2000,0)

  00102	3d 41 1f 00 00	 cmp	 eax, 8001		; 00001f41H
  00107	0f 84 68 ff ff
	ff		 je	 $LN14@g4_1_1_1
  0010d	8b 44 24 24	 mov	 eax, DWORD PTR _A$[esp+12]
  00111	8b d7		 mov	 edx, edi
  00113	5f		 pop	 edi
  00114	5e		 pop	 esi
  00115	5d		 pop	 ebp
  00116	89 42 50	 mov	 DWORD PTR [edx+80], eax
  00119	33 c0		 xor	 eax, eax
  0011b	5b		 pop	 ebx

; 76   : put_integer(0,2)
; 77   : c_chunk_value(17,9)

  0011c	c3		 ret	 0
_g4_1_1_1 ENDP
; Function compile flags: /Ogtpy
_TEXT	ENDS
;	COMDAT _timer_2_1_1
_TEXT	SEGMENT
_H$ = 8							; size = 4
_regs$ = 12						; size = 4
_P$ = 16						; size = 4
_cutB$ = 20						; size = 4
_A$ = 24						; size = 4
_wam$ = 28						; size = 4
_timer_2_1_1 PROC					; COMDAT

; 80   : put_structure(0,0,5)

  00000	8b 44 24 04	 mov	 eax, DWORD PTR _H$[esp-4]
  00004	8b 4c 24 08	 mov	 ecx, DWORD PTR _regs$[esp-4]
  00008	8b 54 24 0c	 mov	 edx, DWORD PTR _P$[esp-4]
  0000c	89 41 14	 mov	 DWORD PTR [ecx+20], eax
  0000f	56		 push	 esi
  00010	8b 32		 mov	 esi, DWORD PTR [edx]
  00012	89 30		 mov	 DWORD PTR [eax], esi

; 81   : write_variable(1,6)

  00014	8d 70 04	 lea	 esi, DWORD PTR [eax+4]
  00017	89 36		 mov	 DWORD PTR [esi], esi
  00019	89 71 18	 mov	 DWORD PTR [ecx+24], esi

; 82   : write_constant(2,0)

  0001c	8b 32		 mov	 esi, DWORD PTR [edx]
  0001e	89 70 08	 mov	 DWORD PTR [eax+8], esi

; 83   : write_void(3,1)

  00021	8d 70 0c	 lea	 esi, DWORD PTR [eax+12]
  00024	89 36		 mov	 DWORD PTR [esi], esi

; 84   : write_constant(4,1)

  00026	8b 72 04	 mov	 esi, DWORD PTR [edx+4]
  00029	89 70 10	 mov	 DWORD PTR [eax+16], esi

; 85   : put_structure(5,2,3)

  0002c	8d 70 14	 lea	 esi, DWORD PTR [eax+20]
  0002f	89 71 0c	 mov	 DWORD PTR [ecx+12], esi
  00032	57		 push	 edi
  00033	8b 7a 08	 mov	 edi, DWORD PTR [edx+8]
  00036	89 3e		 mov	 DWORD PTR [esi], edi

; 86   : write_value(6,6)

  00038	8b 71 18	 mov	 esi, DWORD PTR [ecx+24]
  0003b	89 70 18	 mov	 DWORD PTR [eax+24], esi

; 87   : push_variable()
; 88   : write_value(8,1)

  0003e	8b 71 04	 mov	 esi, DWORD PTR [ecx+4]
  00041	89 70 20	 mov	 DWORD PTR [eax+32], esi

; 89   : write_value(9,2)

  00044	8b 71 08	 mov	 esi, DWORD PTR [ecx+8]
  00047	89 70 24	 mov	 DWORD PTR [eax+36], esi

; 90   : push_structure(10,3,7)

  0004a	8d 70 28	 lea	 esi, DWORD PTR [eax+40]
  0004d	89 70 1c	 mov	 DWORD PTR [eax+28], esi
  00050	8b 7a 0c	 mov	 edi, DWORD PTR [edx+12]
  00053	89 3e		 mov	 DWORD PTR [esi], edi

; 91   : write_integer(11,0)
; 92   : write_integer(12,0)
; 93   : write_integer(13,270782464)

  00055	c7 40 34 01 40
	8f 40		 mov	 DWORD PTR [eax+52], 1083129857 ; 408f4001H
  0005c	be 01 00 00 00	 mov	 esi, 1
  00061	89 70 2c	 mov	 DWORD PTR [eax+44], esi
  00064	89 70 30	 mov	 DWORD PTR [eax+48], esi

; 94   : put_constant(4,1)

  00067	8b 72 10	 mov	 esi, DWORD PTR [edx+16]
  0006a	89 71 04	 mov	 DWORD PTR [ecx+4], esi

; 95   : move_reg(2,5)

  0006d	8b 71 14	 mov	 esi, DWORD PTR [ecx+20]
  00070	89 71 08	 mov	 DWORD PTR [ecx+8], esi

; 96   : c_chunk_value(14,6)

  00073	8b 4c 24 20	 mov	 ecx, DWORD PTR _wam$[esp+4]
  00077	8b 74 24 1c	 mov	 esi, DWORD PTR _A$[esp+4]
  0007b	83 c2 18	 add	 edx, 24			; 00000018H
  0007e	5f		 pop	 edi
  0007f	89 71 50	 mov	 DWORD PTR [ecx+80], esi
  00082	89 51 54	 mov	 DWORD PTR [ecx+84], edx
  00085	83 c0 38	 add	 eax, 56			; 00000038H
  00088	5e		 pop	 esi
  00089	c3		 ret	 0
_timer_2_1_1 ENDP
_TEXT	ENDS
END
