 brev

 Timestamp is 5ad74261 (Wed Apr 18 15:04:33 2018)

 Preferred load address is 00400000

 Start         Length     Name                   Class
 0001:00000000 0002af28H .text                   CODE
 0002:00000000 000001e0H .idata$5                DATA
 0002:000001e0 00000004H .CRT$XCA                DATA
 0002:000001e4 00000004H .CRT$XCZ                DATA
 0002:000001e8 00000004H .CRT$XIA                DATA
 0002:000001ec 00000018H .CRT$XIC                DATA
 0002:00000204 00000004H .CRT$XIY                DATA
 0002:00000208 00000004H .CRT$XIZ                DATA
 0002:0000020c 00000004H .CRT$XPA                DATA
 0002:00000210 00000004H .CRT$XPX                DATA
 0002:00000214 00000004H .CRT$XPXA               DATA
 0002:00000218 00000004H .CRT$XPZ                DATA
 0002:0000021c 00000004H .CRT$XTA                DATA
 0002:00000220 00000004H .CRT$XTZ                DATA
 0002:00000230 00024038H .rdata                  DATA
 0002:00024270 0000000cH .rdata$sxdata           DATA
 0002:0002427c 00000004H .rtc$IAA                DATA
 0002:00024280 00000004H .rtc$IZZ                DATA
 0002:00024284 00000004H .rtc$TAA                DATA
 0002:00024288 00000004H .rtc$TZZ                DATA
 0002:00024290 000006c4H .xdata$x                DATA
 0002:00024954 00000028H .idata$2                DATA
 0002:0002497c 00000014H .idata$3                DATA
 0002:00024990 000001e0H .idata$4                DATA
 0002:00024b70 0000072eH .idata$6                DATA
 0002:0002529e 00000000H .edata                  DATA
 0003:00000000 00092680H .data                   DATA
 0003:00092680 00003704H .bss                    DATA

  Address         Publics by Value              Rva+Base       Lib:Object

 0000:00000000       __except_list              00000000     <absolute>
 0000:00000003       ___safe_se_handler_count   00000003     <absolute>
 0000:00000000       ___ImageBase               00400000     <linker-defined>
 0001:00000340       _main                      00401340 f   c.obj
 0001:00000350       _init_c                    00401350 f   c.obj
 0001:00000350       _unix_kill                 00401350 f   bpr:builtins.obj
 0001:00000350       _countTerms                00401350 f   bpr:termStore.obj
 0001:00000360       _new_builtin               00401360 f   c.obj
 0001:00000360       _if0                       00401360 f   c.obj
 0001:00000380       _quietmes                  00401380 f   bpr:ru.obj
 0001:000003b0       _debugmes                  004013b0 f   bpr:ru.obj
 0001:000003e0       _startup_mes               004013e0 f   bpr:ru.obj
 0001:00000490       _cputime                   00401490 f   bpr:ru.obj
 0001:000004b0       _realtime                  004014b0 f   bpr:ru.obj
 0001:00000520       _bp_exit_mes               00401520 f   bpr:ru.obj
 0001:000005e0       _bp_exit                   004015e0 f   bpr:ru.obj
 0001:00000600       _bp_halt                   00401600 f   bpr:ru.obj
 0001:00000610       _warnmes                   00401610 f   bpr:ru.obj
 0001:00000630       _fatal_error               00401630 f   bpr:ru.obj
 0001:00000660       _local_error               00401660 f   bpr:ru.obj
 0001:00000710       _link_halt                 00401710 f   bpr:ru.obj
 0001:00000730       _overflow_by               00401730 f   bpr:ru.obj
 0001:00001530       _make_byte_array           00402530 f   bpr:ru.obj
 0001:00001530       _make_char_array           00402530 f   bpr:ru.obj
 0001:00001540       _make_hentry               00402540 f   bpr:ru.obj
 0001:00001550       _make_atomtable            00402550 f   bpr:ru.obj
 0001:00001560       _make_var_array            00402560 f   bpr:ru.obj
 0001:00001590       _init_var_array            00402590 f   bpr:ru.obj
 0001:000015c0       _make_stack                004025c0 f   bpr:ru.obj
 0001:00001640       _make_bboard               00402640 f   bpr:ru.obj
 0001:000016c0       _init_common_mem           004026c0 f   bpr:ru.obj
 0001:00001800       _is_engine                 00402800 f   bpr:ru.obj
 0001:00001830       _set_engine_prop           00402830 f   bpr:ru.obj
 0001:00001880       _get_engine_prop           00402880 f   bpr:ru.obj
 0001:000018e0       _get_engine_thread         004028e0 f   bpr:ru.obj
 0001:00001a70       _init_engine_mem           00402a70 f   bpr:ru.obj
 0001:00001c80       _create_engine             00402c80 f   bpr:ru.obj
 0001:00001f10       _destroy_engine            00402f10 f   bpr:ru.obj
 0001:00001fc0       _list_engines              00402fc0 f   bpr:ru.obj
 0001:00002000       _init_random               00403000 f   bpr:ru.obj
 0001:000020f0       _get_cmd_line_options      004030f0 f   bpr:ru.obj
 0001:00002510       _bp_interrupt_handler      00403510 f   bpr:ru.obj
 0001:00002620       _install_interrupt_handler 00403620 f   bpr:ru.obj
 0001:00002c60       _init_bp0                  00403c60 f   bpr:ru.obj
 0001:00002cb0       _run_bp0                   00403cb0 f   bpr:ru.obj
 0001:00002d40       _init_bp                   00403d40 f   bpr:main.obj
 0001:00002db0       _bp_main                   00403db0 f   bpr:main.obj
 0001:00002ec0       _close_socket              00403ec0 f   bpr:socket.obj
 0001:00002f00       _get_host                  00403f00 f   bpr:socket.obj
 0001:00002fc0       _host2ip                   00403fc0 f   bpr:socket.obj
 0001:00003060       _get_ip_addr               00404060 f   bpr:socket.obj
 0001:000030a0       _peer_addr                 004040a0 f   bpr:socket.obj
 0001:00003110       _peer_port                 00404110 f   bpr:socket.obj
 0001:00003200       _sock_readln               00404200 f   bpr:socket.obj
 0001:000032a0       _sock_read0                004042a0 f   bpr:socket.obj
 0001:00003320       _sock_read                 00404320 f   bpr:socket.obj
 0001:000033c0       _sock2file                 004043c0 f   bpr:socket.obj
 0001:000034b0       _sock_write0               004044b0 f   bpr:socket.obj
 0001:000035b0       _sock_write                004045b0 f   bpr:socket.obj
 0001:00003640       _file2sock                 00404640 f   bpr:socket.obj
 0001:00003770       _sock_writeln              00404770 f   bpr:socket.obj
 0001:00003810       _new_client0               00404810 f   bpr:socket.obj
 0001:00003ba0       _new_client                00404ba0 f   bpr:socket.obj
 0001:00003c60       _new_server                00404c60 f   bpr:socket.obj
 0001:00003de0       _wait_on_socket            00404de0 f   bpr:socket.obj
 0001:00003ed0       _new_service               00404ed0 f   bpr:socket.obj
 0001:000040c0       _init_orig_wam             004050c0 f   bpr:engine.obj
 0001:00004110       _restart_orig              00405110 f   bpr:engine.obj
 0001:00004160       _heap_or_bp_halt           00405160 f   bpr:engine.obj
 0001:000041d0       _unwind_trail              004051d0 f   bpr:engine.obj
 0001:00004210       _bp_abort                  00405210 f   bpr:engine.obj
 0001:00004250       _exec_link                 00405250 f   bpr:engine.obj
 0001:000042b0       _load_engine               004052b0 f   bpr:engine.obj
 0001:00004420       _load_engine0              00405420 f   bpr:engine.obj
 0001:00004440       _call_engine               00405440 f   bpr:engine.obj
 0001:00004490       _ask_engine                00405490 f   bpr:engine.obj
 0001:00004510       _answer                    00405510 f   bpr:engine.obj
 0001:000045a0       _ask_thread@4              004055a0 f   bpr:engine.obj
 0001:000045e0       _tcreate                   004055e0 f   bpr:engine.obj
 0001:00004600       _current_thread            00405600 f   bpr:engine.obj
 0001:00004610       _thread_exit               00405610 f   bpr:engine.obj
 0001:00004630       _thread_destroy            00405630 f   bpr:engine.obj
 0001:00004650       _thread_join               00405650 f   bpr:engine.obj
 0001:00004670       _init_mutexes              00405670 f   bpr:engine.obj
 0001:000046b0       _release_mutexes           004056b0 f   bpr:engine.obj
 0001:00004700       _tsync_op                  00405700 f   bpr:engine.obj
 0001:00004860       _unify_to                  00405860 f   bpr:engine.obj
 0001:00004a80       _unify                     00405a80 f   bpr:engine.obj
 0001:00009170       _interp                    0040a170 f   bpr:engine.obj
 0001:000092f0       _make_symtable             0040a2f0 f   bpr:sym.obj
 0001:00009540       _atombak                   0040a540 f   bpr:sym.obj
 0001:00009590       _atomcommit                0040a590 f   bpr:sym.obj
 0001:000095d0       _new_func                  0040a5d0 f   bpr:sym.obj
 0001:00009630       _hfull                     0040a630 f   bpr:dict.obj
 0001:00009670       _hinit                     0040a670 f   bpr:dict.obj
 0001:000096c0       _hdef                      0040a6c0 f   bpr:dict.obj
 0001:000097f0       _hset                      0040a7f0 f   bpr:dict.obj
 0001:000098a0       _hget                      0040a8a0 f   bpr:dict.obj
 0001:00009930       _hindex                    0040a930 f   bpr:dict.obj
 0001:00009a00       _hbak                      0040aa00 f   bpr:dict.obj
 0001:00009ab0       _hcommit                   0040aab0 f   bpr:dict.obj
 0001:00009b00       _hlist                     0040ab00 f   bpr:dict.obj
 0001:00009d40       _op_class                  0040ad40 f   bpr:dict.obj
 0001:00009da0       _make_op                   0040ada0 f   bpr:dict.obj
 0001:00009ee0       _op0                       0040aee0 f   bpr:dict.obj
 0001:00009f60       _lval                      0040af60 f   bpr:dict.obj
 0001:0000a0e0       _def                       0040b0e0 f   bpr:dict.obj
 0001:0000a2d0       _set                       0040b2d0 f   bpr:dict.obj
 0001:0000a3d0       _override                  0040b3d0 f   bpr:dict.obj
 0001:0000a630       _init_instr_len            0040b630 f   bpr:load.obj
 0001:0000a840       _input_fun                 0040b840 f   bpr:load.obj
 0001:0000a880       _is_dynamic                0040b880 f   bpr:load.obj
 0001:0000aeb0       _insert_op                 0040beb0 f   bpr:load.obj
 0001:0000bc60       _init_code                 0040cc60 f   bpr:load.obj
 0001:0000c050       _load_1                    0040d050 f   bpr:load.obj
 0001:0000c310       _load_kernel               0040d310 f   bpr:load.obj
 0001:0000c460       _deep_hash                 0040d460 f   bpr:builtins.obj
 0001:0000c490       _tval                      0040d490 f   bpr:builtins.obj
 0001:0000c530       _untval                    0040d530 f   bpr:builtins.obj
 0001:0000c690       _tlet                      0040d690 f   bpr:builtins.obj
 0001:0000c720       _array_ref                 0040d720 f   bpr:builtins.obj
 0001:0000c7a0       _get_asserted              0040d7a0 f   bpr:builtins.obj
 0001:0000c900       _unix_argv                 0040d900 f   bpr:builtins.obj
 0001:0000c970       _unix_getenv               0040d970 f   bpr:builtins.obj
 0001:0000c9d0       _unix_access               0040d9d0 f   bpr:builtins.obj
 0001:0000ca50       _unix_cd                   0040da50 f   bpr:builtins.obj
 0001:0000cac0       _unix_fork                 0040dac0 f   bpr:builtins.obj
 0001:0000cad0       _unix_pid                  0040dad0 f   bpr:builtins.obj
 0001:0000cae0       _unix_sleep                0040dae0 f   bpr:builtins.obj
 0001:0000cb00       _open_stream               0040db00 f   bpr:builtins.obj
 0001:0000cce0       _close_stream              0040dce0 f   bpr:builtins.obj
 0001:0000cd50       _bb_reset                  0040dd50 f   bpr:builtins.obj
 0001:0000ce60       _stats0                    0040de60 f   bpr:builtins.obj
 0001:0000d0a0       _new_name                  0040e0a0 f   bpr:builtins.obj
 0001:0000d170       _symcat                    0040e170 f   bpr:builtins.obj
 0001:0000d290       _namecat                   0040e290 f   bpr:builtins.obj
 0001:0000d490       _fsize                     0040e490 f   bpr:builtins.obj
 0001:0000d4f0       _older_file0               0040e4f0 f   bpr:builtins.obj
 0001:0000d590       _older_file                0040e590 f   bpr:builtins.obj
 0001:0000d610       _see_tell                  0040e610 f   bpr:builtins.obj
 0001:0000d870       _see_tell_at               0040e870 f   bpr:builtins.obj
 0001:0000d8f0       _seeing_telling_at         0040e8f0 f   bpr:builtins.obj
 0001:0000d940       _seen_told                 0040e940 f   bpr:builtins.obj
 0001:0000da90       _system0                   0040ea90 f   bpr:builtins.obj
 0001:0000db10       _add_instr                 0040eb10 f   bpr:builtins.obj
 0001:0000dc70       _compare                   0040ec70 f   bpr:builtins.obj
 0001:0000dd40       _functor                   0040ed40 f   bpr:builtins.obj
 0001:0000deb0       _list2buf                  0040eeb0 f   bpr:builtins.obj
 0001:0000df50       _string2list               0040ef50 f   bpr:builtins.obj
 0001:0000dfe0       _string2list_with_length   0040efe0 f   bpr:builtins.obj
 0001:0000e050       _name2list                 0040f050 f   bpr:builtins.obj
 0001:0000e200       _call_external             0040f200 f   bpr:builtins.obj
 0001:0000e310       _det_append0               0040f310 f   bpr:builtins.obj
 0001:0000e3e0       _list2term                 0040f3e0 f   bpr:builtins.obj
 0001:0000e560       _term2list                 0040f560 f   bpr:builtins.obj
 0001:0000e600       _term_append               0040f600 f   bpr:builtins.obj
 0001:0000e8c0       _copy_term                 0040f8c0 f   bpr:builtins.obj
 0001:0000e8e0       _copy_to_engine            0040f8e0 f   bpr:builtins.obj
 0001:0000e930       _apply                     0040f930 f   bpr:builtins.obj
 0001:0000e990       _strip_cont0               0040f990 f   bpr:builtins.obj
 0001:0000ea30       _dcg_tell                  0040fa30 f   bpr:builtins.obj
 0001:0000eb00       _dcg_connect               0040fb00 f   bpr:builtins.obj
 0001:0000ebb0       _setarg                    0040fbb0 f   bpr:builtins.obj
 0001:0000ed40       _change_arg                0040fd40 f   bpr:builtins.obj
 0001:0000ee00       _member_entry              0040fe00 f   bpr:builtins.obj
 0001:0000eed0       _for_entry                 0040fed0 f   bpr:builtins.obj
 0001:0000f050       _addq0                     00410050 f   bpr:builtins.obj
 0001:0000f330       _pushq0                    00410330 f   bpr:builtins.obj
 0001:0000f590       _popq0                     00410590 f   bpr:builtins.obj
 0001:0000f810       _member_scan               00410810 f   bpr:builtins.obj
 0001:0000f8c0       _cmember_scan              004108c0 f   bpr:builtins.obj
 0001:0000f990       _cdel_scan                 00410990 f   bpr:builtins.obj
 0001:0000fa60       _newTerm                   00410a60 f   bpr:term.obj
 0001:0000fac0       _freeTerm                  00410ac0 f   bpr:term.obj
 0001:0000fb20       _setArg                    00410b20 f   bpr:term.obj
 0001:0000fd00       _compareTerms              00410d00 f   bpr:term.obj
 0001:0000fe70       _hashCode                  00410e70 f   bpr:term.obj
 0001:000100e0       _toString                  004110e0 f   bpr:term.obj
 0001:00010110       _toNewString               00411110 f   bpr:term.obj
 0001:00010160       _stringLengthOf            00411160 f   bpr:term.obj
 0001:000101b0       _showTerm                  004111b0 f   bpr:term.obj
 0001:000103c0       _externalize               004113c0 f   bpr:term.obj
 0001:000105b0       _internalize               004115b0 f   bpr:term.obj
 0001:000105d0       _term_store_op             004115d0 f   bpr:term.obj
 0001:00010a90       _trim_float                00411a90 f   bpr:io.obj
 0001:00010f80       _sout                      00411f80 f   bpr:io.obj
 0001:00010fd0       _qsout                     00411fd0 f   bpr:io.obj
 0001:00011020       _fout                      00412020 f   bpr:io.obj
 0001:00011070       _qprint                    00412070 f   bpr:io.obj
 0001:00011100       _double_to_ints            00412100 f   bpr:float.obj
 0001:00011150       _ints_to_double            00412150 f   bpr:float.obj
 0001:00011180       _bad_arith_arg             00412180 f   bpr:float.obj
 0001:000111c0       _make_float                004121c0 f   bpr:float.obj
 0001:00011210       _float_compare             00412210 f   bpr:float.obj
 0001:00011340       _float_op                  00412340 f   bpr:float.obj
 0001:000115b0       _float_fun2                004125b0 f   bpr:float.obj
 0001:000117f0       _float_fun                 004127f0 f   bpr:float.obj
 0001:00011a50       _input_float               00412a50 f   bpr:float.obj
 0001:00012c40       _trigger_gc                00413c40 f   bpr:gc.obj
 0001:00012ca0       _pushTerm                  00413ca0 f   bpr:termStore.obj
 0001:00012ca0       _putTerm                   00413ca0 f   bpr:termStore.obj
 0001:00012ca0       _updateCurrentTerm         00413ca0 f   bpr:termStore.obj
 0001:00012cb0       _closeIterator             00413cb0 f   bpr:termStore.obj
 0001:00012cc0       _hasTerms                  00413cc0 f   bpr:termStore.obj
 0001:00012cd0       _getNextTerm               00413cd0 f   bpr:termStore.obj
 0001:00012ce0       _removeCurrentTerm         00413ce0 f   bpr:termStore.obj
 0001:00012ce0       _deleteAllTerms            00413ce0 f   bpr:termStore.obj
 0001:00012cf0       _newIterator               00413cf0 f   bpr:termStore.obj
 0001:00012cf0       _newKeyIterator            00413cf0 f   bpr:termStore.obj
 0001:00012d00       _processTerm               00413d00 f   bpr:termStore.obj
 0001:00012d10       _newTermString             00413d10 f   bpr:termStore.obj
 0001:00012d20       _freeTermString            00413d20 f   bpr:termStore.obj
 0001:00012d25       _fprintf                   00413d25 f   LIBCMT:fprintf.obj
 0001:00012e31       ___iob_func                00413e31 f   LIBCMT:_file.obj
 0001:00012e37       ___initstdio               00413e37 f   LIBCMT:_file.obj
 0001:00012ee8       ___endstdio                00413ee8 f   LIBCMT:_file.obj
 0001:00012f08       __lock_file                00413f08 f   LIBCMT:_file.obj
 0001:00012f49       __lock_file2               00413f49 f   LIBCMT:_file.obj
 0001:00012f7b       __unlock_file              00413f7b f   LIBCMT:_file.obj
 0001:00012fb7       __unlock_file2             00413fb7 f   LIBCMT:_file.obj
 0001:00013170       _mainCRTStartup            00414170 f   LIBCMT:crt0.obj
 0001:0001317a       _sprintf                   0041417a f   LIBCMT:sprintf.obj
 0001:000131fe       __time64                   004141fe f   LIBCMT:time64.obj
 0001:0001324f       _clock                     0041424f f   LIBCMT:clock.obj
 0001:00013289       ___inittime                00414289 f   LIBCMT:clock.obj
 0001:000132b7       @__security_check_cookie@4 004142b7 f   LIBCMT:secchk.obj
 0001:000132c6       ___crtCorExitProcess       004142c6 f   LIBCMT:crt0dat.obj
 0001:000132f1       ___crtExitProcess          004142f1 f   LIBCMT:crt0dat.obj
 0001:00013309       __lockexit                 00414309 f   LIBCMT:crt0dat.obj
 0001:00013312       __unlockexit               00414312 f   LIBCMT:crt0dat.obj
 0001:0001331b       __init_pointers            0041431b f   LIBCMT:crt0dat.obj
 0001:0001334e       __initterm_e               0041434e f   LIBCMT:crt0dat.obj
 0001:00013372       __cinit                    00414372 f   LIBCMT:crt0dat.obj
 0001:00013549       _exit                      00414549 f   LIBCMT:crt0dat.obj
 0001:0001355f       __exit                     0041455f f   LIBCMT:crt0dat.obj
 0001:00013575       __cexit                    00414575 f   LIBCMT:crt0dat.obj
 0001:00013584       __c_exit                   00414584 f   LIBCMT:crt0dat.obj
 0001:00013593       __amsg_exit                00414593 f   LIBCMT:crt0dat.obj
 0001:000135b1       _calloc                    004145b1 f   LIBCMT:calloc.obj
 0001:000135f1       _malloc                    004145f1 f   LIBCMT:malloc.obj
 0001:00013685       _free                      00414685 f   LIBCMT:free.obj
 0001:000136bf       _srand                     004146bf f   LIBCMT:rand.obj
 0001:000136d1       _rand                      004146d1 f   LIBCMT:rand.obj
 0001:000136f2       _atol                      004146f2 f   LIBCMT:atox.obj
 0001:00013708       __initp_misc_winsig        00414708 f   LIBCMT:winsig.obj
 0001:000137f9       ___get_sigabrt             004147f9 f   LIBCMT:winsig.obj
 0001:00013806       _signal                    00414806 f   LIBCMT:winsig.obj
 0001:00013a46       _raise                     00414a46 f   LIBCMT:winsig.obj
 0001:00013be9       _printf                    00414be9 f   LIBCMT:printf.obj
 0001:00013c90       __get_printf_count_output  00414c90 f   LIBCMT:printf.obj
 0001:00013ca6       __get_sys_err_msg          00414ca6 f i LIBCMT:perror.obj
 0001:00013cce       _perror                    00414cce f   LIBCMT:perror.obj
 0001:00013d5c       __get_errno_from_oserr     00414d5c f   LIBCMT:dosmap.obj
 0001:00013d9e       __errno                    00414d9e f   LIBCMT:dosmap.obj
 0001:00013db1       ___doserrno                00414db1 f   LIBCMT:dosmap.obj
 0001:00013dc4       __dosmaperr                00414dc4 f   LIBCMT:dosmap.obj
 0001:00013de7       _feof                      00414de7 f   LIBCMT:feoferr.obj
 0001:00013e0f       _ferror                    00414e0f f   LIBCMT:feoferr.obj
 0001:00013e37       __fwrite_nolock            00414e37 f   LIBCMT:fwrite.obj
 0001:00013f8e       _fwrite                    00414f8e f   LIBCMT:fwrite.obj
 0001:00014008       __fread_nolock_s           00415008 f   LIBCMT:fread.obj
 0001:000141c4       _fread_s                   004151c4 f   LIBCMT:fread.obj
 0001:00014252       _fread                     00415252 f   LIBCMT:fread.obj
 0001:00014270       _memcpy                    00415270 f   LIBCMT:memcpy.obj
 0001:000145d1       __endthreadex              004155d1 f   LIBCMT:threadex.obj
 0001:00014696       __beginthreadex            00415696 f   LIBCMT:threadex.obj
 0001:00014736       _putc                      00415736 f   LIBCMT:fputc.obj
 0001:00014832       _getc                      00415832 f   LIBCMT:fgetc.obj
 0001:00014926       _clearerr_s                00415926 f   LIBCMT:clearerr.obj
 0001:000149ca       _clearerr                  004159ca f   LIBCMT:clearerr.obj
 0001:000149d5       __flush                    004159d5 f   LIBCMT:fflush.obj
 0001:00014a3d       __fflush_nolock            00415a3d f   LIBCMT:fflush.obj
 0001:00014b5f       _fflush                    00415b5f f   LIBCMT:fflush.obj
 0001:00014bb2       __flushall                 00415bb2 f   LIBCMT:fflush.obj
 0001:00014bc0       __chkstk                   00415bc0 f   LIBCMT:chkstk.obj
 0001:00014bc0       __alloca_probe             00415bc0     LIBCMT:chkstk.obj
 0001:00014beb       ??0_LocaleUpdate@@QAE@PAUlocaleinfo_struct@@@Z 00415beb f i LIBCMT:_ctype.obj
 0001:00014c72       __isdigit_l                00415c72 f i LIBCMT:_ctype.obj
 0001:00014cc3       _isdigit                   00415cc3 f i LIBCMT:_ctype.obj
 0001:00014cf1       __isxdigit_l               00415cf1 f i LIBCMT:_ctype.obj
 0001:00014d47       _isxdigit                  00415d47 f i LIBCMT:_ctype.obj
 0001:00014d77       __isspace_l                00415d77 f i LIBCMT:_ctype.obj
 0001:00014dc8       _isspace                   00415dc8 f i LIBCMT:_ctype.obj
 0001:00014df6       __ungetc_nolock            00415df6 f   LIBCMT:ungetc.obj
 0001:00014ed9       _ungetc                    00415ed9 f   LIBCMT:ungetc.obj
 0001:00014fb0       _sscanf                    00415fb0 f   LIBCMT:sscanf.obj
 0001:00014fd2       __fclose_nolock            00415fd2 f   LIBCMT:fclose.obj
 0001:0001503f       _fclose                    0041603f f   LIBCMT:fclose.obj
 0001:000150b3       __fsopen                   004160b3 f   LIBCMT:fopen.obj
 0001:0001516f       _fopen                     0041616f f   LIBCMT:fopen.obj
 0001:00015186       __getenv_helper_nolock     00416186 f   LIBCMT:getenv.obj
 0001:0001520d       _getenv                    0041620d f   LIBCMT:getenv.obj
 0001:00015287       __dupenv_s                 00416287 f   LIBCMT:getenv.obj
 0001:0001535e       __getpid                   0041635e f   LIBCMT:getpid.obj
 0001:00015364       __sleep                    00416364 f   LIBCMT:slbeep.obj
 0001:000153df       __popen                    004163df f   LIBCMT:popen.obj
 0001:000158a7       __pclose                   004168a7 f   LIBCMT:popen.obj
 0001:00015980       _strncpy                   00416980 f   LIBCMT:strncpy.obj
 0001:00015aa4       __fstat64i32               00416aa4 f   LIBCMT:fstati32.obj
 0001:00015ed0       __stat64i32                00416ed0 f   LIBCMT:stati32.obj
 0001:00016327       __fseek_nolock             00417327 f   LIBCMT:fseek.obj
 0001:000163b1       _fseek                     004173b1 f   LIBCMT:fseek.obj
 0001:0001642d       __ftell_nolock             0041742d f   LIBCMT:ftell.obj
 0001:000165c1       _ftell                     004175c1 f   LIBCMT:ftell.obj
 0001:00016626       _system                    00417626 f   LIBCMT:system.obj
 0001:00016703       __cfltcvt_init             00417703 f   LIBCMT:_fpinit_.obj
 0001:00016763       __fpmath                   00417763 f   LIBCMT:_fpinit_.obj
 0001:00016780       __ftol2_sse                00417780 f   LIBCMT:ftol2.obj
 0001:00016789       __ftol2_pentium4           00417789 f   LIBCMT:ftol2.obj
 0001:0001679c       __ftol2_sse_excpt          0041779c f   LIBCMT:ftol2.obj
 0001:000167b6       __ftol2                    004177b6 f   LIBCMT:ftol2.obj
 0001:00016830       __CIsqrt                   00417830 f   LIBCMT:_sqrt_.obj
 0001:00016844       _sqrt                      00417844     LIBCMT:_sqrt_.obj
 0001:000168f0       _atan2                     004178f0 f   LIBCMT:_87ctriga_.obj
 0001:000168fa       __CIatan2                  004178fa f   LIBCMT:_87ctriga_.obj
 0001:00016910       _log                       00417910 f   LIBCMT:_log_.obj
 0001:00016950       __CIlog                    00417950 f   LIBCMT:_log_.obj
 0001:0001698b       __CIlog_default            0041798b f   LIBCMT:_log_.obj
 0001:0001699f       __log_default              0041799f     LIBCMT:_log_.obj
 0001:00016a60       _pow                       00417a60 f   LIBCMT:_pow_.obj
 0001:00016aa0       __CIpow                    00417aa0 f   LIBCMT:_pow_.obj
 0001:00016adb       __CIpow_default            00417adb f   LIBCMT:_pow_.obj
 0001:00016af4       __pow_default              00417af4     LIBCMT:_pow_.obj
 0001:00016cf0       _acos                      00417cf0 f   LIBCMT:_acos_.obj
 0001:00016d30       __CIacos                   00417d30 f   LIBCMT:_acos_.obj
 0001:00016d6b       __CIacos_default           00417d6b f   LIBCMT:_acos_.obj
 0001:00016d7f       __acos_default             00417d7f     LIBCMT:_acos_.obj
 0001:00016e40       _asin                      00417e40 f   LIBCMT:_asin_.obj
 0001:00016e80       __CIasin                   00417e80 f   LIBCMT:_asin_.obj
 0001:00016ebb       __CIasin_default           00417ebb f   LIBCMT:_asin_.obj
 0001:00016ecf       __asin_default             00417ecf     LIBCMT:_asin_.obj
 0001:00016f90       _atan                      00417f90 f   LIBCMT:_atan_.obj
 0001:00016fd0       __CIatan                   00417fd0 f   LIBCMT:_atan_.obj
 0001:0001700b       __CIatan_default           0041800b f   LIBCMT:_atan_.obj
 0001:0001701f       __atan_default             0041801f     LIBCMT:_atan_.obj
 0001:000170b0       _tan                       004180b0 f   LIBCMT:_tan_.obj
 0001:000170f0       __CItan                    004180f0 f   LIBCMT:_tan_.obj
 0001:0001712b       __CItan_default            0041812b f   LIBCMT:_tan_.obj
 0001:0001713f       __tan_default              0041813f     LIBCMT:_tan_.obj
 0001:000171e0       _cos                       004181e0 f   LIBCMT:_cos_.obj
 0001:00017220       __CIcos                    00418220 f   LIBCMT:_cos_.obj
 0001:0001725b       __CIcos_default            0041825b f   LIBCMT:_cos_.obj
 0001:0001726f       __cos_default              0041826f     LIBCMT:_cos_.obj
 0001:00017310       _sin                       00418310 f   LIBCMT:_sin_.obj
 0001:00017350       __CIsin                    00418350 f   LIBCMT:_sin_.obj
 0001:0001738b       __CIsin_default            0041838b f   LIBCMT:_sin_.obj
 0001:0001739f       __sin_default              0041839f     LIBCMT:_sin_.obj
 0001:00017440       _exp                       00418440 f   LIBCMT:_87ctran_.obj
 0001:0001747c       __CIexp                    0041847c f   LIBCMT:_87ctran_.obj
 0001:000174b7       __exp_default              004184b7 f   LIBCMT:_87ctran_.obj
 0001:000174c1       __CIexp_default            004184c1 f   LIBCMT:_87ctran_.obj
 0001:000174d0       _floor                     004184d0 f   LIBCMT:_floor_pentium4_.obj
 0001:00017510       __floor_pentium4           00418510 f   LIBCMT:_floor_pentium4_.obj
 0001:000175f1       __atof_l                   004185f1 f   LIBCMT:atof.obj
 0001:0001769c       _atof                      0041869c f   LIBCMT:atof.obj
 0001:000176af       __stbuf                    004186af f   LIBCMT:_sftbuf.obj
 0001:0001774b       __ftbuf                    0041874b f   LIBCMT:_sftbuf.obj
 0001:00017814       __output_l                 00418814 f   LIBCMT:output.obj
 0001:0001841c       __ioinit                   0041941c f   LIBCMT:ioinit.obj
 0001:00018661       __fileno                   00419661 f   LIBCMT:fileno.obj
 0001:00018661       _fileno                    00419661 f   LIBCMT:fileno.obj
 0001:00018687       __initp_misc_invarg        00419687 f   LIBCMT:invarg.obj
 0001:00018696       __call_reportfault         00419696 f   LIBCMT:invarg.obj
 0001:000187bf       __invoke_watson            004197bf f   LIBCMT:invarg.obj
 0001:000187e4       __invalid_parameter        004197e4 f   LIBCMT:invarg.obj
 0001:00018811       __invalid_parameter_noinfo 00419811 f   LIBCMT:invarg.obj
 0001:00018830       __SEH_prolog4              00419830 f   LIBCMT:sehprolg4.obj
 0001:00018875       __SEH_epilog4              00419875 f   LIBCMT:sehprolg4.obj
 0001:00018890       __except_handler4          00419890 f   LIBCMT:chandler4.obj
 0001:00018a1f       __malloc_crt               00419a1f f   LIBCMT:crtheap.obj
 0001:00018a64       __calloc_crt               00419a64 f   LIBCMT:crtheap.obj
 0001:00018ab0       __realloc_crt              00419ab0 f   LIBCMT:crtheap.obj
 0001:00018afe       __recalloc_crt             00419afe f   LIBCMT:crtheap.obj
 0001:00018b50       __fcloseall                00419b50 f   LIBCMT:closeall.obj
 0001:00018bec       __mtinitlocks              00419bec f   LIBCMT:mlock.obj
 0001:00018c36       __mtdeletelocks            00419c36 f   LIBCMT:mlock.obj
 0001:00018c8d       __unlock                   00419c8d f   LIBCMT:mlock.obj
 0001:00018ca4       __mtinitlocknum            00419ca4 f   LIBCMT:mlock.obj
 0001:00018d66       __lock                     00419d66 f   LIBCMT:mlock.obj
 0001:00018d99       ?__CxxUnhandledExceptionFilter@@YGJPAU_EXCEPTION_POINTERS@@@Z 00419d99 f   LIBCMT:unhandld.obj
 0001:00018ddb       ___CxxSetUnhandledExceptionFilter 00419ddb f   LIBCMT:unhandld.obj
 0001:00018de9       __GET_RTERRMSG             00419de9 f   LIBCMT:crt0msg.obj
 0001:00018e0f       __NMSG_WRITE               00419e0f f   LIBCMT:crt0msg.obj
 0001:00018fbe       __FF_MSGBANNER             00419fbe f   LIBCMT:crt0msg.obj
 0001:00018ff7       __XcptFilter               00419ff7 f   LIBCMT:winxfltr.obj
 0001:00019141       __setenvp                  0041a141 f   LIBCMT:stdenvp.obj
 0001:000193b7       __setargv                  0041a3b7 f   LIBCMT:stdargv.obj
 0001:00019472       ___crtGetEnvironmentStringsA 0041a472 f   LIBCMT:a_env.obj
 0001:00019509       __RTC_Initialize           0041a509 f   LIBCMT:_initsect_.obj
 0001:0001952f       __RTC_Terminate            0041a52f f   LIBCMT:_initsect_.obj
 0001:00019555       __encoded_null             0041a555 f   LIBCMT:tidtable.obj
 0001:0001955e       ___crtTlsAlloc@4           0041a55e f   LIBCMT:tidtable.obj
 0001:00019567       ___fls_getvalue@4          0041a567 f   LIBCMT:tidtable.obj
 0001:00019581       ___get_flsindex            0041a581 f   LIBCMT:tidtable.obj
 0001:00019587       ___set_flsgetvalue         0041a587 f   LIBCMT:tidtable.obj
 0001:000195bb       ___fls_setvalue@8          0041a5bb f   LIBCMT:tidtable.obj
 0001:000195d8       __mtterm                   0041a5d8 f   LIBCMT:tidtable.obj
 0001:00019615       __initptd                  0041a615 f   LIBCMT:tidtable.obj
 0001:000196c9       __getptd_noexit            0041a6c9 f   LIBCMT:tidtable.obj
 0001:00019742       __getptd                   0041a742 f   LIBCMT:tidtable.obj
 0001:0001975c       __freefls@4                0041a75c f   LIBCMT:tidtable.obj
 0001:0001988b       __freeptd                  0041a88b f   LIBCMT:tidtable.obj
 0001:000198f9       __mtinit                   0041a8f9 f   LIBCMT:tidtable.obj
 0001:00019a74       __heap_init                0041aa74 f   LIBCMT:heapinit.obj
 0001:00019a92       ___security_init_cookie    0041aa92 f   LIBCMT:gs_support.obj
 0001:00019b2d       __flsbuf                   0041ab2d f   LIBCMT:_flsbuf.obj
 0001:00019ca0       __aulldiv                  0041aca0 f   LIBCMT:ulldiv.obj
 0001:00019d08       ___report_gsfailure        0041ad08 f   LIBCMT:gs_report.obj
 0001:00019e0e       ?terminate@@YAXXZ          0041ae0e f   LIBCMT:hooks.obj
 0001:00019e47       __initp_eh_hooks           0041ae47 f   LIBCMT:hooks.obj
 0001:00019e58       __initp_misc_rand_s        0041ae58 f   LIBCMT:rand_s.obj
 0001:00019e67       __initp_misc_purevirt      0041ae67 f   LIBCMT:inithelp.obj
 0001:00019e76       __initp_heap_handler       0041ae76 f   LIBCMT:handler.obj
 0001:00019e85       __callnewh                 0041ae85 f   LIBCMT:handler.obj
 0001:00019f63       ___onexitinit              0041af63 f   LIBCMT:onexit.obj
 0001:00019f94       __onexit                   0041af94 f   LIBCMT:onexit.obj
 0001:00019fd0       _atexit                    0041afd0 f   LIBCMT:onexit.obj
 0001:00019fe7       __initp_misc_cfltcvt_tab   0041afe7 f   LIBCMT:cmiscdat.obj
 0001:0001a010       __ValidateImageBase        0041b010 f   LIBCMT:pesect.obj
 0001:0001a050       __FindPESection            0041b050 f   LIBCMT:pesect.obj
 0001:0001a0a0       __IsNonwritableInCurrentImage 0041b0a0 f   LIBCMT:pesect.obj
 0001:0001a15c       __calloc_impl              0041b15c f   LIBCMT:calloc_impl.obj
 0001:0001a409       _strtol                    0041b409 f   LIBCMT:strtol.obj
 0001:0001a434       ___sys_nerr                0041b434 f   LIBCMT:syserr.obj
 0001:0001a43a       ___sys_errlist             0041b43a f   LIBCMT:syserr.obj
 0001:0001a440       __set_osfhnd               0041b440 f   LIBCMT:osfinfo.obj
 0001:0001a4c1       __free_osfhnd              0041b4c1 f   LIBCMT:osfinfo.obj
 0001:0001a547       __get_osfhandle            0041b547 f   LIBCMT:osfinfo.obj
 0001:0001a5b0       ___lock_fhandle            0041b5b0 f   LIBCMT:osfinfo.obj
 0001:0001a64f       __unlock_fhandle           0041b64f f   LIBCMT:osfinfo.obj
 0001:0001a676       __alloc_osfhnd             0041b676 f   LIBCMT:osfinfo.obj
 0001:0001a80f       __write_nolock             0041b80f f   LIBCMT:write.obj
 0001:0001af0c       __write                    0041bf0c f   LIBCMT:write.obj
 0001:0001afe0       _strlen                    0041bfe0 f   LIBCMT:strlen.obj
 0001:0001b06b       __filbuf                   0041c06b f   LIBCMT:_filbuf.obj
 0001:0001b18d       __read_nolock              0041c18d f   LIBCMT:read.obj
 0001:0001b744       __read                     0041c744 f   LIBCMT:read.obj
 0001:0001b83a       _memcpy_s                  0041c83a f   LIBCMT:memcpy_s.obj
 0001:0001b8b0       _memset                    0041c8b0 f   LIBCMT:memset.obj
 0001:0001b92a       __VEC_memcpy               0041c92a f   LIBCMT:p4_memcpy.obj
 0001:0001ba2d       ___sse2_available_init     0041ca2d f   LIBCMT:cpu_disp.obj
 0001:0001ba3d       __commit                   0041ca3d f   LIBCMT:commit.obj
 0001:0001bd39       ___updatetmbcinfo          0041cd39 f   LIBCMT:mbctype.obj
 0001:0001be59       __setmbcp_nolock           0041ce59 f   LIBCMT:mbctype.obj
 0001:0001c042       __setmbcp                  0041d042 f   LIBCMT:mbctype.obj
 0001:0001c1dc       ___initmbctable            0041d1dc f   LIBCMT:mbctype.obj
 0001:0001c1fa       ___addlocaleref            0041d1fa f   LIBCMT:localref.obj
 0001:0001c289       ___removelocaleref         0041d289 f   LIBCMT:localref.obj
 0001:0001c322       ___freetlocinfo            0041d322 f   LIBCMT:localref.obj
 0001:0001c46d       __updatetlocinfoEx_nolock  0041d46d f   LIBCMT:localref.obj
 0001:0001c4ba       ___updatetlocinfo          0041d4ba f   LIBCMT:localref.obj
 0001:0001c533       __isctype_l                0041d533 f   LIBCMT:isctype.obj
 0001:0001c5eb       __getbuf                   0041d5eb f   LIBCMT:_getbuf.obj
 0001:0001c6eb       __input_l                  0041d6eb f   LIBCMT:input.obj
 0001:0001d6ef       __close_nolock             0041e6ef f   LIBCMT:close.obj
 0001:0001d78b       __close                    0041e78b f   LIBCMT:close.obj
 0001:0001d84f       __freebuf                  0041e84f f   LIBCMT:_freebuf.obj
 0001:0001d880       __openfile                 0041e880 f   LIBCMT:_open.obj
 0001:0001db17       __getstream                0041eb17 f   LIBCMT:stream.obj
 0001:0001dc50       __local_unwind4            0041ec50 f   LIBCMT:exsup4.obj
 0001:0001dd26       __seh_longjmp_unwind4@4    0041ed26 f   LIBCMT:exsup4.obj
 0001:0001dd42       @_EH4_CallFilterFunc@8     0041ed42 f   LIBCMT:exsup4.obj
 0001:0001dd59       @_EH4_TransferToHandler@8  0041ed59 f   LIBCMT:exsup4.obj
 0001:0001dd72       @_EH4_GlobalUnwind2@8      0041ed72 f   LIBCMT:exsup4.obj
 0001:0001dd8b       @_EH4_LocalUnwind@16       0041ed8b f   LIBCMT:exsup4.obj
 0001:0001dda2       __mbsnbicoll_l             0041eda2 f   LIBCMT:mbsnbico.obj
 0001:0001de80       __mbsnbicoll               0041ee80 f   LIBCMT:mbsnbico.obj
 0001:0001de9a       ___wtomb_environ           0041ee9a f   LIBCMT:wtombenv.obj
 0001:0001df31       _strcpy_s                  0041ef31 f   LIBCMT:strcpy_s.obj
 0001:0001df90       _strnlen                   0041ef90 f   LIBCMT:strlen_s.obj
 0001:0001dfad       __mbsrchr_l                0041efad f   LIBCMT:mbsrchr.obj
 0001:0001e057       __mbsrchr                  0041f057 f   LIBCMT:mbsrchr.obj
 0001:0001e06e       __getpath                  0041f06e f   LIBCMT:getpath.obj
 0001:0001e103       __access_s                 0041f103 f   LIBCMT:access.obj
 0001:0001e182       _access                    0041f182 f   LIBCMT:access.obj
 0001:0001e182       __access                   0041f182 f   LIBCMT:access.obj
 0001:0001e19a       _strcat_s                  0041f19a f   LIBCMT:strcat_s.obj
 0001:0001e207       __fdopen                   0041f207 f   LIBCMT:fdopen.obj
 0001:0001e37d       __pipe                     0041f37d f   LIBCMT:pipe.obj
 0001:0001e623       __cwait                    0041f623 f   LIBCMT:wait.obj
 0001:0001e6b4       ___loctotime64_t           0041f6b4 f   LIBCMT:dtoxtm64.obj
 0001:0001e920       __SEH_prolog4_GS           0041f920 f   LIBCMT:sehprolg4gs.obj
 0001:0001e968       __SEH_epilog4_GS           0041f968 f   LIBCMT:sehprolg4gs.obj
 0001:0001e977       __fullpath                 0041f977 f   LIBCMT:fullpath.obj
 0001:0001ea6e       ___dtoxmode                0041fa6e f   LIBCMT:stat.obj
 0001:0001f25f       __sopen_helper             0042025f f   LIBCMT:open.obj
 0001:0001f323       __sopen_s                  00420323 f   LIBCMT:open.obj
 0001:0001f343       __getdrive                 00420343 f   LIBCMT:drive.obj
 0001:0001f411       __mbctolower_l             00420411 f   LIBCMT:mbtolwr.obj
 0001:0001f4b7       __mbctolower               004204b7 f   LIBCMT:mbtolwr.obj
 0001:0001f4ca       __mbspbrk_l                004204ca f   LIBCMT:mbspbrk.obj
 0001:0001f58f       __mbspbrk                  0042058f f   LIBCMT:mbspbrk.obj
 0001:0001f5a6       __lseek_nolock             004205a6 f   LIBCMT:lseek.obj
 0001:0001f61b       __lseek                    0042061b f   LIBCMT:lseek.obj
 0001:0001f6ef       __spawnvpe                 004206ef f   LIBCMT:spawnvpe.obj
 0001:0001f9cd       __spawnve                  004209cd f   LIBCMT:spawnve.obj
 0001:0001fbb6       __forcdecpt_l              00420bb6 f   LIBCMT:cvt.obj
 0001:0001fc2a       __cropzeros_l              00420c2a f   LIBCMT:cvt.obj
 0001:0001fcac       __positive                 00420cac f   LIBCMT:cvt.obj
 0001:0001fcc8       __fassign_l                00420cc8 f   LIBCMT:cvt.obj
 0001:0001fd0a       __fassign                  00420d0a f   LIBCMT:cvt.obj
 0001:0001fd43       __forcdecpt                00420d43 f   LIBCMT:cvt.obj
 0001:0001fd56       __cropzeros                00420d56 f   LIBCMT:cvt.obj
 0001:0001feca       __cftoe_l                  00420eca f   LIBCMT:cvt.obj
 0001:0001ff91       __cftoe                    00420f91 f   LIBCMT:cvt.obj
 0001:0001ffb1       __cftoa_l                  00420fb1 f   LIBCMT:cvt.obj
 0001:0002042a       __cftof_l                  0042142a f   LIBCMT:cvt.obj
 0001:000204eb       __cftog_l                  004214eb f   LIBCMT:cvt.obj
 0001:000205d8       __cfltcvt_l                004215d8 f   LIBCMT:cvt.obj
 0001:00020660       __cfltcvt                  00421660 f   LIBCMT:cvt.obj
 0001:00020683       __setdefaultprecision      00421683 f   LIBCMT:fp8.obj
 0001:000206b0       __trandisp1                004216b0 f   LIBCMT:_87disp_.obj
 0001:00020717       __trandisp2                00421717 f   LIBCMT:_87disp_.obj
 0001:000207a3       __rttospopde               004217a3     LIBCMT:_87disp_.obj
 0001:000207a8       __rttospop                 004217a8     LIBCMT:_87disp_.obj
 0001:000207aa       __rtnospop                 004217aa     LIBCMT:_87disp_.obj
 0001:000207ac       __rttosnpop                004217ac     LIBCMT:_87disp_.obj
 0001:000207ad       __rtnospopde               004217ad     LIBCMT:_87disp_.obj
 0001:000207b4       __rtzeropop                004217b4     LIBCMT:_87disp_.obj
 0001:000207b6       __rtzeronpop               004217b6     LIBCMT:_87disp_.obj
 0001:000207bb       __rtonepop                 004217bb     LIBCMT:_87disp_.obj
 0001:000207bd       __rtonenpop                004217bd     LIBCMT:_87disp_.obj
 0001:000207c2       __tosnan1                  004217c2     LIBCMT:_87disp_.obj
 0001:000207ed       __nosnan2                  004217ed     LIBCMT:_87disp_.obj
 0001:000207ef       __tosnan2                  004217ef     LIBCMT:_87disp_.obj
 0001:00020817       __nan2                     00421817     LIBCMT:_87disp_.obj
 0001:00020856       __rtindfpop                00421856     LIBCMT:_87disp_.obj
 0001:00020858       __rtindfnpop               00421858     LIBCMT:_87disp_.obj
 0001:00020869       __rttosnpopde              00421869     LIBCMT:_87disp_.obj
 0001:00020873       __rtchsifneg               00421873     LIBCMT:_87disp_.obj
 0001:00020880       __startTwoArgErrorHandling 00421880 f   LIBCMT:_genexcep_.obj
 0001:00020897       __startOneArgErrorHandling 00421897 f   LIBCMT:_genexcep_.obj
 0001:000208e0       __twoToTOS                 004218e0 f   LIBCMT:_common_.obj
 0001:000208f5       __load_CW                  004218f5 f   LIBCMT:_common_.obj
 0001:0002090c       __convertTOStoQNaN         0042190c f   LIBCMT:_common_.obj
 0001:00020925       __fload_withFB             00421925 f   LIBCMT:_common_.obj
 0001:00020968       __checkTOS_withFB          00421968 f   LIBCMT:_common_.obj
 0001:0002097e       __fast_exit                0042197e f   LIBCMT:_common_.obj
 0001:0002098b       __math_exit                0042198b f   LIBCMT:_common_.obj
 0001:000209b5       __check_overflow_exit      004219b5 f   LIBCMT:_common_.obj
 0001:000209c9       __check_range_exit         004219c9 f   LIBCMT:_common_.obj
 0001:00020a8c       __fFATN2                   00421a8c     LIBCMT:_87triga_.obj
 0001:00020adc       __rtpiby2                  00421adc     LIBCMT:_87triga_.obj
 0001:00020b20       __cintrindisp2             00421b20 f   LIBCMT:_87cdisp_.obj
 0001:00020b5e       __cintrindisp1             00421b5e f   LIBCMT:_87cdisp_.obj
 0001:00020b9b       __ctrandisp2               00421b9b f   LIBCMT:_87cdisp_.obj
 0001:00020d2a       __ctrandisp1               00421d2a f   LIBCMT:_87cdisp_.obj
 0001:00020d5d       __fload                    00421d5d f   LIBCMT:_87cdisp_.obj
 0001:00020d99       __sse2_mathfcns_init       00421d99 f   LIBCMT:_mathfcns_.obj
 0001:00020db0       __CIlog_pentium4           00421db0 f   LIBCMT:_log_pentium4_.obj
 0001:00020dc8       __log_pentium4             00421dc8     LIBCMT:_log_pentium4_.obj
 0001:00021031       __fFEXP                    00422031     LIBCMT:_87tran_.obj
 0001:00021088       __rtinfpopse               00422088     LIBCMT:_87tran_.obj
 0001:0002108a       __rtinfnpopse              0042208a     LIBCMT:_87tran_.obj
 0001:0002109a       __fFLN                     0042209a     LIBCMT:_87tran_.obj
 0001:0002114f       __rtinfpop                 0042214f     LIBCMT:_87tran_.obj
 0001:00021151       __rtinfnpop                00422151     LIBCMT:_87tran_.obj
 0001:0002116e       __ffexpm1                  0042216e     LIBCMT:_87tran_.obj
 0001:00021220       __CIpow_pentium4           00422220 f   LIBCMT:_pow_pentium4_.obj
 0001:00021239       __pow_pentium4             00422239     LIBCMT:_pow_pentium4_.obj
 0001:00021d80       __d_inttype                00422d80 f   LIBCMT:_powhlp_.obj
 0001:00021dea       __powhlp                   00422dea f   LIBCMT:_powhlp_.obj
 0001:00021f20       __CIacos_pentium4          00422f20 f   LIBCMT:_acos_pentium4_.obj
 0001:00021f38       __acos_pentium4            00422f38     LIBCMT:_acos_pentium4_.obj
 0001:00022480       __CIasin_pentium4          00423480 f   LIBCMT:_asin_pentium4_.obj
 0001:00022498       __asin_pentium4            00423498     LIBCMT:_asin_pentium4_.obj
 0001:00022a00       __CIatan_pentium4          00423a00 f   LIBCMT:_atan_pentium4_.obj
 0001:00022a18       __atan_pentium4            00423a18     LIBCMT:_atan_pentium4_.obj
 0001:00022cf0       __CItan_pentium4           00423cf0 f   LIBCMT:_tan_pentium4_.obj
 0001:00022d08       __tan_pentium4             00423d08     LIBCMT:_tan_pentium4_.obj
 0001:00022f50       __CIcos_pentium4           00423f50 f   LIBCMT:_cos_pentium4_.obj
 0001:00022f68       __cos_pentium4             00423f68     LIBCMT:_cos_pentium4_.obj
 0001:00023100       __CIsin_pentium4           00424100 f   LIBCMT:_sin_pentium4_.obj
 0001:00023118       __sin_pentium4             00424118     LIBCMT:_sin_pentium4_.obj
 0001:000232d0       __CIexp_pentium4           004242d0 f   LIBCMT:_exp_pentium4_.obj
 0001:000232e8       __exp_pentium4             004242e8     LIBCMT:_exp_pentium4_.obj
 0001:00023590       ___libm_error_support      00424590 f   LIBCMT:_libm_error_.obj
 0001:0002385c       __floor_default            0042485c f   LIBCMT:_floor_.obj
 0001:00023934       __fltin2                   00424934 f   LIBCMT:_cfin_.obj
 0001:000239db       ___strgtold12_l            004249db f   LIBCMT:_strgtold_.obj
 0001:000240b7       __isatty                   004250b7 f   LIBCMT:isatty.obj
 0001:0002410d       __wctomb_s_l               0042510d f   LIBCMT:wctomb.obj
 0001:00024262       _wctomb_s                  00425262 f   LIBCMT:wctomb.obj
 0001:0002427f       __isleadbyte_l             0042527f f i LIBCMT:_wctype.obj
 0001:000242b7       _isleadbyte                004252b7 f i LIBCMT:_wctype.obj
 0001:000242d0       __aulldvrm                 004252d0 f   LIBCMT:ulldvrm.obj
 0001:00024365       __crt_debugger_hook        00425365 f   LIBCMT:dbghook.obj
 0001:0002436d       _realloc                   0042536d f   LIBCMT:realloc.obj
 0001:0002441a       __recalloc                 0042541a f   LIBCMT:recalloc.obj
 0001:00024488       ___crtMessageBoxW          00425488 f   LIBCMT:crtmboxw.obj
 0001:000245f4       _wcscat_s                  004255f4 f   LIBCMT:wcscat_s.obj
 0001:00024669       _wcsncpy_s                 00425669 f   LIBCMT:wcsncpy_s.obj
 0001:00024736       _wcslen                    00425736 f   LIBCMT:wcslen.obj
 0001:00024751       _wcscpy_s                  00425751 f   LIBCMT:wcscpy_s.obj
 0001:000247b4       __set_error_mode           004257b4 f   LIBCMT:errmode.obj
 0001:00024846       __ismbblead                00425846 f   LIBCMT:ismbbyte.obj
 0001:0002485e       __lseeki64_nolock          0042585e f   LIBCMT:lseeki64.obj
 0001:000248e3       __lseeki64                 004258e3 f   LIBCMT:lseeki64.obj
 0001:000249cd       _abort                     004259cd f   LIBCMT:abort.obj
 0001:00024a00       _strncpy_s                 00425a00 f   LIBCMT:strncpy_s.obj
 0001:00024ab5       __freea                    00425ab5 f i LIBCMT:a_loc.obj
 0001:00024ad5       __msize                    00425ad5 f   LIBCMT:msize.obj
 0001:00024b08       __fptrap                   00425b08 f   LIBCMT:crt0fp.obj
 0001:00024b20       __allmul                   00425b20 f   LIBCMT:llmul.obj
 0001:00024b54       __putwch_nolock            00425b54 f   LIBCMT:putwch.obj
 0001:00024b96       __mbtowc_l                 00425b96 f   LIBCMT:mbtowc.obj
 0001:00024cac       _mbtowc                    00425cac f   LIBCMT:mbtowc.obj
 0001:00024cc6       __VEC_memzero              00425cc6 f   LIBCMT:p4_memset.obj
 0001:00024f67       ___crtLCMapStringA         00425f67 f   LIBCMT:a_map.obj
 0001:00025094       ___crtGetStringTypeA       00426094 f   LIBCMT:a_str.obj
 0001:000250d4       ___free_lc_time            004260d4 f   LIBCMT:inittime.obj
 0001:0002544b       ___free_lconv_num          0042644b f   LIBCMT:initnum.obj
 0001:000254b4       ___free_lconv_mon          004264b4 f   LIBCMT:initmon.obj
 0001:000255b2       ____lc_codepage_func       004265b2 f   LIBCMT:initctyp.obj
 0001:000255e0       _strcspn                   004265e0 f   LIBCMT:strcspn.obj
 0001:00025630       _strcmp                    00426630 f   LIBCMT:strcmp.obj
 0001:000256b8       _strncmp                   004266b8 f   LIBCMT:strncmp.obj
 0001:00025780       _strpbrk                   00426780 f   LIBCMT:strpbrk.obj
 0001:000257c0       __mbsnbicmp_l              004267c0 f   LIBCMT:mbsnbicm.obj
 0001:000259c4       __mbsnbicmp                004269c4 f   LIBCMT:mbsnbicm.obj
 0001:000259de       __mbsnbcmp_l               004269de f   LIBCMT:mbsnbcmp.obj
 0001:00025b2a       __mbsnbcmp                 00426b2a f   LIBCMT:mbsnbcmp.obj
 0001:00025b50       __global_unwind2           00426b50 f   LIBCMT:exsup.obj
 0001:00025bb5       __local_unwind2            00426bb5 f   LIBCMT:exsup.obj
 0001:00025c39       __abnormal_termination     00426c39 f   LIBCMT:exsup.obj
 0001:00025c5c       __NLG_Notify1              00426c5c f   LIBCMT:exsup.obj
 0001:00025c65       __NLG_Notify               00426c65 f   LIBCMT:exsup.obj
 0001:00025c7c       __NLG_Dispatch             00426c7c     LIBCMT:exsup.obj
 0001:00025c7c       __NLG_Dispatch2            00426c7c     LIBCMT:exsup.obj
 0001:00025c84       __NLG_Call                 00426c84 f   LIBCMT:exsup.obj
 0001:00025c86       __NLG_Return2              00426c86     LIBCMT:exsup.obj
 0001:00025ef5       ___crtCompareStringA       00426ef5 f   LIBCMT:a_cmp.obj
 0001:00025f37       __strnicoll_l              00426f37 f   LIBCMT:strnicol.obj
 0001:000260d3       ___crtsetenv               004270d3 f   LIBCMT:setenv.obj
 0001:00026320       _strrchr                   00427320 f   LIBCMT:strrchr.obj
 0001:0002634d       __setmode_nolock           0042734d f   LIBCMT:setmode.obj
 0001:00026408       __get_fmode                00427408 f   LIBCMT:setmode.obj
 0001:00026b16       ___tzset                   00427b16 f   LIBCMT:tzset.obj
 0001:00026b65       __isindst                  00427b65 f   LIBCMT:tzset.obj
 0001:00026ba6       __get_daylight             00427ba6 f   LIBCMT:timeset.obj
 0001:00026bd3       __get_dstbias              00427bd3 f   LIBCMT:timeset.obj
 0001:00026c00       __get_timezone             00427c00 f   LIBCMT:timeset.obj
 0001:00026c2d       ___daylight                00427c2d f   LIBCMT:timeset.obj
 0001:00026c33       ___dstbias                 00427c33 f   LIBCMT:timeset.obj
 0001:00026c39       ___timezone                00427c39 f   LIBCMT:timeset.obj
 0001:00026c3f       ___tzname                  00427c3f f   LIBCMT:timeset.obj
 0001:00026c45       __validdrive               00427c45 f   LIBCMT:getcwd.obj
 0001:00026c9f       __getdcwd_nolock           00427c9f f   LIBCMT:getcwd.obj
 0001:00026dc3       __getcwd                   00427dc3 f   LIBCMT:getcwd.obj
 0001:00026e0c       __mbsicmp_l                00427e0c f   LIBCMT:mbsicmp.obj
 0001:00027003       __mbsicmp                  00428003 f   LIBCMT:mbsicmp.obj
 0001:0002701a       __chsize_nolock            0042801a f   LIBCMT:chsize.obj
 0001:000271d0       __mbschr_l                 004281d0 f   LIBCMT:mbschr.obj
 0001:00027280       __mbschr                   00428280 f   LIBCMT:mbschr.obj
 0001:00027297       __dospawn                  00428297 f   LIBCMT:dospawn.obj
 0001:0002749b       __cenvarg                  0042849b f   LIBCMT:cenvarg.obj
 0001:00027837       __tolower_l                00428837 f   LIBCMT:tolower.obj
 0001:0002794c       _tolower                   0042894c f   LIBCMT:tolower.obj
 0001:00027978       __atodbl_l                 00428978 f   LIBCMT:atodbl.obj
 0001:00027a20       __atoflt_l                 00428a20 f   LIBCMT:atodbl.obj
 0001:00027ad0       _memmove                   00428ad0 f   LIBCMT:memmove.obj
 0001:00027e31       __fptostr                  00428e31 f   LIBCMT:_fptostr.obj
 0001:00027ee4       ___dtold                   00428ee4 f   LIBCMT:_cfout_.obj
 0001:00027f97       __fltout2                  00428f97 f   LIBCMT:_cfout_.obj
 0001:00028030       __alldvrm                  00429030 f   LIBCMT:lldvrm.obj
 0001:00028110       __aullshr                  00429110 f   LIBCMT:ullshr.obj
 0001:0002812f       __controlfp_s              0042912f f   LIBCMT:_contrlfp_.obj
 0001:0002818e       __87except                 0042918e f   LIBCMT:_87except_.obj
 0001:000282cd       __frnd                     004292cd f   LIBCMT:_frnd_.obj
 0001:000282e1       __fpclass                  004292e1 f   LIBCMT:_ieeemisc_.obj
 0001:0002837e       __set_exp                  0042937e f   LIBCMT:_util_.obj
 0001:000283ab       __sptype                   004293ab f   LIBCMT:_util_.obj
 0001:00028411       __decomp                   00429411 f   LIBCMT:_util_.obj
 0001:000284d4       __matherr                  004294d4 f   LIBCMT:_matherr_.obj
 0001:000284d7       __raise_exc_ex             004294d7 f   LIBCMT:_fpexcept_.obj
 0001:000287b3       __raise_exc                004297b3 f   LIBCMT:_fpexcept_.obj
 0001:000287d6       __handle_exc               004297d6 f   LIBCMT:_fpexcept_.obj
 0001:000289ba       __set_errno_from_matherr   004299ba f   LIBCMT:_fpexcept_.obj
 0001:000289e7       __errcode                  004299e7 f   LIBCMT:_fpexcept_.obj
 0001:00028a1b       __umatherr                 00429a1b f   LIBCMT:_fpexcept_.obj
 0001:00028abb       __handle_qnan1             00429abb f   LIBCMT:_fpexcept_.obj
 0001:00028b10       __except1                  00429b10 f   LIBCMT:_fpexcept_.obj
 0001:00028bda       __statfp                   00429bda f   LIBCMT:_fpctrl_.obj
 0001:00028bea       __clrfp                    00429bea f   LIBCMT:_fpctrl_.obj
 0001:00028bfb       __ctrlfp                   00429bfb f   LIBCMT:_fpctrl_.obj
 0001:00028c26       __set_statfp               00429c26 f   LIBCMT:_fpctrl_.obj
 0001:00028c7e       ___set_fpsr_sse2           00429c7e f   LIBCMT:_fpctrl_.obj
 0001:00028cf0       __ld12tod                  00429cf0 f   LIBCMT:_intrncvt_.obj
 0001:00029241       __ld12tof                  0042a241 f   LIBCMT:_intrncvt_.obj
 0001:00029792       ___mtold12                 0042a792 f   LIBCMT:_mantold_.obj
 0001:00029980       __alloca_probe_16          0042a980 f   LIBCMT:alloca16.obj
 0001:00029996       __alloca_probe_8           0042a996     LIBCMT:alloca16.obj
 0001:000299ac       ___initconout              0042a9ac f   LIBCMT:initcon.obj
 0001:000299cb       ___termconout              0042a9cb f   LIBCMT:initcon.obj
 0001:000299e2       ___ascii_stricmp           0042a9e2 f   LIBCMT:stricmp.obj
 0001:00029a1b       __stricmp_l                0042aa1b f   LIBCMT:stricmp.obj
 0001:00029adb       __strnicmp_l               0042aadb f   LIBCMT:strnicmp.obj
 0001:00029bbd       __strnicmp                 0042abbd f   LIBCMT:strnicmp.obj
 0001:00029c10       _strdup                    0042ac10 f   LIBCMT:strdup.obj
 0001:00029c10       __strdup                   0042ac10 f   LIBCMT:strdup.obj
 0001:00029c80       _strchr                    0042ac80 f   LIBCMT:strchr.obj
 0001:00029c86       ___from_strstr_to_strchr   0042ac86     LIBCMT:strchr.obj
 0001:00029d3e       __mbsnicmp_l               0042ad3e f   LIBCMT:mbsnicmp.obj
 0001:00029f09       __mbsnicmp                 0042af09 f   LIBCMT:mbsnicmp.obj
 0001:00029f23       _$I10_OUTPUT               0042af23 f   LIBCMT:_x10fout_.obj
 0001:0002a949       __control87                0042b949 f i LIBCMT:_ieee87_.obj
 0001:0002ac60       ___ascii_strnicmp          0042bc60 f   LIBCMT:_strnicm.obj
 0001:0002acc2       _RtlUnwind@16              0042bcc2 f   kernel32:KERNEL32.dll
 0001:0002acc8       _closesocket@4             0042bcc8 f   wsock32:WSOCK32.dll
 0001:0002acce       _WSAStartup@8              0042bcce f   wsock32:WSOCK32.dll
 0001:0002acd4       _gethostname@8             0042bcd4 f   wsock32:WSOCK32.dll
 0001:0002acda       _inet_ntoa@4               0042bcda f   wsock32:WSOCK32.dll
 0001:0002ace0       _gethostbyname@4           0042bce0 f   wsock32:WSOCK32.dll
 0001:0002ace6       _getpeername@12            0042bce6 f   wsock32:WSOCK32.dll
 0001:0002acec       _ntohs@4                   0042bcec f   wsock32:WSOCK32.dll
 0001:0002acf2       _recv@16                   0042bcf2 f   wsock32:WSOCK32.dll
 0001:0002acf8       _ntohl@4                   0042bcf8 f   wsock32:WSOCK32.dll
 0001:0002acfe       _htonl@4                   0042bcfe f   wsock32:WSOCK32.dll
 0001:0002ad04       _send@16                   0042bd04 f   wsock32:WSOCK32.dll
 0001:0002ad0a       _setsockopt@20             0042bd0a f   wsock32:WSOCK32.dll
 0001:0002ad10       _connect@12                0042bd10 f   wsock32:WSOCK32.dll
 0001:0002ad16       _socket@12                 0042bd16 f   wsock32:WSOCK32.dll
 0001:0002ad1c       _htons@4                   0042bd1c f   wsock32:WSOCK32.dll
 0001:0002ad22       _WSAGetLastError@0         0042bd22 f   wsock32:WSOCK32.dll
 0001:0002ad28       _inet_addr@4               0042bd28 f   wsock32:WSOCK32.dll
 0001:0002ad2e       _listen@8                  0042bd2e f   wsock32:WSOCK32.dll
 0001:0002ad34       _bind@12                   0042bd34 f   wsock32:WSOCK32.dll
 0001:0002ad3a       _select@20                 0042bd3a f   wsock32:WSOCK32.dll
 0001:0002ad40       _accept@12                 0042bd40 f   wsock32:WSOCK32.dll
 0001:0002ad46       __chdir                    0042bd46 f   LIBCMT:chdir.obj
 0001:0002ad46       _chdir                     0042bd46 f   LIBCMT:chdir.obj
 0001:0002ae6f       __mbctoupper_l             0042be6f f   LIBCMT:mbtoupr.obj
 0001:0002af15       __mbctoupper               0042bf15 f   LIBCMT:mbtoupr.obj
 0002:00000000       __imp__CloseHandle@4       0042c000     kernel32:KERNEL32.dll
 0002:00000004       __imp__TerminateThread@8   0042c004     kernel32:KERNEL32.dll
 0002:00000008       __imp__WaitForSingleObject@8 0042c008     kernel32:KERNEL32.dll
 0002:0000000c       __imp__CreateMutexA@12     0042c00c     kernel32:KERNEL32.dll
 0002:00000010       __imp__ReleaseMutex@4      0042c010     kernel32:KERNEL32.dll
 0002:00000014       __imp__SuspendThread@4     0042c014     kernel32:KERNEL32.dll
 0002:00000018       __imp__ResumeThread@4      0042c018     kernel32:KERNEL32.dll
 0002:0000001c       __imp__EnterCriticalSection@4 0042c01c     kernel32:KERNEL32.dll
 0002:00000020       __imp__LeaveCriticalSection@4 0042c020     kernel32:KERNEL32.dll
 0002:00000024       __imp__GetCommandLineA@0   0042c024     kernel32:KERNEL32.dll
 0002:00000028       __imp__HeapSetInformation@16 0042c028     kernel32:KERNEL32.dll
 0002:0000002c       __imp__GetSystemTimeAsFileTime@4 0042c02c     kernel32:KERNEL32.dll
 0002:00000030       __imp__GetProcAddress@8    0042c030     kernel32:KERNEL32.dll
 0002:00000034       __imp__GetModuleHandleW@4  0042c034     kernel32:KERNEL32.dll
 0002:00000038       __imp__ExitProcess@4       0042c038     kernel32:KERNEL32.dll
 0002:0000003c       __imp__DecodePointer@4     0042c03c     kernel32:KERNEL32.dll
 0002:00000040       __imp__HeapAlloc@12        0042c040     kernel32:KERNEL32.dll
 0002:00000044       __imp__GetLastError@0      0042c044     kernel32:KERNEL32.dll
 0002:00000048       __imp__HeapFree@12         0042c048     kernel32:KERNEL32.dll
 0002:0000004c       __imp__EncodePointer@4     0042c04c     kernel32:KERNEL32.dll
 0002:00000050       __imp__SetConsoleCtrlHandler@8 0042c050     kernel32:KERNEL32.dll
 0002:00000054       __imp__ExitThread@4        0042c054     kernel32:KERNEL32.dll
 0002:00000058       __imp__GetCurrentThreadId@0 0042c058     kernel32:KERNEL32.dll
 0002:0000005c       __imp__CreateThread@24     0042c05c     kernel32:KERNEL32.dll
 0002:00000060       __imp__GetCurrentProcessId@0 0042c060     kernel32:KERNEL32.dll
 0002:00000064       __imp__Sleep@4             0042c064     kernel32:KERNEL32.dll
 0002:00000068       __imp__CreateProcessA@40   0042c068     kernel32:KERNEL32.dll
 0002:0000006c       __imp__DuplicateHandle@28  0042c06c     kernel32:KERNEL32.dll
 0002:00000070       __imp__GetCurrentProcess@0 0042c070     kernel32:KERNEL32.dll
 0002:00000074       __imp__FileTimeToSystemTime@8 0042c074     kernel32:KERNEL32.dll
 0002:00000078       __imp__FileTimeToLocalFileTime@8 0042c078     kernel32:KERNEL32.dll
 0002:0000007c       __imp__GetFileInformationByHandle@8 0042c07c     kernel32:KERNEL32.dll
 0002:00000080       __imp__PeekNamedPipe@24    0042c080     kernel32:KERNEL32.dll
 0002:00000084       __imp__GetFileType@4       0042c084     kernel32:KERNEL32.dll
 0002:00000088       __imp__FindClose@4         0042c088     kernel32:KERNEL32.dll
 0002:0000008c       __imp__GetDriveTypeA@4     0042c08c     kernel32:KERNEL32.dll
 0002:00000090       __imp__FindFirstFileExA@24 0042c090     kernel32:KERNEL32.dll
 0002:00000094       __imp__SetHandleCount@4    0042c094     kernel32:KERNEL32.dll
 0002:00000098       __imp__GetStdHandle@4      0042c098     kernel32:KERNEL32.dll
 0002:0000009c       __imp__InitializeCriticalSectionAndSpinCount@8 0042c09c     kernel32:KERNEL32.dll
 0002:000000a0       __imp__GetStartupInfoW@4   0042c0a0     kernel32:KERNEL32.dll
 0002:000000a4       __imp__DeleteCriticalSection@4 0042c0a4     kernel32:KERNEL32.dll
 0002:000000a8       __imp__UnhandledExceptionFilter@4 0042c0a8     kernel32:KERNEL32.dll
 0002:000000ac       __imp__SetUnhandledExceptionFilter@4 0042c0ac     kernel32:KERNEL32.dll
 0002:000000b0       __imp__IsDebuggerPresent@0 0042c0b0     kernel32:KERNEL32.dll
 0002:000000b4       __imp__TerminateProcess@8  0042c0b4     kernel32:KERNEL32.dll
 0002:000000b8       __imp__WriteFile@20        0042c0b8     kernel32:KERNEL32.dll
 0002:000000bc       __imp__GetModuleFileNameW@12 0042c0bc     kernel32:KERNEL32.dll
 0002:000000c0       __imp__GetModuleFileNameA@12 0042c0c0     kernel32:KERNEL32.dll
 0002:000000c4       __imp__FreeEnvironmentStringsW@4 0042c0c4     kernel32:KERNEL32.dll
 0002:000000c8       __imp__WideCharToMultiByte@32 0042c0c8     kernel32:KERNEL32.dll
 0002:000000cc       __imp__GetEnvironmentStringsW@0 0042c0cc     kernel32:KERNEL32.dll
 0002:000000d0       __imp__TlsAlloc@0          0042c0d0     kernel32:KERNEL32.dll
 0002:000000d4       __imp__TlsGetValue@4       0042c0d4     kernel32:KERNEL32.dll
 0002:000000d8       __imp__TlsSetValue@8       0042c0d8     kernel32:KERNEL32.dll
 0002:000000dc       __imp__TlsFree@4           0042c0dc     kernel32:KERNEL32.dll
 0002:000000e0       __imp__InterlockedIncrement@4 0042c0e0     kernel32:KERNEL32.dll
 0002:000000e4       __imp__SetLastError@4      0042c0e4     kernel32:KERNEL32.dll
 0002:000000e8       __imp__InterlockedDecrement@4 0042c0e8     kernel32:KERNEL32.dll
 0002:000000ec       __imp__HeapCreate@12       0042c0ec     kernel32:KERNEL32.dll
 0002:000000f0       __imp__QueryPerformanceCounter@4 0042c0f0     kernel32:KERNEL32.dll
 0002:000000f4       __imp__GetTickCount@0      0042c0f4     kernel32:KERNEL32.dll
 0002:000000f8       __imp__LoadLibraryW@4      0042c0f8     kernel32:KERNEL32.dll
 0002:000000fc       __imp__SetStdHandle@8      0042c0fc     kernel32:KERNEL32.dll
 0002:00000100       __imp__GetConsoleCP@0      0042c100     kernel32:KERNEL32.dll
 0002:00000104       __imp__GetConsoleMode@8    0042c104     kernel32:KERNEL32.dll
 0002:00000108       __imp__MultiByteToWideChar@24 0042c108     kernel32:KERNEL32.dll
 0002:0000010c       __imp__ReadFile@20         0042c10c     kernel32:KERNEL32.dll
 0002:00000110       __imp__IsProcessorFeaturePresent@4 0042c110     kernel32:KERNEL32.dll
 0002:00000114       __imp__FlushFileBuffers@4  0042c114     kernel32:KERNEL32.dll
 0002:00000118       __imp__GetCPInfo@8         0042c118     kernel32:KERNEL32.dll
 0002:0000011c       __imp__GetACP@0            0042c11c     kernel32:KERNEL32.dll
 0002:00000120       __imp__GetOEMCP@0          0042c120     kernel32:KERNEL32.dll
 0002:00000124       __imp__IsValidCodePage@4   0042c124     kernel32:KERNEL32.dll
 0002:00000128       __imp__RtlUnwind@16        0042c128     kernel32:KERNEL32.dll
 0002:0000012c       __imp__GetFileAttributesA@4 0042c12c     kernel32:KERNEL32.dll
 0002:00000130       __imp__CreatePipe@16       0042c130     kernel32:KERNEL32.dll
 0002:00000134       __imp__GetExitCodeProcess@8 0042c134     kernel32:KERNEL32.dll
 0002:00000138       __imp__GetFullPathNameA@16 0042c138     kernel32:KERNEL32.dll
 0002:0000013c       __imp__CreateFileA@28      0042c13c     kernel32:KERNEL32.dll
 0002:00000140       __imp__GetCurrentDirectoryW@8 0042c140     kernel32:KERNEL32.dll
 0002:00000144       __imp__SetFilePointer@16   0042c144     kernel32:KERNEL32.dll
 0002:00000148       __imp__HeapReAlloc@16      0042c148     kernel32:KERNEL32.dll
 0002:0000014c       __imp__HeapSize@12         0042c14c     kernel32:KERNEL32.dll
 0002:00000150       __imp__WriteConsoleW@20    0042c150     kernel32:KERNEL32.dll
 0002:00000154       __imp__LCMapStringW@24     0042c154     kernel32:KERNEL32.dll
 0002:00000158       __imp__GetStringTypeW@16   0042c158     kernel32:KERNEL32.dll
 0002:0000015c       __imp__CompareStringW@24   0042c15c     kernel32:KERNEL32.dll
 0002:00000160       __imp__SetEnvironmentVariableA@8 0042c160     kernel32:KERNEL32.dll
 0002:00000164       __imp__GetTimeZoneInformation@4 0042c164     kernel32:KERNEL32.dll
 0002:00000168       __imp__GetDriveTypeW@4     0042c168     kernel32:KERNEL32.dll
 0002:0000016c       __imp__SetEndOfFile@4      0042c16c     kernel32:KERNEL32.dll
 0002:00000170       __imp__GetProcessHeap@0    0042c170     kernel32:KERNEL32.dll
 0002:00000174       __imp__RaiseException@16   0042c174     kernel32:KERNEL32.dll
 0002:00000178       __imp__CreateFileW@28      0042c178     kernel32:KERNEL32.dll
 0002:0000017c       __imp__GetCurrentDirectoryA@8 0042c17c     kernel32:KERNEL32.dll
 0002:00000180       __imp__SetCurrentDirectoryA@4 0042c180     kernel32:KERNEL32.dll
 0002:00000184       \177KERNEL32_NULL_THUNK_DATA 0042c184     kernel32:KERNEL32.dll
 0002:00000188       __imp__gethostname@8       0042c188     wsock32:WSOCK32.dll
 0002:0000018c       __imp__inet_ntoa@4         0042c18c     wsock32:WSOCK32.dll
 0002:00000190       __imp__gethostbyname@4     0042c190     wsock32:WSOCK32.dll
 0002:00000194       __imp__getpeername@12      0042c194     wsock32:WSOCK32.dll
 0002:00000198       __imp__ntohs@4             0042c198     wsock32:WSOCK32.dll
 0002:0000019c       __imp__recv@16             0042c19c     wsock32:WSOCK32.dll
 0002:000001a0       __imp__ntohl@4             0042c1a0     wsock32:WSOCK32.dll
 0002:000001a4       __imp__htonl@4             0042c1a4     wsock32:WSOCK32.dll
 0002:000001a8       __imp__send@16             0042c1a8     wsock32:WSOCK32.dll
 0002:000001ac       __imp__setsockopt@20       0042c1ac     wsock32:WSOCK32.dll
 0002:000001b0       __imp__connect@12          0042c1b0     wsock32:WSOCK32.dll
 0002:000001b4       __imp__socket@12           0042c1b4     wsock32:WSOCK32.dll
 0002:000001b8       __imp__htons@4             0042c1b8     wsock32:WSOCK32.dll
 0002:000001bc       __imp__WSAGetLastError@0   0042c1bc     wsock32:WSOCK32.dll
 0002:000001c0       __imp__inet_addr@4         0042c1c0     wsock32:WSOCK32.dll
 0002:000001c4       __imp__listen@8            0042c1c4     wsock32:WSOCK32.dll
 0002:000001c8       __imp__bind@12             0042c1c8     wsock32:WSOCK32.dll
 0002:000001cc       __imp__select@20           0042c1cc     wsock32:WSOCK32.dll
 0002:000001d0       __imp__accept@12           0042c1d0     wsock32:WSOCK32.dll
 0002:000001d4       __imp__closesocket@4       0042c1d4     wsock32:WSOCK32.dll
 0002:000001d8       __imp__WSAStartup@8        0042c1d8     wsock32:WSOCK32.dll
 0002:000001dc       \177WSOCK32_NULL_THUNK_DATA 0042c1dc     wsock32:WSOCK32.dll
 0002:000001e0       ___xc_a                    0042c1e0     LIBCMT:crt0init.obj
 0002:000001e4       ___xc_z                    0042c1e4     LIBCMT:crt0init.obj
 0002:000001e8       ___xi_a                    0042c1e8     LIBCMT:crt0init.obj
 0002:00000208       ___xi_z                    0042c208     LIBCMT:crt0init.obj
 0002:0000020c       ___xp_a                    0042c20c     LIBCMT:crt0init.obj
 0002:00000218       ___xp_z                    0042c218     LIBCMT:crt0init.obj
 0002:0000021c       ___xt_a                    0042c21c     LIBCMT:crt0init.obj
 0002:00000220       ___xt_z                    0042c220     LIBCMT:crt0init.obj
 0002:00000230       ??_C@_07IPMECBNO@user_bp?$AA@ 0042c230     brev.obj
 0002:00000238       ??_C@_01PAPGNFGE@c?$AA@    0042c238     brev.obj
 0002:0000023c       ??_C@_07FFBONCCO@v0563c0?$AA@ 0042c23c     brev.obj
 0002:00000244       ??_C@_04CMGAJDGD@brev?$AA@ 0042c244     brev.obj
 0002:0000024c       ??_C@_01JBBJJEPG@p?$AA@    0042c24c     brev.obj
 0002:00000250       ??_C@_07OKPPBOMK@runtime?$AA@ 0042c250     brev.obj
 0002:00000258       ??_C@_04KOJKLCBG@1000?$AA@ 0042c258     brev.obj
 0002:00000260       ??_C@_0CB@PKICBPCH@BMARK_brev_1000_times_300_nrevs?3@ 0042c260     brev.obj
 0002:00000284       ??_C@_03CCCOBCKE@big?$AA@  0042c284     brev.obj
 0002:00000288       ??_C@_03MHAIKEMP@300?$AA@  0042c288     brev.obj
 0002:0000028c       ??_C@_0M@HGBLNGMI@BMARK_brev?3?$AA@ 0042c28c     brev.obj
 0002:00000298       ??_C@_04CEJDCDCH@test?$AA@ 0042c298     brev.obj
 0002:000002a0       ??_C@_02PGAMAILP@g4?$AA@   0042c2a0     brev.obj
 0002:000002a4       ??_C@_0P@MFKLNEDB@use?5bp?5?9h20000?$AA@ 0042c2a4     brev.obj
 0002:000002b4       ??_C@_04OJDKMIMG@2000?$AA@ 0042c2b4     brev.obj
 0002:000002bc       ??_C@_02LJENJOHI@g3?$AA@   0042c2bc     brev.obj
 0002:000002c0       ??_C@_02KAFGKPDJ@g2?$AA@   0042c2c0     brev.obj
 0002:000002c4       ??_C@_03BAAJCDMO@800?$AA@  0042c2c4     brev.obj
 0002:000002c8       ??_C@_02ILHLPMPK@g1?$AA@   0042c2c8     brev.obj
 0002:000002cc       ??_C@_03HPLEMDKK@200?$AA@  0042c2cc     brev.obj
 0002:000002d0       ??_C@_02JCGAMNLL@g0?$AA@   0042c2d0     brev.obj
 0002:000002d4       ??_C@_03GNABGMEE@100?$AA@  0042c2d4     brev.obj
 0002:000002d8       ??_C@_02PNFIDHGF@50?$AA@   0042c2d8     brev.obj
 0002:000002dc       ??_C@_02GHJKAGCI@gg?$AA@   0042c2dc     brev.obj
 0002:000002e0       ??_C@_05GGABMBGF@klips?$AA@ 0042c2e0     brev.obj
 0002:000002e8       ??_C@_04CLCEDBPF@time?$AA@ 0042c2e8     brev.obj
 0002:000002f0       ??_C@_06IJDLPEM@length?$AA@ 0042c2f0     brev.obj
 0002:000002f8       ??_C@_0L@LEIMKHLK@iterations?$AA@ 0042c2f8     brev.obj
 0002:00000304       ??_C@_04PKENOLLO@heap?$AA@ 0042c304     brev.obj
 0002:0000030c       ??_C@_05IANLDAEP@stack?$AA@ 0042c30c     brev.obj
 0002:00000314       ??_C@_01NEMOKFLO@?$DN?$AA@ 0042c314     brev.obj
 0002:00000318       ??_C@_05NGFEDHGN@write?$AA@ 0042c318     brev.obj
 0002:00000320       ??_C@_02ILLPOEGM@nl?$AA@   0042c320     brev.obj
 0002:00000324       ??_C@_02KPEDIMCA@go?$AA@   0042c324     brev.obj
 0002:00000328       ??_C@_0M@IHKJBCMK@local_stack?$AA@ 0042c328     brev.obj
 0002:00000334       ??_C@_05FAEIOGEG@trail?$AA@ 0042c334     brev.obj
 0002:0000033c       ??_C@_0N@GPEKCFBP@global_stack?$AA@ 0042c33c     brev.obj
 0002:0000034c       ??_C@_0L@PIHPICBN@statistics?$AA@ 0042c34c     brev.obj
 0002:00000358       ??_C@_05LHNEPIKO@htest?$AA@ 0042c358     brev.obj
 0002:00000360       ??_C@_09FGHMLDD@270782464?$AA@ 0042c360     brev.obj
 0002:0000036c       ??_C@_06LKANLBLF@$float?$AA@ 0042c36c     brev.obj
 0002:00000374       ??_C@_01KMDKNFGN@?1?$AA@   0042c374     brev.obj
 0002:00000378       ??_C@_01NBENCBCI@?$CK?$AA@ 0042c378     brev.obj
 0002:0000037c       ??_C@_01FDFGLJHB@2?$AA@    0042c37c     brev.obj
 0002:00000380       ??_C@_01MIFGBAGJ@?$CL?$AA@ 0042c380     brev.obj
 0002:00000384       ??_C@_05NAPFDJNG@timer?$AA@ 0042c384     brev.obj
 0002:0000038c       ??_C@_02JLLOCMEJ@bm?$AA@   0042c38c     brev.obj
 0002:00000390       ??_C@_08BIMEDOJB@integers?$AA@ 0042c390     brev.obj
 0002:0000039c       ??_C@_01GBGANLPD@0?$AA@    0042c39c     brev.obj
 0002:000003a0       ??_C@_0M@POEMMNFD@empty_range?$AA@ 0042c3a0     brev.obj
 0002:000003ac       ??_C@_05JLNEMJLN@dummy?$AA@ 0042c3ac     brev.obj
 0002:000003b4       ??_C@_05CCGOGOBM@range?$AA@ 0042c3b4     brev.obj
 0002:000003bc       ??_C@_04CCHLMOGN@fail?$AA@ 0042c3bc     brev.obj
 0002:000003c4       ??_C@_01IDAFKMJL@_?$AA@    0042c3c4     brev.obj
 0002:000003c8       ??_C@_0L@LIKEDCOO@full_range?$AA@ 0042c3c8     brev.obj
 0002:000003d4       ??_C@_04OJJAHOGC@nrev?$AA@ 0042c3d4     brev.obj
 0002:000003dc       ??_C@_01HIHLOKLC@1?$AA@    0042c3dc     brev.obj
 0002:000003e0       ??_C@_01JOAMLHOP@?9?$AA@   0042c3e0     brev.obj
 0002:000003e4       ??_C@_01LFCBOECM@?4?$AA@   0042c3e4     brev.obj
 0002:000003e8       ??_C@_04LOAJBDKD@true?$AA@ 0042c3e8     brev.obj
 0002:000003f0       ??_C@_01OGPIMHDM@?$DP?$AA@ 0042c3f0     brev.obj
 0002:000003f4       ??_C@_02GPECMEKF@?$FL?$FN?$AA@ 0042c3f4     brev.obj
 0002:000003f8       ??_C@_03CGOPKBCD@app?$AA@  0042c3f8     brev.obj
 0002:000003fc       ??_C@_0BC@OCCOLGAN@trailing?5in?5unify?$AA@ 0042c3fc     brev.obj
 0002:00000410       ??_C@_0CH@OAENFKOC@c?4c?5?$CISTUB?5ONLY?$CJ?5?3?5undefined?5beha@ 0042c410     c.obj
 0002:00000437       ??_C@_00CNPNBAHC@?$AA@     0042c437     c.obj
 0002:00000438       ??_C@_02DKCKIIND@?$CFs?$AA@ 0042c438     c.obj
 0002:0000043c       ??_C@_0BL@ENDCLDLC@No?5definition?5for?3?5?$CFs?1?$CFd?4?6?$AA@ 0042c43c     bpr:ru.obj
 0002:00000458       ??_C@_09NFABFJEF@BinProlog?$AA@ 0042c458     bpr:ru.obj
 0002:00000464       ??_C@_0N@FJBEBFDD@?$CFs?0?5?$CD?$CFd?4?$CF02d?$AA@ 0042c464     bpr:ru.obj
 0002:00000474       ??_C@_0DC@KMHMJNFB@?6?$CFs?5?$CFs?$CFs?$CFs?$CFs?$CFs?$CFs?$CFs?$CFs?$CFs?6Detected?5@ 0042c474     bpr:ru.obj
 0002:000004a8       ??_C@_0CF@JOHHIFCH@Copyright?5?$CIC?$CJ?5Paul?5Tarau?51992?920@ 0042c4a8     bpr:ru.obj
 0002:000004d0       ??_C@_0CH@ILAFFCBC@Open?9sourced?5under?5GPL?5v?43?5licen@ 0042c4d0     bpr:ru.obj
 0002:000004f8       ??_C@_0CJ@NHJGDNMO@http?3?1?1www?4gnu?4org?1licenses?1gpl?9@ 0042c4f8     bpr:ru.obj
 0002:00000524       ??_C@_01EEMJAFIK@?6?$AA@   0042c524     bpr:ru.obj
 0002:00000528       ??_C@_0BI@PDDEFJKG@?$CIwith?5heap?5GC?5enabled?$CJ?5?$AA@ 0042c528     bpr:ru.obj
 0002:00000540       ??_C@_0BI@GHOKLKNP@?$CIwith?5Windows?5threads?$CJ?5?$AA@ 0042c540     bpr:ru.obj
 0002:00000558       ??_C@_07FLPJLDFI@32?5bits?$AA@ 0042c558     bpr:ru.obj
 0002:00000560       ??_C@_0BM@PPJNGGNJ@type?5bp?5?9p10?5to?5detect?5host?$AA@ 0042c560     bpr:ru.obj
 0002:0000057c       ??_C@_0L@HIPLANPJ@undetected?$AA@ 0042c57c     bpr:ru.obj
 0002:00000588       ??_C@_0BG@HMLIKMNH@?$CIC?9ified?5standalone?$CJ?6?$AA@ 0042c588     bpr:ru.obj
 0002:000005a0       ??_C@_03OFAPEBGM@?$CFs?6?$AA@ 0042c5a0     bpr:ru.obj
 0002:000005a4       ??_C@_0DA@FDAAKDLL@?6Prolog?5execution?5?$CFs?$CI?$CFld?$CJ?4?5CPU?5t@ 0042c5a4     bpr:ru.obj
 0002:000005d4       ??_C@_06OOHAPEBD@halted?$AA@ 0042c5d4     bpr:ru.obj
 0002:000005dc       ??_C@_0BF@PDNEECPB@warning?3?5?$CK?$CK?$CK?5?$CFs?5?$CK?$CK?$CK?6?$AA@ 0042c5dc     bpr:ru.obj
 0002:000005f4       ??_C@_0BJ@GEPHBMGF@fatal?5error?3?5?$CK?$CK?$CK?5?$CFs?5?$CK?$CK?$CK?6?$AA@ 0042c5f4     bpr:ru.obj
 0002:00000610       ??_C@_0M@NLNDKHKA@?$CFs?1?$CFld?5?$DP?$DP?$DP?5?$AA@ 0042c610     bpr:ru.obj
 0002:0000061c       ??_C@_08BPALLFCG@?$CFld?5?$DP?$DP?$DP?5?$AA@ 0042c61c     bpr:ru.obj
 0002:00000628       ??_C@_0O@GIGKMOLP@mem?$FL?$CFlu?$FN?5?$DP?$DP?$DP?5?$AA@ 0042c628     bpr:ru.obj
 0002:00000638       ??_C@_09FCJHBEDL@_?$CFld?5?$DP?$DP?$DP?5?$AA@ 0042c638     bpr:ru.obj
 0002:00000648       ??_C@_0ED@NLCPHGMA@?$CK?$CK?$CK?5?$CFs?5overflow?5by?5?$CFld?5bytes?5?$CIsa@ 0042c648     bpr:ru.obj
 0002:0000068c       ??_C@_0L@BBNIBFMC@trim_depth?$AA@ 0042c68c     bpr:ru.obj
 0002:00000698       ??_C@_0M@CPLGDEHI@trim_detail?$AA@ 0042c698     bpr:ru.obj
 0002:000006a4       ??_C@_0P@KEBCNBOI@term_expansion?$AA@ 0042c6a4     bpr:ru.obj
 0002:000006b4       ??_C@_07HHBFGMHA@portray?$AA@ 0042c6b4     bpr:ru.obj
 0002:000006bc       ??_C@_0P@DCFGKAFG@portray_clause?$AA@ 0042c6bc     bpr:ru.obj
 0002:000006cc       ??_C@_06PIHEDKDA@bu_ctr?$AA@ 0042c6cc     bpr:ru.obj
 0002:000006d4       ??_C@_03NLPDLCGC@bu1?$AA@  0042c6d4     bpr:ru.obj
 0002:000006d8       ??_C@_03MCOIIDCD@bu0?$AA@  0042c6d8     bpr:ru.obj
 0002:000006dc       ??_C@_09IAMNGIKI@noname?4pl?$AA@ 0042c6dc     bpr:ru.obj
 0002:000006e8       ??_C@_08OBBAIKIA@dconsult?$AA@ 0042c6e8     bpr:ru.obj
 0002:000006f4       ??_C@_08MFJBPPJC@mcompile?$AA@ 0042c6f4     bpr:ru.obj
 0002:00000700       ??_C@_03IJLIBDBM@mem?$AA@  0042c700     bpr:ru.obj
 0002:00000704       ??_C@_02JNAHGKBG@pl?$AA@   0042c704     bpr:ru.obj
 0002:00000708       ??_C@_03JEELCJ@pro?$AA@    0042c708     bpr:ru.obj
 0002:0000070c       ??_C@_01BDACAMKP@h?$AA@    0042c70c     bpr:ru.obj
 0002:00000710       ??_C@_03LBBFAMDL@wam?$AA@  0042c710     bpr:ru.obj
 0002:00000714       ??_C@_02GENCEAFF@bp?$AA@   0042c714     bpr:ru.obj
 0002:00000718       ??_C@_0L@CFHHMECD@bp_virtual?$AA@ 0042c718     bpr:ru.obj
 0002:00000724       ??_C@_08FLKCLMNF@bp_state?$AA@ 0042c724     bpr:ru.obj
 0002:00000730       ??_C@_0M@HLNLMILD@closed_file?$AA@ 0042c730     bpr:ru.obj
 0002:0000073c       ??_C@_04CCHAHKJA@user?$AA@ 0042c73c     bpr:ru.obj
 0002:00000744       ??_C@_09NLKOLKMM@postfixop?$AA@ 0042c744     bpr:ru.obj
 0002:00000750       ??_C@_07GEACIFN@infixop?$AA@ 0042c750     bpr:ru.obj
 0002:00000758       ??_C@_08FGBOFJMI@prefixop?$AA@ 0042c758     bpr:ru.obj
 0002:00000764       ??_C@_02GIDJLJBD@yf?$AA@   0042c764     bpr:ru.obj
 0002:00000768       ??_C@_02GJPLNDCE@xf?$AA@   0042c768     bpr:ru.obj
 0002:0000076c       ??_C@_02LCBJFDMA@fy?$AA@   0042c76c     bpr:ru.obj
 0002:00000770       ??_C@_02KLACGCIB@fx?$AA@   0042c770     bpr:ru.obj
 0002:00000774       ??_C@_03GDDAILJJ@yfx?$AA@  0042c774     bpr:ru.obj
 0002:00000778       ??_C@_03MCJHNNLN@xfy?$AA@  0042c778     bpr:ru.obj
 0002:0000077c       ??_C@_03NLIMOMPM@xfx?$AA@  0042c77c     bpr:ru.obj
 0002:00000780       ??_C@_06CHALDMIE@opmark?$AA@ 0042c780     bpr:ru.obj
 0002:00000788       ??_C@_0M@FGPAFDDD@end_of_file?$AA@ 0042c788     bpr:ru.obj
 0002:00000794       ??_C@_0O@NBHEBFFJ@jcompressmark?$AA@ 0042c794     bpr:ru.obj
 0002:000007a4       ??_C@_08CMNGBDCP@tellmark?$AA@ 0042c7a4     bpr:ru.obj
 0002:000007b0       ??_C@_07KPBGGIG@seemark?$AA@ 0042c7b0     bpr:ru.obj
 0002:000007b8       ??_C@_06BMDKEIBD@ucount?$AA@ 0042c7b8     bpr:ru.obj
 0002:000007c0       ??_C@_08HOIPLNKP@predmark?$AA@ 0042c7c0     bpr:ru.obj
 0002:000007cc       ??_C@_01PPODPGHN@?$DO?$AA@ 0042c7cc     bpr:ru.obj
 0002:000007d0       ??_C@_01MNNFJEPP@?$DM?$AA@ 0042c7d0     bpr:ru.obj
 0002:000007d4       ??_C@_06KGMALCLE@$empty?$AA@ 0042c7d4     bpr:ru.obj
 0002:000007dc       ??_C@_03JBIPMCLC@int?$AA@  0042c7dc     bpr:ru.obj
 0002:000007e0       ??_C@_03MEPDGFMA@var?$AA@  0042c7e0     bpr:ru.obj
 0002:000007e4       ??_C@_03NDFEINMN@x86?$AA@  0042c7e4     bpr:ru.obj
 0002:000007e8       ??_C@_07NFPADACG@threads?$AA@ 0042c7e8     bpr:ru.obj
 0002:000007f0       ??_C@_08NFNNCLOG@wordsize?$AA@ 0042c7f0     bpr:ru.obj
 0002:000007fc       ??_C@_07HIMBLBFC@tagbits?$AA@ 0042c7fc     bpr:ru.obj
 0002:00000804       ??_C@_08ENOJNMAG@gc_level?$AA@ 0042c804     bpr:ru.obj
 0002:00000810       ??_C@_0M@MFJMKHKN@eager_deref?$AA@ 0042c810     bpr:ru.obj
 0002:0000081c       ??_C@_0BA@MMBBJBIN@struct_compress?$AA@ 0042c81c     bpr:ru.obj
 0002:0000082c       ??_C@_0O@IHJMJJPN@jump_compress?$AA@ 0042c82c     bpr:ru.obj
 0002:0000083c       ??_C@_0L@KEPNNIPB@trail_size?$AA@ 0042c83c     bpr:ru.obj
 0002:00000848       ??_C@_0L@NELPJPHD@stack_size?$AA@ 0042c848     bpr:ru.obj
 0002:00000854       ??_C@_09HMPAINDI@heap_size?$AA@ 0042c854     bpr:ru.obj
 0002:00000860       ??_C@_03BIIGCIG@inC?$AA@   0042c860     bpr:ru.obj
 0002:00000864       ??_C@_07CPCPJPKL@version?$AA@ 0042c864     bpr:ru.obj
 0002:0000086c       ??_C@_07GAILHCO@ip_addr?$AA@ 0042c86c     bpr:ru.obj
 0002:00000874       ??_C@_08EHKIGBEA@hostname?$AA@ 0042c874     bpr:ru.obj
 0002:00000880       ??_C@_0M@NNBMPGOF@startup_mes?$AA@ 0042c880     bpr:ru.obj
 0002:0000088c       ??_C@_08PPIJGMPL@callback?$AA@ 0042c88c     bpr:ru.obj
 0002:00000898       ??_C@_06GGCDBJHP@answer?$AA@ 0042c898     bpr:ru.obj
 0002:000008a0       ??_C@_05BKABJGDH@query?$AA@ 0042c8a0     bpr:ru.obj
 0002:000008a8       ??_C@_09BFELHLO@reconsult?$AA@ 0042c8a8     bpr:ru.obj
 0002:000008b4       ??_C@_07OLJGFCKG@compile?$AA@ 0042c8b4     bpr:ru.obj
 0002:000008bc       ??_C@_0BC@HMGHANFH@startup_file_name?$AA@ 0042c8bc     bpr:ru.obj
 0002:000008d0       ??_C@_0BC@NLPKNAK@current_user_file?$AA@ 0042c8d0     bpr:ru.obj
 0002:000008e4       ??_C@_0L@BBFHLDAC@current_db?$AA@ 0042c8e4     bpr:ru.obj
 0002:000008f0       ??_C@_06NOLKIBGG@implem?$AA@ 0042c8f0     bpr:ru.obj
 0002:000008f8       ??_C@_06JJLAMBGK@target?$AA@ 0042c8f8     bpr:ru.obj
 0002:00000900       ??_C@_06OEKOLKIL@source?$AA@ 0042c900     bpr:ru.obj
 0002:00000908       ??_C@_07PBHABHOB@linking?$AA@ 0042c908     bpr:ru.obj
 0002:00000910       ??_C@_0M@GCILGOCP@user_output?$AA@ 0042c910     bpr:ru.obj
 0002:0000091c       ??_C@_0L@FAMAGEAK@user_input?$AA@ 0042c91c     bpr:ru.obj
 0002:00000928       ??_C@_08FJJIDCOK@tellfunc?$AA@ 0042c928     bpr:ru.obj
 0002:00000934       ??_C@_07HPLPEHED@seefunc?$AA@ 0042c934     bpr:ru.obj
 0002:0000093c       ??_C@_08BGIJKJCF@tellfile?$AA@ 0042c93c     bpr:ru.obj
 0002:00000948       ??_C@_06ILKIAHNN@lineno?$AA@ 0042c948     bpr:ru.obj
 0002:00000950       ??_C@_07DAKONMIM@seefile?$AA@ 0042c950     bpr:ru.obj
 0002:00000958       ??_C@_08PMKMEHFK@db_ratio?$AA@ 0042c958     bpr:ru.obj
 0002:00000964       ??_C@_0M@NLHACMPK@load_method?$AA@ 0042c964     bpr:ru.obj
 0002:00000970       ??_C@_09GNCBFNIF@this_port?$AA@ 0042c970     bpr:ru.obj
 0002:0000097c       ??_C@_05PMBAOCDH@quiet?$AA@ 0042c97c     bpr:ru.obj
 0002:00000984       ??_C@_04LJPLFJDB@bbhi?$AA@ 0042c984     bpr:ru.obj
 0002:0000098c       ??_C@_04EIEIPGIG@bbgc?$AA@ 0042c98c     bpr:ru.obj
 0002:00000994       ??_C@_02DPGMDCM@gc?$AA@    0042c994     bpr:ru.obj
 0002:00000998       ??_C@_0BD@OIAMEMAI@sharing?5C?9variable?$AA@ 0042c998     bpr:ru.obj
 0002:000009ac       ??_C@_08FHIBLNMK@peval_io?$AA@ 0042c9ac     bpr:ru.obj
 0002:000009b8       ??_C@_09ELFALMPH@for_entry?$AA@ 0042c9b8     bpr:ru.obj
 0002:000009c4       ??_C@_0N@FJAFMCOA@member_entry?$AA@ 0042c9c4     bpr:ru.obj
 0002:000009d4       ??_C@_08HAIKBAPL@metatrue?$AA@ 0042c9d4     bpr:ru.obj
 0002:000009e0       ??_C@_08CCNDIAKO@metacall?$AA@ 0042c9e0     bpr:ru.obj
 0002:000009ec       ??_C@_0L@CGEGGNLF@prolog_run?$AA@ 0042c9ec     bpr:ru.obj
 0002:000009f8       ??_C@_0M@GFBJNNBE@prolog_init?$AA@ 0042c9f8     bpr:ru.obj
 0002:00000a04       ??_C@_0M@FBJEHGOI@prolog_load?$AA@ 0042ca04     bpr:ru.obj
 0002:00000a10       ??_C@_0BM@IBODNHLO@inconsistent?5runtime?5system?$AA@ 0042ca10     bpr:ru.obj
 0002:00000a2c       ??_C@_04OMFAIDPG@call?$AA@ 0042ca2c     bpr:ru.obj
 0002:00000a34       ??_C@_05MFBNJCGK@board?$AA@ 0042ca34     bpr:ru.obj
 0002:00000a3c       ??_C@_0BJ@DHLDDPH@not?5enough?5common?5memory?$AA@ 0042ca3c     bpr:ru.obj
 0002:00000a58       ??_C@_04NDFOBODE@code?$AA@ 0042ca58     bpr:ru.obj
 0002:00000a60       ??_C@_0CO@LKEHNMLP@trying?5to?5set?5engine?5property?5on@ 0042ca60     bpr:ru.obj
 0002:00000a90       ??_C@_0CO@GDFGOGHE@trying?5to?5get?5engine?5property?5on@ 0042ca90     bpr:ru.obj
 0002:00000ac0       ??_C@_0BO@DLNOJIGH@add_engine?3?5engine?5table?5full?$AA@ 0042cac0     bpr:ru.obj
 0002:00000ae0       ??_C@_0BM@HCKMNFCH@del_engine?3?5engine?5notfound?$AA@ 0042cae0     bpr:ru.obj
 0002:00000afc       ??_C@_0BC@INPEAPEM@add_engine?5failed?$AA@ 0042cafc     bpr:ru.obj
 0002:00000b10       ??_C@_0BJ@BBFGMPME@not?5enough?5engine?5memory?$AA@ 0042cb10     bpr:ru.obj
 0002:00000b2c       ??_C@_06DDDNEJEA@choice?$AA@ 0042cb2c     bpr:ru.obj
 0002:00000b34       ??_C@_0BC@KKCENDLJ@engine_attributes?$AA@ 0042cb34     bpr:ru.obj
 0002:00000b48       ??_C@_0DM@DLMACPPH@?$CFs?5?$CFs?$CFld?5?$CFs?$CFld?5?$CFs?$CFld?5?$CFs?$CFld?5?$CFs?$CFld@ 0042cb48     bpr:ru.obj
 0002:00000b84       ??_C@_0CE@NMEPBAOM@?6BinProlog?5command?5line?3?6?6OPTION@ 0042cb84     bpr:ru.obj
 0002:00000ba8       ??_C@_0CH@DDFKIKCO@?6?9h?5?$DN?$DN?$DO?5HEAP?5SIZE?5in?5Kbytes?0?5?5de@ 0042cba8     bpr:ru.obj
 0002:00000bd0       ??_C@_0CH@BBPIFEL@?6?9s?5?$DN?$DN?$DO?5STACK?5SIZE?5in?5Kbytes?0?5de@ 0042cbd0     bpr:ru.obj
 0002:00000bf8       ??_C@_0CH@EIMJGIMH@?6?9t?5?$DN?$DN?$DO?5TRAIL?5SIZE?5in?5Kbytes?0?5de@ 0042cbf8     bpr:ru.obj
 0002:00000c20       ??_C@_0CH@LJGJNMJG@?6?9c?5?$DN?$DN?$DO?5CODE?5SIZE?5in?5Kbytes?0?5?5de@ 0042cc20     bpr:ru.obj
 0002:00000c48       ??_C@_0DE@LPGJNJNM@?6?9a?5?$DN?$DN?$DO?5MAX?4?5ATOMS?0?5give?5exponen@ 0042cc48     bpr:ru.obj
 0002:00000c7c       ??_C@_0DN@HNIKEPII@?6?9d?5?$DN?$DN?$DO?5HASH?5DICT?4?5entries?0?5give@ 0042cc7c     bpr:ru.obj
 0002:00000cbc       ??_C@_0CG@NBDEABJE@?6?9i?5?$DN?$DN?$DO?5IOBUFFER?0?5in?5Kbytes?0?5def@ 0042ccbc     bpr:ru.obj
 0002:00000ce4       ??_C@_0CC@ICAHFJLD@?6?9q?5?$DN?$DN?$DO?5QUIETNESS?5level?0?5default@ 0042cce4     bpr:ru.obj
 0002:00000d08       ??_C@_0O@FPFKBKGK@?6?6ARGUMENTS?3?6?$AA@ 0042cd08     bpr:ru.obj
 0002:00000d18       ??_C@_0EG@GEEACGMK@?6?5?5STARTUP?5FILE?3?5?$CK?4bp?0?5?$CK?4pl?0?5?$CK?4w@ 0042cd18     bpr:ru.obj
 0002:00000d60       ??_C@_06MNNHBPJC@wam?4bp?$AA@ 0042cd60     bpr:ru.obj
 0002:00000d68       ??_C@_0CE@BBJKAGJO@cellsize?$DN?$CFu?5termsize?$DN?$CFu?5symbits?$DN@ 0042cd68     bpr:ru.obj
 0002:00000d8c       ??_C@_0CO@MMANGPFP@MAXARITY?3?$CFd?5MAXREG?3?$CFd?5TEMPARGS?3?$CF@ 0042cd8c     bpr:ru.obj
 0002:00000dbc       ??_C@_0BD@EEKNHEAM@bad?5option?3?5?9?$CFc?$CFs?6?$AA@ 0042cdbc     bpr:ru.obj
 0002:00000dd0       ??_C@_0BD@OBAHJNNG@?$CK?$CK?$CK?5BAD?5OPTION?$DN?$CFs?6?$AA@ 0042cdd0     bpr:ru.obj
 0002:00000de4       ??_C@_0DD@GBHBIFKO@?6program?5interrupted?$CItimes?$DN?$CFd?0er@ 0042cde4     bpr:ru.obj
 0002:00000e18       ??_C@_0DB@PDNFCADG@?6interrupted?$CItimes?$DN?$CFd?0code?$DN?$CFd?$CJ?4?4@ 0042ce18     bpr:ru.obj
 0002:00000e4c       ??_C@_0DO@EOOJGKLO@?6interrupted?5during?5link?5phase?$CIt@ 0042ce4c     bpr:ru.obj
 0002:00000e8c       ??_C@_0CN@FNMBAGHC@?6Previous?5interrupt?5caught?5?$CFld?5s@ 0042ce8c     bpr:ru.obj
 0002:00000ebc       ??_C@_07OKCGJHED@err_wam?$AA@ 0042cebc     bpr:ru.obj
 0002:00000ec4       ??_C@_08KCNEHNEJ@err_arg2?$AA@ 0042cec4     bpr:ru.obj
 0002:00000ed0       ??_C@_08IJPJCOIK@err_arg1?$AA@ 0042ced0     bpr:ru.obj
 0002:00000edc       ??_C@_07GMKLHLL@err_mes?$AA@ 0042cedc     bpr:ru.obj
 0002:00000ee4       ??_C@_06KLBMBNFO@err_id?$AA@ 0042cee4     bpr:ru.obj
 0002:00000eec       ??_C@_0L@MNIMHPCL@mes_margin?$AA@ 0042ceec     bpr:ru.obj
 0002:00000ef8       ??_C@_03FNPJCMMD@mes?$AA@  0042cef8     bpr:ru.obj
 0002:00000efc       ??_C@_0N@JJBBCAGN@stack_margin?$AA@ 0042cefc     bpr:ru.obj
 0002:00000f0c       ??_C@_0N@HIBMHONF@trail_margin?$AA@ 0042cf0c     bpr:ru.obj
 0002:00000f1c       ??_C@_04DFHGHGBC@dcgs?$AA@ 0042cf1c     bpr:ru.obj
 0002:00000f24       ??_C@_04PPLNELOM@regs?$AA@ 0042cf24     bpr:ru.obj
 0002:00000f2c       ??_C@_0M@HJCFGPKE@heap_margin?$AA@ 0042cf2c     bpr:ru.obj
 0002:00000f38       ??_C@_09OLBFCAGK@heap_base?$AA@ 0042cf38     bpr:ru.obj
 0002:00000f44       ??_C@_0O@CJKDEHAG@bboard_margin?$AA@ 0042cf44     bpr:ru.obj
 0002:00000f54       ??_C@_0L@MHBENID@bboard_top?$AA@ 0042cf54     bpr:ru.obj
 0002:00000f60       ??_C@_06PFJKLBHL@bboard?$AA@ 0042cf60     bpr:ru.obj
 0002:00000f68       ??_C@_0M@OKGGFPFE@code_margin?$AA@ 0042cf68     bpr:ru.obj
 0002:00000f74       ??_C@_08GALJIIAC@code_top?$AA@ 0042cf74     bpr:ru.obj
 0002:00000f80       ??_C@_0M@LMKHIEJN@code_oldtop?$AA@ 0042cf80     bpr:ru.obj
 0002:00000f8c       ??_C@_0BO@PBJIPKBJ@Finished?5loading?5system?5code?4?$AA@ 0042cf8c     bpr:ru.obj
 0002:00000fac       ??_C@_0CG@POIOINEI@Start?5loading?5system?5code?5from?5?$DM@ 0042cfac     bpr:ru.obj
 0002:00000fd4       ??_C@_0BE@HOEOJMND@internal?5code?5array?$AA@ 0042cfd4     bpr:ru.obj
 0002:00000fe8       ??_C@_04LCMACLFG@?4txt?$AA@ 0042cfe8     bpr:ru.obj
 0002:00000ff0       ??_C@_04JJADPCEN@?4pro?$AA@ 0042cff0     bpr:ru.obj
 0002:00000ff8       ??_C@_04CIICLFFP@?4wam?$AA@ 0042cff8     bpr:ru.obj
 0002:00001000       ??_C@_0CH@PAIPKIIH@?$CK?$CK?$CK?5fatal?5error?5in?5query?3?5?$CFs?0?5co@ 0042d000     bpr:ru.obj
 0002:00001028       ??_C@_0BN@MMFKAGK@default?5toplevel?10?5or?5main?10?$AA@ 0042d028     bpr:ru.obj
 0002:00001048       ??_C@_06DHKIJHFC@bp?4dll?$AA@ 0042d048     bpr:main.obj
 0002:00001050       ??_C@_0N@BFIHJLJG@halted?0?5code?$AA@ 0042d050     bpr:main.obj
 0002:00001060       ??_C@_0CD@BNJEBNFH@Started?5Prolog?5Runtime?5System?5?$CFd@ 0042d060     bpr:main.obj
 0002:00001084       ??_C@_08DFBACGFN@?$CFs?3?5?$CFld?6?$AA@ 0042d084     bpr:socket.obj
 0002:00001090       ??_C@_0O@JNOMPAHH@?$CFs?3?5?$CFld?0?5?$CFld?6?$AA@ 0042d090     bpr:socket.obj
 0002:000010a0       ??_C@_07KJFPOMFC@?$CFs?3?5?$CFs?6?$AA@ 0042d0a0     bpr:socket.obj
 0002:000010a8       ??_C@_0P@JBALDMDD@closing?5socket?$AA@ 0042d0a8     bpr:socket.obj
 0002:000010b8       ??_C@_0DD@GJJIIBPI@host?5not?5found?5by?5gethostname?$CI?$CJ?0@ 0042d0b8     bpr:socket.obj
 0002:000010ec       ??_C@_09IPAEKDAI@localhost?$AA@ 0042d0ec     bpr:socket.obj
 0002:000010f8       ??_C@_09PFCHIMEP@127?40?40?41?$AA@ 0042d0f8     bpr:socket.obj
 0002:00001104       ??_C@_0CF@INNLAJEE@ip?5addr?5not?5found?0?5127?40?40?41?5ass@ 0042d104     bpr:socket.obj
 0002:0000112c       ??_C@_0BJ@CPAMKJDE@sock_readln?5end?3?5Reading?$AA@ 0042d12c     bpr:socket.obj
 0002:00001148       ??_C@_0BL@PANDBNBF@sock_readln?5start?3?5Reading?$AA@ 0042d148     bpr:socket.obj
 0002:00001164       ??_C@_0BJ@CGJGEHJG@sock_read0?0?5sock?0?5this?$CB?$CB?$AA@ 0042d164     bpr:socket.obj
 0002:00001180       ??_C@_0BD@IPGEICEK@sock_read?3?5Reading?$AA@ 0042d180     bpr:socket.obj
 0002:00001194       ??_C@_0BL@FIJKDNBC@sock_read?3?5buffer?5overflow?$AA@ 0042d194     bpr:socket.obj
 0002:000011b0       ??_C@_0BN@PBADLBHA@sock2file?3?5Read?5from?0?5bytes?3?$AA@ 0042d1b0     bpr:socket.obj
 0002:000011d0       ??_C@_0CK@JJKCKMFH@sock2file?3?5Try?5reading?5sock?0?5fil@ 0042d1d0     bpr:socket.obj
 0002:000011fc       ??_C@_0CC@GEKMMKBN@sock_write0?3?5written?0?5sock?0?5coun@ 0042d1fc     bpr:socket.obj
 0002:00001220       ??_C@_0CK@NNPCDAHC@sock_write0?3?5trying?5to?5write?0?5so@ 0042d220     bpr:socket.obj
 0002:0000124c       ??_C@_0BE@HOOCNMHO@sock_write?3?5written?$AA@ 0042d24c     bpr:socket.obj
 0002:00001260       ??_C@_0CB@EIJHCAK@file2sock?3?5bad?5file?5stream?0?5code@ 0042d260     bpr:socket.obj
 0002:00001284       ??_C@_0CK@KLEMPDAI@file2sock?3?5written?5from?5file?5str@ 0042d284     bpr:socket.obj
 0002:000012b0       ??_C@_0BM@JBNJGB@file2sock?3?5read?5from?0?5chars?$AA@ 0042d2b0     bpr:socket.obj
 0002:000012cc       ??_C@_0BE@DFDDJBJC@?5?5new_client?5socket?$AA@ 0042d2cc     bpr:socket.obj
 0002:000012e0       ??_C@_0BM@LLPBOCCK@Exiting?5new_client?5for?5host?$AA@ 0042d2e0     bpr:socket.obj
 0002:000012fc       ??_C@_0BH@LAMLNOO@Cannot?5set?5TCP_NODELAY?$AA@ 0042d2fc     bpr:socket.obj
 0002:00001314       ??_C@_0BF@ICFEAKEP@Cannot?5set?5KEEPALIVE?$AA@ 0042d314     bpr:socket.obj
 0002:0000132c       ??_C@_0BK@LEHOMCBC@Connection?5attempt?5failed?$AA@ 0042d32c     bpr:socket.obj
 0002:00001348       ??_C@_0BI@BAFIBIJ@Unable?5to?5create?5socket?$AA@ 0042d348     bpr:socket.obj
 0002:00001360       ??_C@_0BO@KDEAKEDI@host?5assumed?5valid?5IP?5address?$AA@ 0042d360     bpr:socket.obj
 0002:00001380       ??_C@_0BM@KMOACAHG@no?5localhost?5neither?0?5error?$AA@ 0042d380     bpr:socket.obj
 0002:0000139c       ??_C@_0BD@GMPDPAKG@Host?5found?5by?5name?$AA@ 0042d39c     bpr:socket.obj
 0002:000013b0       ??_C@_0BI@NNJEHFFG@gethostby?4?4?4?$CI?$CJ?5got?5addr?$AA@ 0042d3b0     bpr:socket.obj
 0002:000013c8       ??_C@_0M@CDHNGIPM@?$CFu?4?$CFu?4?$CFu?4?$CFu?$AA@ 0042d3c8     bpr:socket.obj
 0002:000013d4       ??_C@_0L@KBNNJDAE@errorcode?3?$AA@ 0042d3d4     bpr:socket.obj
 0002:000013e0       ??_C@_0CN@GNBLJIP@Neither?5an?5IP?5address?5nor?5host?5f@ 0042d3e0     bpr:socket.obj
 0002:00001410       ??_C@_05FFPGNEKC@got?5l?$AA@ 0042d410     bpr:socket.obj
 0002:00001418       ??_C@_0BJ@LPKHELOA@?5?5new_client?5server?5port?$AA@ 0042d418     bpr:socket.obj
 0002:00001434       ??_C@_0BN@PMGGPDKD@Entering?5new_client?5for?5host?$AA@ 0042d434     bpr:socket.obj
 0002:00001454       ??_C@_0BH@PFOIADOL@?$CFs?5?$CFs?3?$CFd?6?$CFs?$CFd?5?$CFs?$CFd?5?$CFs?6?$AA@ 0042d454     bpr:socket.obj
 0002:0000146c       ??_C@_0BM@BABHCKKO@?$CK?$CK?$CK?5error?5opening?5socket?5to?$AA@ 0042d46c     bpr:socket.obj
 0002:00001488       ??_C@_0CK@JEJPHPEA@no?5answer?5or?5no?5available?5socket@ 0042d488     bpr:socket.obj
 0002:000014b4       ??_C@_08HHEDKDJO@waiting?$DN?$AA@ 0042d4b4     bpr:socket.obj
 0002:000014c0       ??_C@_07GELLIBDG@seconds?$AA@ 0042d4c0     bpr:socket.obj
 0002:000014c8       ??_C@_0BD@KALLHKCF@New?5server?5on?5port?$AA@ 0042d4c8     bpr:socket.obj
 0002:000014dc       ??_C@_0BM@CJEFNLF@Unable?5to?5listen?5on?5socket?6?$AA@ 0042d4dc     bpr:socket.obj
 0002:000014f8       ??_C@_0CG@KOJJJLME@Unable?5to?5bind?5stream?5socket?0?5on@ 0042d4f8     bpr:socket.obj
 0002:00001520       ??_C@_0CD@KHCCIEJP@Socket?5number?5not?5expected?5to?5be@ 0042d520     bpr:socket.obj
 0002:00001544       ??_C@_0BL@GBIFAPCI@Open?5Stream?5Socket?5failed?$CB?$AA@ 0042d544     bpr:socket.obj
 0002:00001560       ??_C@_0BK@PBLAGILN@timeout?5?$CIsecs?$CJ?0?5on?5socket?$AA@ 0042d560     bpr:socket.obj
 0002:0000157c       ??_C@_0BA@LJDAAAN@error?5on?5select?$AA@ 0042d57c     bpr:socket.obj
 0002:0000158c       ??_C@_0BH@NDHCAHIO@Set?5TCP_NODELAY?5failed?$AA@ 0042d58c     bpr:socket.obj
 0002:000015a4       ??_C@_0BI@DFIKPCIA@Set?5SO_KEEPALIVE?5failed?$AA@ 0042d5a4     bpr:socket.obj
 0002:000015bc       ??_C@_0O@BMGFIIHF@Accept?5failed?$AA@ 0042d5bc     bpr:socket.obj
 0002:000015cc       ??_C@_0BK@PMHHIODI@Ready?5to?5accept?5on?5socket?$AA@ 0042d5cc     bpr:socket.obj
 0002:000015e8       ??_C@_0DF@NFEFGKK@stub?0?5THREADS?5on?5the?5way?5to?5be?5i@ 0042d5e8     bpr:engine.obj
 0002:00001620       ??_C@_0BL@IEICGOJH@integer?5expected?5in?5halt?11?$AA@ 0042d620     bpr:engine.obj
 0002:0000163c       ??_C@_0CA@MGKEAMMC@?$CK?$CK?$CK?5bad?5instruction?3?5?$FL?$CFlu?$FN?5?$CK?$CK?$CK?6?$AA@ 0042d63c     bpr:engine.obj
 0002:0000165c       ??_C@_0BC@HMDEMNIG@undefined?5in?5EXEC?$AA@ 0042d65c     bpr:engine.obj
 0002:00001670       ??_C@_0CF@COGAOFPN@load?5engine?3?5error?5in?5copy_to_en@ 0042d670     bpr:engine.obj
 0002:00001698       ??_C@_0BI@EPPKIDMI@load_engine?3?5bad?5engine?$AA@ 0042d698     bpr:engine.obj
 0002:000016b0       ??_C@_0BM@GMNLFOFF@ask_engine?3?5bad?5engine?5type?$AA@ 0042d6b0     bpr:engine.obj
 0002:000016cc       ??_C@_0BI@GENADHGN@answer?3?5bad?5engine?5type?$AA@ 0042d6cc     bpr:engine.obj
 0002:000016e4       ??_C@_0CC@LOFJBMPP@answer?5requested?5from?5DEAD_ENGIN@ 0042d6e4     bpr:engine.obj
 0002:00001708       ??_C@_0BH@JMNNHFDE@ask_thread?3?5bad?5engine?$AA@ 0042d708     bpr:engine.obj
 0002:00001720       ??_C@_0BC@PEAOKHBH@BAD?5tsync_op?3?5?$CFd?6?$AA@ 0042d720     bpr:engine.obj
 0002:00001734       ??_C@_0CH@FECBCEOM@request?5to?5suspend?5main?5thread?5i@ 0042d734     bpr:engine.obj
 0002:0000175c       ??_C@_0CG@BAODONFH@request?5to?5resume?5main?5thread?5ig@ 0042d75c     bpr:engine.obj
 0002:00001784       ??_C@_0BE@PMHLEONP@3?04?05?5unimplemented?$AA@ 0042d784     bpr:engine.obj
 0002:00001798       ??_C@_0CG@OFKDFOIN@tsync?13?5error?3?5op?$DN?$CFd?0ts_no?$DN?$CFd?0ar@ 0042d798     bpr:engine.obj
 0002:000017c0       ??_C@_0DI@KCJJFNEN@should?5happen?5once?5each?3?5initial@ 0042d7c0     bpr:engine.obj
 0002:000017f8       ??_C@_0P@GIDPBEIK@value?5trailing?$AA@ 0042d7f8     bpr:engine.obj
 0002:00001808       ??_C@_05MHFJMGKG@unify?$AA@ 0042d808     bpr:engine.obj
 0002:00001810       ??_C@_0CA@LGCBDFFN@fcall?13?5builtin?5not?5implemented?$AA@ 0042d810     bpr:engine.obj
 0002:00001830       ??_C@_0CK@MIJFHGF@fatal?5error?5string2list?5in?5SOCK_@ 0042d830     bpr:engine.obj
 0002:0000185c       ??_C@_0CI@EPDMONLP@arg?51?5of?5untrail_to?11?5should?5be?5@ 0042d85c     bpr:engine.obj
 0002:00001884       ??_C@_0CJ@KMFIFFAF@bad?5args?5in?5get_engine_prop?$CINo?0A@ 0042d884     bpr:engine.obj
 0002:000018b0       ??_C@_0BI@BCNJLFIO@error?5in?5list_engines?11?$AA@ 0042d8b0     bpr:engine.obj
 0002:000018c8       ??_C@_0BI@EOKIIOGO@bad?5input?5in?5tsync_op?13?$AA@ 0042d8c8     bpr:engine.obj
 0002:000018e0       ??_C@_0BD@CKAJPEJ@ARGS?3?5?$CFld?5?$CFld?5?$CFld?6?$AA@ 0042d8e0     bpr:engine.obj
 0002:000018f4       ??_C@_0BE@KFOMLNGG@error?5in?5tsync_op?13?$AA@ 0042d8f4     bpr:engine.obj
 0002:00001908       ??_C@_0CG@IAJGJMEG@integer?5arg?5expected?5in?5join_thr@ 0042d908     bpr:engine.obj
 0002:00001930       ??_C@_0BL@OAGLCGIM@bad?5engine?5in?5ask_thread?12?$AA@ 0042d930     bpr:engine.obj
 0002:0000194c       ??_C@_0BL@OFHHPKJP@bad?5engine?5in?5ask_engine?12?$AA@ 0042d94c     bpr:engine.obj
 0002:00001968       ??_C@_0BE@FLBCDNAM@error?5in?5unix_pid?11?$AA@ 0042d968     bpr:engine.obj
 0002:0000197c       ??_C@_0BF@PAIJDAHP@error?5in?5unix_fork?11?$AA@ 0042d97c     bpr:engine.obj
 0002:00001994       ??_C@_0BD@NKGLIFDI@error?5in?5bb_list?12?$AA@ 0042d994     bpr:engine.obj
 0002:000019a8       ??_C@_0BN@OPJCLFFO@heap_overflow?5in?5copy_term?12?$AA@ 0042d9a8     bpr:engine.obj
 0002:000019c8       ??_C@_0O@KIFKLKPM@bad?5string?5op?$AA@ 0042d9c8     bpr:engine.obj
 0002:000019d8       ??_C@_0BP@PLMPOGIE@fatal?5error?5in?5STRING_OP?$CI4?0?4?4?$CJ?$AA@ 0042d9d8     bpr:engine.obj
 0002:000019f8       ??_C@_0CA@GOIADPDP@fatal?5error?5in?5STRING_OP?$CI3?0?4?4?4?$CJ?$AA@ 0042d9f8     bpr:engine.obj
 0002:00001a18       ??_C@_0CA@MIPHDEIL@fatal?5error?5in?5STRING_OP?$CI2?0?4?4?4?$CJ?$AA@ 0042da18     bpr:engine.obj
 0002:00001a38       ??_C@_0CA@LNHJFFBE@old?5sread?5not?5supported?5anymore?$AA@ 0042da38     bpr:engine.obj
 0002:00001a58       ??_C@_0BC@JLMAFMNA@unexpected?5NONDET?$AA@ 0042da58     bpr:engine.obj
 0002:00001a6c       ??_C@_0BH@DPJLIEHM@unexpected?5TRY_ME_ONLY?$AA@ 0042da6c     bpr:engine.obj
 0002:00001a84       ??_C@_0M@IIDJDDPG@TRY_ME_ELSE?$AA@ 0042da84     bpr:engine.obj
 0002:00001a90       ??_C@_0BJ@LAEMLNBC@unexpected?5push_variable?$AA@ 0042da90     bpr:engine.obj
 0002:00001aac       ??_C@_0CF@NHKCDLMJ@END_C_CHUNK?5should?5never?5be?5exec@ 0042daac     bpr:engine.obj
 0002:00001ad4       ??_C@_0BL@IHOLGNBJ@bad?5first?5arg?5in?5host2ip?12?$AA@ 0042dad4     bpr:engine.obj
 0002:00001af0       ??_C@_0BJ@DCEPMJDH@bad?5first?5arg?5in?5sleep?11?$AA@ 0042daf0     bpr:engine.obj
 0002:00001b0c       ??_C@_0BJ@BOCIIDNN@bad?5arg?52?5in?5sock2file?12?$AA@ 0042db0c     bpr:engine.obj
 0002:00001b28       ??_C@_0BN@MECHBFDI@bad?5first?5arg?5in?5sock2file?12?$AA@ 0042db28     bpr:engine.obj
 0002:00001b48       ??_C@_0BN@NAHFBO@bad?5first?5arg?5in?5file2sock?12?$AA@ 0042db48     bpr:engine.obj
 0002:00001b68       ??_C@_0CH@GICKHGDB@bad?5non?9list?5arg?52?5in?5sock_write@ 0042db68     bpr:engine.obj
 0002:00001b90       ??_C@_0CF@MOPLBJIL@unexpected?5arg?52?5in?5sock_write?$CIl@ 0042db90     bpr:engine.obj
 0002:00001bb8       ??_C@_0CP@EHMGJDOH@integer?5first?5arg?5expected?5in?5so@ 0042dbb8     bpr:engine.obj
 0002:00001be8       ??_C@_0CO@GPDIIDMM@integer?53?9rd?5arg?5expected?5in?5soc@ 0042dbe8     bpr:engine.obj
 0002:00001c18       ??_C@_0CB@DAMPPDMM@bad?5first?5arg?5in?5sock_read?$CIln?$CJ?12@ 0042dc18     bpr:engine.obj
 0002:00001c3c       ??_C@_0CA@OFDIOJI@bad?5first?5arg?5in?5close_socket?11?$AA@ 0042dc3c     bpr:engine.obj
 0002:00001c5c       ??_C@_0BN@PCKHPNLL@bad?5first?5arg?5in?5peer_port?12?$AA@ 0042dc5c     bpr:engine.obj
 0002:00001c7c       ??_C@_0BN@JDACKHPM@bad?5first?5arg?5in?5peer_addr?12?$AA@ 0042dc7c     bpr:engine.obj
 0002:00001c9c       ??_C@_0CA@MGACNCEH@bad?5second?5arg?5in?5new_service?13?$AA@ 0042dc9c     bpr:engine.obj
 0002:00001cbc       ??_C@_0BP@NHBDMAFI@bad?5first?5arg?5in?5new_service?13?$AA@ 0042dcbc     bpr:engine.obj
 0002:00001cdc       ??_C@_0BO@OPGGOAG@bad?5first?5arg?5in?5new_server?12?$AA@ 0042dcdc     bpr:engine.obj
 0002:00001cfc       ??_C@_0CH@JLKFDJNK@bad?5host?5name?5in?5arg?51?5of?5new_se@ 0042dcfc     bpr:engine.obj
 0002:00001d24       ??_C@_0BP@GFLJDAK@bad?5second?5arg?5in?5new_client?13?$AA@ 0042dd24     bpr:engine.obj
 0002:00001d44       ??_C@_0BJ@GFDHHNNK@bad?5first?5arg?5in?5fsize?11?$AA@ 0042dd44     bpr:engine.obj
 0002:00001d60       ??_C@_0BK@MINACFOE@bad?5first?5arg?5in?5fflush?11?$AA@ 0042dd60     bpr:engine.obj
 0002:00001d7c       ??_C@_0CD@GOEKJLMG@byte?5in?50?4?4255?5expected?5in?5fputc@ 0042dd7c     bpr:engine.obj
 0002:00001da0       ??_C@_0BG@DEMKKJAC@file?5error?5in?5fputc?11?$AA@ 0042dda0     bpr:engine.obj
 0002:00001db8       ??_C@_0BJ@JBLNBHNJ@bad?5first?5arg?5in?5fputc?12?$AA@ 0042ddb8     bpr:engine.obj
 0002:00001dd4       ??_C@_0BJ@DABCLHAC@bad?5first?5arg?5in?5fgetc?12?$AA@ 0042ddd4     bpr:engine.obj
 0002:00001df0       ??_C@_0CJ@NKGJFKHF@bad?5data?5or?5heap_overflow?5in?5cde@ 0042ddf0     bpr:engine.obj
 0002:00001e1c       ??_C@_0CM@NBICNKMK@bad?5data?5or?5heap_overflow?5in?5cme@ 0042de1c     bpr:engine.obj
 0002:00001e48       ??_C@_0DM@EAAFBHNF@large?5or?5cyclic?51st?5arg?5in?5deep_@ 0042de48     bpr:engine.obj
 0002:00001e84       ??_C@_0CK@IANFFGNM@deep_hash?8s?53nd?5arg?5?$CImod?$CJ?5must?5b@ 0042de84     bpr:engine.obj
 0002:00001eb0       ??_C@_0DB@KKPNJCHL@deep_hash?8s?52nd?5arg?5?$CIrec?4?5level?$CJ@ 0042deb0     bpr:engine.obj
 0002:00001ee4       ??_C@_0CE@DEDAKFBO@arg?13?8s?51st?5arg?5must?5be?5in?51?4?4ar@ 0042dee4     bpr:engine.obj
 0002:00001f08       ??_C@_0BP@PIJIHPDP@arg?13?8s?52nd?5arg?5must?5be?5nonvar?$AA@ 0042df08     bpr:engine.obj
 0002:00001f28       ??_C@_0CA@NFCHOHFJ@arg?13?8s?51st?5arg?5must?5be?5integer?$AA@ 0042df28     bpr:engine.obj
 0002:00001f48       ??_C@_0BK@DGBBHJGD@integer?5expected?5in?5put?11?$AA@ 0042df48     bpr:engine.obj
 0002:00001f64       ??_C@_0N@EDEAEALJ@divided?5by?50?$AA@ 0042df64     bpr:engine.obj
 0002:00001f74       ??_C@_0O@CBEJIEKE@mod?50?5invalid?$AA@ 0042df74     bpr:engine.obj
 0002:00001f84       ??_C@_07EFFLEODG@?$CFs?3?5?$CFld?$AA@ 0042df84     bpr:engine.obj
 0002:00001f8c       ??_C@_0CH@LLJIOCAK@unexpected?5engine?5error?5in?5inter@ 0042df8c     bpr:engine.obj
 0002:00001fb4       ??_C@_0BG@DHPMNAOG@string?5table?5overflow?$AA@ 0042dfb4     bpr:sym.obj
 0002:00001fcc       ??_C@_0CD@GADLEGAB@symbol?5hashing?5table?5?$CIalmost?$CJ?5fu@ 0042dfcc     bpr:sym.obj
 0002:00001ff0       ??_C@_0BE@IDADGMOM@?$CFld?5symbols?0?5?$CFs?$CB?$CB?$CB?5?$AA@ 0042dff0     bpr:sym.obj
 0002:00002004       ??_C@_0O@HPGGIJEI@unexpected?$CB?$CB?$CB?$AA@ 0042e004     bpr:sym.obj
 0002:00002014       ??_C@_05KHPJABPL@?$CI?$CF75?$CJ?$AA@ 0042e014     bpr:sym.obj
 0002:0000201c       ??_C@_0BF@NLMJGCCD@arity?5limit?5exceeded?$AA@ 0042e01c     bpr:sym.obj
 0002:00002034       ??_C@_06OGIBDCOL@?$CFs?1?$CFld?$AA@ 0042e034     bpr:sym.obj
 0002:0000203c       ??_C@_0BM@ILODNDAJ@hashing?5table?5?$CIalmost?$CJ?5full?$AA@ 0042e03c     bpr:dict.obj
 0002:00002058       ??_C@_0BC@CMNHBGAJ@?$CFld?5bytes?0?5?$CFs?$CB?$CB?$CB?5?$AA@ 0042e058     bpr:dict.obj
 0002:0000206c       ??_C@_05LPGKOOC@?$CI75?$CF?$CJ?$AA@ 0042e06c     bpr:dict.obj
 0002:00002074       ??_C@_0CE@OLOBIIND@hdef?13?5required?5before?5using?5hse@ 0042e074     bpr:dict.obj
 0002:00002098       ??_C@_0BA@HJGHDCKK@culprit?9?$DOhindex?$AA@ 0042e098     bpr:dict.obj
 0002:000020a8       ??_C@_09HHCNIID@COPY_KEYS?$AA@ 0042e0a8     bpr:dict.obj
 0002:000020b4       ??_C@_0BH@FHAAEEOJ@htable?5full?5in?5hash?5op?$AA@ 0042e0b4     bpr:dict.obj
 0002:000020cc       ??_C@_0BM@JNLOEFCN@hash?5op?5on?5protected?5object?$AA@ 0042e0cc     bpr:dict.obj
 0002:000020e8       ??_C@_0BN@PKHLKAEG@Stamp?5found?5?$CFd?0?5expected?5?$CFd?6?$AA@ 0042e0e8     bpr:dict.obj
 0002:00002108       ??_C@_0CC@PGGEBKLO@arg?52?5of?5hash?5op?5should?5be?5nonva@ 0042e108     bpr:dict.obj
 0002:0000212c       ??_C@_0CC@LCMFDPKG@arg?51?5of?5hash?5op?5should?5be?5nonva@ 0042e12c     bpr:dict.obj
 0002:00002150       ??_C@_0BO@FANADJAP@unsafe?5data?5in?5def?13?5or?5set?13?$AA@ 0042e150     bpr:dict.obj
 0002:00002170       ??_C@_0CJ@DEFDAKJI@bad?5stamp?5or?5empty?5slot?5in?5set?13@ 0042e170     bpr:dict.obj
 0002:0000219c       ??_C@_0CE@NLFKDJAM@def?13?5expected?5before?5set?13?5or?5r@ 0042e19c     bpr:dict.obj
 0002:000021c0       ??_C@_0BP@CEIMMBFB@unable?5to?5override?5with?5itself?$AA@ 0042e1c0     bpr:dict.obj
 0002:000021e0       ??_C@_0BJ@OMAODBLO@bad?5option?5in?5override?13?$AA@ 0042e1e0     bpr:dict.obj
 0002:000021fc       ??_C@_0DL@MEFBIODE@unable?5to?5override?0?5maybe?5used?5a@ 0042e1fc     bpr:dict.obj
 0002:00002238       ??_C@_0CJ@CCEMHDOM@arg?51?5of?5of?5override?13?5should?5be@ 0042e238     bpr:dict.obj
 0002:00002264       ??_C@_07MFOEFAAB@?$CK?$CK?$CK?5?$CFs?6?$AA@ 0042e264     bpr:dict.obj
 0002:0000226c       ??_C@_0BP@OABFGBJK@override?5can?5break?5gc?5and?5bbgc?$AA@ 0042e26c     bpr:dict.obj
 0002:0000228c       ??_C@_0CK@KJFIEHGO@has?5no?5compiled?5definition?3?5left@ 0042e28c     bpr:load.obj
 0002:000022b8       ??_C@_0BP@JPFOKBMD@?$CBinC?3?5unexpected?5BEGIN_C_CHUNK?$AA@ 0042e2b8     bpr:load.obj
 0002:000022d8       ??_C@_0N@KGDDEECA@opcode?$DP?$DN?$CFld?6?$AA@ 0042e2d8     bpr:load.obj
 0002:000022e8       ??_C@_0BI@KEIGGJLA@unexpected?5integer?$DN?$CFld?6?$AA@ 0042e2e8     bpr:load.obj
 0002:00002300       ??_C@_07MNNBFCEI@?$CFs?1?$CFld?6?$AA@ 0042e300     bpr:load.obj
 0002:00002308       ??_C@_0BG@INJFAOFD@expected?5END_OF_CHUNK?$AA@ 0042e308     bpr:load.obj
 0002:00002320       ??_C@_09OLBFBHOO@insert_op?$AA@ 0042e320     bpr:load.obj
 0002:0000232c       ??_C@_0BH@DCOCMCNK@unexpected?5END_C_CHUNK?$AA@ 0042e32c     bpr:load.obj
 0002:00002344       ??_C@_0BJ@GJGDFOIO@unexpected?5BEGIN_C_CHUNK?$AA@ 0042e344     bpr:load.obj
 0002:00002360       ??_C@_0BF@FCOFIBGK@not?5enough?5registers?$AA@ 0042e360     bpr:load.obj
 0002:00002378       ??_C@_0DO@HGDNFGEH@declare?5it?5multifile?5or?5disconti@ 0042e378     bpr:load.obj
 0002:000023b8       ??_C@_0EA@HKLJGOJE@?$FL?$CFlu?$FN?5?$CFs?1?$CFlu?5?$DM?$DNpredicate?5leads?5o@ 0042e3b8     bpr:load.obj
 0002:000023f8       ??_C@_0BJ@PJAKLANF@bad?5code?5in?5backpatching?$AA@ 0042e3f8     bpr:load.obj
 0002:00002414       ??_C@_0BN@GAECLDEH@Invalid?5operator?5declaration?$AA@ 0042e414     bpr:load.obj
 0002:00002434       ??_C@_0CJ@NABFCGDP@opcount?$DN?$CFld?5g?4timestamp?$DN?$CFd?5op?3?5?$CF@ 0042e434     bpr:load.obj
 0002:00002460       ??_C@_07LOAHCGEB@?$CFld?$CFs?$CFs?$AA@ 0042e460     bpr:load.obj
 0002:00002468       ??_C@_0BL@BHPFGAP@unable?5to?5load?5kernel?5file?$AA@ 0042e468     bpr:load.obj
 0002:00002484       ??_C@_0P@LJOCCCLG@file?5not?5found?$AA@ 0042e484     bpr:load.obj
 0002:00002494       ??_C@_04IFHEJEN@?$DP?$DP?$DP?5?$AA@ 0042e494     bpr:load.obj
 0002:0000249c       ??_C@_02JDPG@rb?$AA@       0042e49c     bpr:load.obj
 0002:000024a0       ??_C@_0BF@JOAJABMC@load?11?3?5bad?5argument?$AA@ 0042e4a0     bpr:load.obj
 0002:000024b8       ??_C@_0DA@JLIEHGDN@Finished?5loading?5?$CFs?5C?9code?5?$CI?$CFld?5@ 0042e4b8     bpr:load.obj
 0002:000024e8       ??_C@_0BK@KCPCOHMJ@invalid?5c_chunk?3?5bad?5size?$AA@ 0042e4e8     bpr:load.obj
 0002:00002504       ??_C@_0P@EJFMDLGA@?$HL?$CFd?0?$CFd?0?$CFd?0?$CFs?$HN?6?$AA@ 0042e504     bpr:load.obj
 0002:00002514       ??_C@_0DA@JGICAOFM@instruction?$DN?$FL?$CFld?$FN?5size?$CIfound?$DN?$CFd?0@ 0042e514     bpr:load.obj
 0002:00002544       ??_C@_06FHFOAHML@system?$AA@ 0042e544     bpr:load.obj
 0002:0000254c       ??_C@_03PKDKJOFG@?4bp?$AA@ 0042e54c     bpr:load.obj
 0002:00002550       ??_C@_0BA@KIJFAAGL@is_compiled_1?$CI?$CJ?$AA@ 0042e550     bpr:wam.obj
 0002:00002560       ??_C@_0L@CCDGOCLJ@atomic_1?$CI?$CJ?$AA@ 0042e560     bpr:wam.obj
 0002:0000256c       ??_C@_0M@BPKDBKHJ@integer_1?$CI?$CJ?$AA@ 0042e56c     bpr:wam.obj
 0002:00002578       ??_C@_0L@KDEPMKAH@nonvar_1?$CI?$CJ?$AA@ 0042e578     bpr:wam.obj
 0002:00002584       ??_C@_07BLAFBMHH@var_1?$CI?$CJ?$AA@ 0042e584     bpr:wam.obj
 0002:0000258c       ??_C@_07OAMKDADK@cnl_1?$CI?$CJ?$AA@ 0042e58c     bpr:wam.obj
 0002:00002594       ??_C@_0L@JIPIFFLE@cwrite_1?$CI?$CJ?$AA@ 0042e594     bpr:wam.obj
 0002:000025a0       ??_C@_08HDKGFNEF@fail_0?$CI?$CJ?$AA@ 0042e5a0     bpr:wam.obj
 0002:000025ac       ??_C@_08NEECKLKA@symcat_3?$AA@ 0042e5ac     bpr:wam.obj
 0002:000025b8       ??_C@_06LFNHPCDH@lval_3?$AA@ 0042e5b8     bpr:wam.obj
 0002:000025c0       ??_C@_05NFGPKKHL@val_3?$AA@ 0042e5c0     bpr:wam.obj
 0002:000025c8       ??_C@_07NLPKBNJG@set_3?$CI?$CJ?$AA@ 0042e5c8     bpr:wam.obj
 0002:000025d0       ??_C@_06DPHHBNIE@rm_2?$CI?$CJ?$AA@ 0042e5d0     bpr:wam.obj
 0002:000025d8       ??_C@_07ODJKIGDE@def_3?$CI?$CJ?$AA@ 0042e5d8     bpr:wam.obj
 0002:000025e0       ??_C@_0P@GNKFOFFL@change_arg_3?$CI?$CJ?$AA@ 0042e5e0     bpr:wam.obj
 0002:000025f0       ??_C@_0L@DBLLPOCP@setarg_3?$CI?$CJ?$AA@ 0042e5f0     bpr:wam.obj
 0002:000025fc       ??_C@_05DLPNPCAL@arg_3?$AA@ 0042e5fc     bpr:wam.obj
 0002:00002604       ??_C@_0L@CFIHPBAO@compare0_3?$AA@ 0042e604     bpr:wam.obj
 0002:00002610       ??_C@_07JOFCFJCM@l_neg_3?$AA@ 0042e610     bpr:wam.obj
 0002:00002618       ??_C@_0M@MHFGFLFN@int_only_op?$AA@ 0042e618     bpr:wam.obj
 0002:00002624       ??_C@_02FDNJECIE@?$CB?$DN?$AA@ 0042e624     bpr:wam.obj
 0002:00002628       ??_C@_02EHCHHCKH@?$DM?$DN?$AA@ 0042e628     bpr:wam.obj
 0002:0000262c       ??_C@_06OCEFAPDJ@rel_op?$AA@ 0042e62c     bpr:wam.obj
 0002:00002634       ??_C@_08JBHEALII@put0_1?$CI?$CJ?$AA@ 0042e634     bpr:wam.obj
 0002:00002640       ??_C@_06CJHPBMJC@get0_1?$AA@ 0042e640     bpr:wam.obj
 0002:00002648       ??_C@_08OAJNHLKO@random_1?$AA@ 0042e648     bpr:wam.obj
 0002:00002654       ??_C@_06FAGNPCND@fdiv_3?$AA@ 0042e654     bpr:wam.obj
 0002:0000265c       ??_C@_05JEKFPFNB@div_3?$AA@ 0042e65c     bpr:wam.obj
 0002:00002664       ??_C@_01FGNFDNOH@?$CF?$AA@ 0042e664     bpr:wam.obj
 0002:00002668       ??_C@_08GEJOHICJ@arith_op?$AA@ 0042e668     bpr:wam.obj
 0002:00002674       ??_C@_0BC@PLGINGKC@prolog?3c_check_av?$AA@ 0042e674     bpr:wam.obj
 0002:00002688       ??_C@_0BA@FLHCNNH@prolog?3c_opcode?$AA@ 0042e688     bpr:wam.obj
 0002:00002698       ??_C@_0BC@PFHLIHBK@prolog?3c_check_iv?$AA@ 0042e698     bpr:wam.obj
 0002:000026ac       ??_C@_09ONCKOHGM@get_cut?$CI?$CJ?$AA@ 0042e6ac     bpr:wam.obj
 0002:000026b8       ??_C@_09IEJIDPIM@put_cut?$CI?$CJ?$AA@ 0042e6b8     bpr:wam.obj
 0002:000026c4       ??_C@_08HFEFIAOL@move_reg?$AA@ 0042e6c4     bpr:wam.obj
 0002:000026d0       ??_C@_0BA@GHEGCLH@push_variable?$CI?$CJ?$AA@ 0042e6d0     bpr:wam.obj
 0002:000026e0       ??_C@_0O@GPICHIAP@prolog?3c_skip?$AA@ 0042e6e0     bpr:wam.obj
 0002:000026f0       ??_C@_0L@GPNDJELO@c_trace?$CI?$CC?5?$AA@ 0042e6f0     bpr:wam.obj
 0002:000026fc       ??_C@_03BAGICLI@?5?$CC?$CJ?$AA@ 0042e6fc     bpr:wam.obj
 0002:00002700       ??_C@_0O@DOBIEBCO@unify_integer?$AA@ 0042e700     bpr:wam.obj
 0002:00002710       ??_C@_0BL@PDALDCPG@prolog?3c_aux_unify_integer?$AA@ 0042e710     bpr:wam.obj
 0002:0000272c       ??_C@_0O@DKMDIGMO@write_integer?$AA@ 0042e72c     bpr:wam.obj
 0002:0000273c       ??_C@_0BL@PHNAPFBG@prolog?3c_aux_write_integer?$AA@ 0042e73c     bpr:wam.obj
 0002:00002758       ??_C@_0M@ILICMLOP@get_integer?$AA@ 0042e758     bpr:wam.obj
 0002:00002764       ??_C@_0BJ@JPIDIGBG@prolog?3c_aux_get_integer?$AA@ 0042e764     bpr:wam.obj
 0002:00002780       ??_C@_0M@FNPEALFH@put_integer?$AA@ 0042e780     bpr:wam.obj
 0002:0000278c       ??_C@_0BJ@EJPFEGKO@prolog?3c_aux_put_integer?$AA@ 0042e78c     bpr:wam.obj
 0002:000027a8       ??_C@_0N@PKBBKMDD@load_integer?$AA@ 0042e7a8     bpr:wam.obj
 0002:000027b8       ??_C@_0BK@DOGEOHMG@prolog?3c_aux_load_integer?$AA@ 0042e7b8     bpr:wam.obj
 0002:000027d4       ??_C@_0BC@JGPNOBNJ@v0248c_comp?4pl162?$AA@ 0042e7d4     bpr:wam.obj
 0002:000027e8       ??_C@_0P@KEDMOHEM@prolog?3c_wvoid?$AA@ 0042e7e8     bpr:wam.obj
 0002:000027f8       ??_C@_0BB@IAKJLIOJ@prolog?3oldH_newP?$AA@ 0042e7f8     bpr:wam.obj
 0002:0000280c       ??_C@_0BB@DBPMFDEE@prolog?3newH_newP?$AA@ 0042e80c     bpr:wam.obj
 0002:00002820       ??_C@_0BB@NOKBMDPK@prolog?3oldH_oldP?$AA@ 0042e820     bpr:wam.obj
 0002:00002834       ??_C@_0BB@GPPECIFH@prolog?3newH_oldP?$AA@ 0042e834     bpr:wam.obj
 0002:00002848       ??_C@_0M@LPFBHHDA@prolog?3newP?$AA@ 0042e848     bpr:wam.obj
 0002:00002854       ??_C@_0BD@LJIJDBMF@prolog?3c_chunk_end?$AA@ 0042e854     bpr:wam.obj
 0002:00002868       ??_C@_0BF@CDELICHJ@prolog?3c_chunk_begin?$AA@ 0042e868     bpr:wam.obj
 0002:00002880       ??_C@_09MBNFJLBJ@fun_arity?$AA@ 0042e880     bpr:wam.obj
 0002:0000288c       ??_C@_0L@KPDNFFJF@fun_symbol?$AA@ 0042e88c     bpr:wam.obj
 0002:00002898       ??_C@_0L@HMHBBJFD@unexpected?$AA@ 0042e898     bpr:wam.obj
 0002:000028a4       ??_C@_0BC@CCOBMNKJ@prolog?3c_find_fun?$AA@ 0042e8a4     bpr:wam.obj
 0002:000028b8       ??_C@_0BC@KADPBCJJ@prolog?3get_offset?$AA@ 0042e8b8     bpr:wam.obj
 0002:000028cc       ??_C@_0BC@OCPPBANJ@prolog?3new_offset?$AA@ 0042e8cc     bpr:wam.obj
 0002:000028e0       ??_C@_0BA@CEJEGDGB@prolog?3c_check0?$AA@ 0042e8e0     bpr:wam.obj
 0002:000028f0       ??_C@_0P@GBJPHFP@prolog?3c_check?$AA@ 0042e8f0     bpr:wam.obj
 0002:00002900       ??_C@_0L@OCGOIGGA@?$HL255?00?00?0?$CC?$AA@ 0042e900     bpr:wam.obj
 0002:0000290c       ??_C@_08GFELMMBG@?$CDdefine?5?$AA@ 0042e90c     bpr:wam.obj
 0002:00002918       ??_C@_02LJALELK@?$CJ?$DL?$AA@ 0042e918     bpr:wam.obj
 0002:0000291c       ??_C@_0O@KMPLOKPE@_size?$DNsizeof?$CI?$AA@ 0042e91c     bpr:wam.obj
 0002:0000292c       ??_C@_08HFBPBMDH@bp_long?5?$AA@ 0042e92c     bpr:wam.obj
 0002:00002938       ??_C@_04HLBCBIPM@?$CC?$HN?$HN?$DL?$AA@ 0042e938     bpr:wam.obj
 0002:00002940       ??_C@_0CN@MGPDCGED@?1?$CK?5please?5do?5not?5edit?3?5generated@ 0042e940     bpr:wam.obj
 0002:00002970       ??_C@_06MEFHGPEA@?$FL?$FN?5?$DN?5?$HL?$AA@ 0042e970     bpr:wam.obj
 0002:00002978       ??_C@_0BB@MFCPPFFE@struct?5bp_instr?5?$AA@ 0042e978     bpr:wam.obj
 0002:0000298c       ??_C@_0L@IEHNBJIO@?$CDinclude?5?$CC?$AA@ 0042e98c     bpr:wam.obj
 0002:00002998       ??_C@_0BE@BOKNJIMC@?$CDinclude?5?$CCc_defs?4h?$CC?$AA@ 0042e998     bpr:wam.obj
 0002:000029ac       ??_C@_0BE@GHICNGJM@?$CDinclude?5?$CCglobal?4h?$CC?$AA@ 0042e9ac     bpr:wam.obj
 0002:000029c0       ??_C@_0BC@OIEPDFJC@v0439c_comp?4pl161?$AA@ 0042e9c0     bpr:wam.obj
 0002:000029d4       ??_C@_0O@CBPCHDFJ@prolog?3c_char?$AA@ 0042e9d4     bpr:wam.obj
 0002:000029e4       ??_C@_0BC@CMMHLMBB@v0813c_comp?4pl160?$AA@ 0042e9e4     bpr:wam.obj
 0002:000029f8       ??_C@_0BA@HJBCJPMB@prolog?3c_string?$AA@ 0042e9f8     bpr:wam.obj
 0002:00002a08       ??_C@_0O@LNGBHPFO@prolog?3c_root?$AA@ 0042ea08     bpr:wam.obj
 0002:00002a18       ??_C@_06BOFENIGL@wam_bp?$AA@ 0042ea18     bpr:wam.obj
 0002:00002a20       ??_C@_0BI@FECMPKEJ@prolog?3c_decorate_file0?$AA@ 0042ea20     bpr:wam.obj
 0002:00002a38       ??_C@_0BC@IJGLJFIN@v0715c_comp?4pl159?$AA@ 0042ea38     bpr:wam.obj
 0002:00002a4c       ??_C@_0BC@OMCHJHLG@v0264c_comp?4pl158?$AA@ 0042ea4c     bpr:wam.obj
 0002:00002a60       ??_C@_0BB@OKFDGOMP@v051c_comp?4pl157?$AA@ 0042ea60     bpr:wam.obj
 0002:00002a74       ??_C@_0BC@EAGJIPCA@prolog?3c_spec_end?$AA@ 0042ea74     bpr:wam.obj
 0002:00002a88       ??_C@_0O@IAGPBAGH@prolog?3c_spec?$AA@ 0042ea88     bpr:wam.obj
 0002:00002a98       ??_C@_02GFKGLGEA@?$HN?0?$AA@ 0042ea98     bpr:wam.obj
 0002:00002a9c       ??_C@_09PFBLIMIL@?0?$CIvoid?5?$CK?$CJ?$AA@ 0042ea9c     bpr:wam.obj
 0002:00002aa8       ??_C@_03LBJINHPL@?$CC?$HN?0?$AA@ 0042eaa8     bpr:wam.obj
 0002:00002aac       ??_C@_0BG@BPLPCHIL@prolog?3patch_specials?$AA@ 0042eaac     bpr:wam.obj
 0002:00002ac4       ??_C@_02JGFLNPEJ@?0?$CC?$AA@ 0042eac4     bpr:wam.obj
 0002:00002ac8       ??_C@_0P@CDHLPAIG@prolog?3c_trace?$AA@ 0042eac8     bpr:wam.obj
 0002:00002ad8       ??_C@_0O@IECEFMCE@prolog?3wchunk?$AA@ 0042ead8     bpr:wam.obj
 0002:00002ae8       ??_C@_0BC@JPMJOBEG@prolog?3make_bcode?$AA@ 0042eae8     bpr:wam.obj
 0002:00002afc       ??_C@_0P@NPNJDFDH@prolog?3c_instr?$AA@ 0042eafc     bpr:wam.obj
 0002:00002b0c       ??_C@_0BC@DOFCMCCA@prolog?3make_hcode?$AA@ 0042eb0c     bpr:wam.obj
 0002:00002b20       ??_C@_0BC@FEJFDCOD@prolog?3make_ccode?$AA@ 0042eb20     bpr:wam.obj
 0002:00002b34       ??_C@_07GKGAGMNN@project?$AA@ 0042eb34     bpr:wam.obj
 0002:00002b3c       ??_C@_09FDPHLPEA@in_module?$AA@ 0042eb3c     bpr:wam.obj
 0002:00002b48       ??_C@_0P@JLFKHHEL@unable_to_make?$AA@ 0042eb48     bpr:wam.obj
 0002:00002b58       ??_C@_0CC@ECFGMPIG@?$CF?5translating?5multifile?5predicat@ 0042eb58     bpr:wam.obj
 0002:00002b7c       ??_C@_0O@LPDGEFIC@v0751co?4pl153?$AA@ 0042eb7c     bpr:wam.obj
 0002:00002b8c       ??_C@_0O@IJJABHPI@v0419co?4pl148?$AA@ 0042eb8c     bpr:wam.obj
 0002:00002b9c       ??_C@_01EFFIKLCJ@n?$AA@    0042eb9c     bpr:wam.obj
 0002:00002ba0       ??_C@_09FGGGNFFI@DEFINITE?3?$AA@ 0042eba0     bpr:wam.obj
 0002:00002bac       ??_C@_09HMOHPDPH@EXPANDED?3?$AA@ 0042ebac     bpr:wam.obj
 0002:00002bb8       ??_C@_0BA@HEBHLPKD@c_threshold_min?$AA@ 0042ebb8     bpr:wam.obj
 0002:00002bc8       ??_C@_0BA@GGJMFLMM@c_threshold_max?$AA@ 0042ebc8     bpr:wam.obj
 0002:00002bd8       ??_C@_06MCNKBKIO@100000?$AA@ 0042ebd8     bpr:wam.obj
 0002:00002be0       ??_C@_0BJ@KLOHGBFM@BinWAM?5intermediate?5code?$AA@ 0042ebe0     bpr:wam.obj
 0002:00002bfc       ??_C@_04ECFCMKAC@?4asm?$AA@ 0042ebfc     bpr:wam.obj
 0002:00002c04       ??_C@_0BE@NGMPIAJ@prolog?3make_include?$AA@ 0042ec04     bpr:wam.obj
 0002:00002c18       ??_C@_0O@OFBBKMIB@v0380co?4pl156?$AA@ 0042ec18     bpr:wam.obj
 0002:00002c28       ??_C@_0BE@OGKNDMJB@prolog?3make_static0?$AA@ 0042ec28     bpr:wam.obj
 0002:00002c3c       ??_C@_09JEMLOBIG@unable_to?$AA@ 0042ec3c     bpr:wam.obj
 0002:00002c48       ??_C@_0O@OPBPJFMI@dyn_compiling?$AA@ 0042ec48     bpr:wam.obj
 0002:00002c58       ??_C@_0BD@HJGNPDBL@overriding_builtin?$AA@ 0042ec58     bpr:wam.obj
 0002:00002c6c       ??_C@_03CLCAEGCJ@new?$AA@  0042ec6c     bpr:wam.obj
 0002:00002c70       ??_C@_0BJ@EAIOGCCA@prolog?3override_builtins?$AA@ 0042ec70     bpr:wam.obj
 0002:00002c8c       ??_C@_0BJ@OHKKLFNF@prolog?3make_new_builtins?$AA@ 0042ec8c     bpr:wam.obj
 0002:00002ca8       ??_C@_08OCOMCJAJ@builtins?$AA@ 0042eca8     bpr:wam.obj
 0002:00002cb4       ??_C@_0BB@MDJKNICJ@disabling_static?$AA@ 0042ecb4     bpr:wam.obj
 0002:00002cc8       ??_C@_0BI@EIPLMIBJ@prolog?3refresh_builtins?$AA@ 0042ecc8     bpr:wam.obj
 0002:00002ce0       ??_C@_02HMLNHFGD@?4c?$AA@  0042ece0     bpr:wam.obj
 0002:00002ce4       ??_C@_06KJGMIBDJ@binpro?$AA@ 0042ece4     bpr:wam.obj
 0002:00002cec       ??_C@_0BI@BLBGOOLM@bin_prolog_with_cparser?$AA@ 0042ecec     bpr:wam.obj
 0002:00002d04       ??_C@_0P@LCILENOL@prolog?3cparser?$AA@ 0042ed04     bpr:wam.obj
 0002:00002d14       ??_C@_0BB@BLNEANPE@prolog?3fact2rule?$AA@ 0042ed14     bpr:wam.obj
 0002:00002d28       ??_C@_0BG@INEJNGMG@prolog?3preprocess_def?$AA@ 0042ed28     bpr:wam.obj
 0002:00002d40       ??_C@_0BC@LCBDBNHI@prolog?3preprocess?$AA@ 0042ed40     bpr:wam.obj
 0002:00002d54       ??_C@_08JDDAOIOB@quick_bp?$AA@ 0042ed54     bpr:wam.obj
 0002:00002d60       ??_C@_0BB@GDOBOGEF@prolog?3quickcomp?$AA@ 0042ed60     bpr:wam.obj
 0002:00002d74       ??_C@_05EAFKHBAM@begin?$AA@ 0042ed74     bpr:wam.obj
 0002:00002d7c       ??_C@_09KONCINPA@including?$AA@ 0042ed7c     bpr:wam.obj
 0002:00002d88       ??_C@_0BF@GCIBFCPN@prolog?3compile_file1?$AA@ 0042ed88     bpr:wam.obj
 0002:00002da0       ??_C@_0BF@LPKMCGMO@prolog?3include_file0?$AA@ 0042eda0     bpr:wam.obj
 0002:00002db8       ??_C@_0M@GOJMHCCM@$include_db?$AA@ 0042edb8     bpr:wam.obj
 0002:00002dc4       ??_C@_0BG@HDNDJCI@already_included_file?$AA@ 0042edc4     bpr:wam.obj
 0002:00002ddc       ??_C@_09GAPBIAIP@$included?$AA@ 0042eddc     bpr:wam.obj
 0002:00002de8       ??_C@_0O@MFGHHMJE@v0670co?4pl155?$AA@ 0042ede8     bpr:wam.obj
 0002:00002df8       ??_C@_0CI@PNIJCBHA@?$CF?5?$CB?$CB?$CB?5action?5delayed?5after?5compi@ 0042edf8     bpr:wam.obj
 0002:00002e20       ??_C@_0BC@DIBPOPLD@prolog?3get_cmd_no?$AA@ 0042ee20     bpr:wam.obj
 0002:00002e34       ??_C@_0BC@FOBNOAPI@prolog?3cmd2clause?$AA@ 0042ee34     bpr:wam.obj
 0002:00002e48       ??_C@_0BA@BKOMHHDJ@translating_cmd?$AA@ 0042ee48     bpr:wam.obj
 0002:00002e58       ??_C@_0O@KNCLOBJH@v0620co?4pl154?$AA@ 0042ee58     bpr:wam.obj
 0002:00002e68       ??_C@_0O@IMOPGONM@ensure_loaded?$AA@ 0042ee68     bpr:wam.obj
 0002:00002e78       ??_C@_0BE@FKJOOIJP@prolog?3include_file?$AA@ 0042ee78     bpr:wam.obj
 0002:00002e8c       ??_C@_0BG@BGGBHMHA@prolog?3translate_cmd0?$AA@ 0042ee8c     bpr:wam.obj
 0002:00002ea4       ??_C@_0BK@CHAGDBIF@prolog?3is_asserted_clause?$AA@ 0042eea4     bpr:wam.obj
 0002:00002ec0       ??_C@_07JFCMDEDH@delayed?$AA@ 0042eec0     bpr:wam.obj
 0002:00002ec8       ??_C@_0BH@LKBGFBL@translating_delayed_to?$AA@ 0042eec8     bpr:wam.obj
 0002:00002ee0       ??_C@_0BK@IMOGNMJH@prolog?3translate_delayed1?$AA@ 0042eee0     bpr:wam.obj
 0002:00002efc       ??_C@_0CH@HALGLHKP@?$CF?5starting?5translate_delayed_mul@ 0042eefc     bpr:wam.obj
 0002:00002f24       ??_C@_0P@OMCKIAMI@v01005co?4pl152?$AA@ 0042ef24     bpr:wam.obj
 0002:00002f34       ??_C@_0BF@CLGKAFHD@prolog?3translate_cmd?$AA@ 0042ef34     bpr:wam.obj
 0002:00002f4c       ??_C@_0BA@ECJPHFNP@prolog?3get_pred?$AA@ 0042ef4c     bpr:wam.obj
 0002:00002f5c       ??_C@_0M@DAGJHEDK@prolog?3radd?$AA@ 0042ef5c     bpr:wam.obj
 0002:00002f68       ??_C@_04DPPOAFIB@over?$AA@ 0042ef68     bpr:wam.obj
 0002:00002f70       ??_C@_04GOOOJOPP@left?$AA@ 0042ef70     bpr:wam.obj
 0002:00002f78       ??_C@_0BE@KCMDGEEH@prolog?3get_a_clause?$AA@ 0042ef78     bpr:wam.obj
 0002:00002f8c       ??_C@_0P@PHDBAAAJ@prolog?3rclause?$AA@ 0042ef8c     bpr:wam.obj
 0002:00002f9c       ??_C@_0BH@IMAPOKDH@prolog?3get_all_clauses?$AA@ 0042ef9c     bpr:wam.obj
 0002:00002fb4       ??_C@_05DEMLAJOK@there?$AA@ 0042efb4     bpr:wam.obj
 0002:00002fbc       ??_C@_0L@ODBAFKLI@prolog?3ttt?$AA@ 0042efbc     bpr:wam.obj
 0002:00002fc8       ??_C@_0L@FGHAHOF@prolog?3tth?$AA@ 0042efc8     bpr:wam.obj
 0002:00002fd4       ??_C@_0O@GCMKILCC@v0595co?4pl151?$AA@ 0042efd4     bpr:wam.obj
 0002:00002fe4       ??_C@_0BJ@GEHOGEGE@prolog?3translate_delayed?$AA@ 0042efe4     bpr:wam.obj
 0002:00003000       ??_C@_0BG@ENNGCHNK@prolog?3rr_read_clause?$AA@ 0042f000     bpr:wam.obj
 0002:00003018       ??_C@_0BG@JIDMJMPO@prolog?3translate_file?$AA@ 0042f018     bpr:wam.obj
 0002:00003030       ??_C@_0BC@OOKKPMHE@prolog?3put_to_eof?$AA@ 0042f030     bpr:wam.obj
 0002:00003044       ??_C@_0BG@CBOJNCN@prolog?3make_memo_file?$AA@ 0042f044     bpr:wam.obj
 0002:0000305c       ??_C@_08NMKOEKAO@temp?4wam?$AA@ 0042f05c     bpr:wam.obj
 0002:00003068       ??_C@_0BL@DLEENFCN@prolog?3include_memoed_file?$AA@ 0042f068     bpr:wam.obj
 0002:00003084       ??_C@_0O@HINHIBBM@v0195co?4pl150?$AA@ 0042f084     bpr:wam.obj
 0002:00003094       ??_C@_0BJ@GPOKBFHN@prolog?3memoing_translate?$AA@ 0042f094     bpr:wam.obj
 0002:000030b0       ??_C@_0BI@JMADGKOE@prolog?3well_compiled_to?$AA@ 0042f0b0     bpr:wam.obj
 0002:000030c8       ??_C@_0BF@JKDJIAOE@prolog?3write_c_chunk?$AA@ 0042f0c8     bpr:wam.obj
 0002:000030e0       ??_C@_0BA@DPFKDMEA@prolog?3maincomp?$AA@ 0042f0e0     bpr:wam.obj
 0002:000030f0       ??_C@_0BG@OINJIDPE@prolog?3make_dummy_end?$AA@ 0042f0f0     bpr:wam.obj
 0002:00003108       ??_C@_03JBJLGPFL@end?$AA@  0042f108     bpr:wam.obj
 0002:0000310c       ??_C@_0BK@PDLDHBEP@prolog?3close_c_chunk_file?$AA@ 0042f10c     bpr:wam.obj
 0002:00003128       ??_C@_0BH@EDOCIMAE@prolog?3terminate_file0?$AA@ 0042f128     bpr:wam.obj
 0002:00003140       ??_C@_0BH@NEHEFAFK@prolog?3c_decorate_file?$AA@ 0042f140     bpr:wam.obj
 0002:00003158       ??_C@_06NPHNCBDJ@footer?$AA@ 0042f158     bpr:wam.obj
 0002:00003160       ??_C@_0BB@OPDPOOOC@prolog?3comp_file?$AA@ 0042f160     bpr:wam.obj
 0002:00003174       ??_C@_06MBPAJAPM@header?$AA@ 0042f174     bpr:wam.obj
 0002:0000317c       ??_C@_0BF@DMNCLJLA@prolog?3decorate_file?$AA@ 0042f17c     bpr:wam.obj
 0002:00003194       ??_C@_0BD@JGPJOJII@total_compile_time?$AA@ 0042f194     bpr:wam.obj
 0002:000031a8       ??_C@_0BA@EKDAEFDK@prolog?3xcompile?$AA@ 0042f1a8     bpr:wam.obj
 0002:000031b8       ??_C@_0BA@JAPFCKKL@prolog?3compile1?$AA@ 0042f1b8     bpr:wam.obj
 0002:000031c8       ??_C@_0BA@IJOOBLOK@prolog?3compile0?$AA@ 0042f1c8     bpr:wam.obj
 0002:000031d8       ??_C@_0O@DAHECHHC@v0495co?4pl149?$AA@ 0042f1d8     bpr:wam.obj
 0002:000031e8       ??_C@_0O@PCBNCAPN@v0410co?4pl147?$AA@ 0042f1e8     bpr:wam.obj
 0002:000031f8       ??_C@_0BF@HLJKGDLM@prolog?3compile_file0?$AA@ 0042f1f8     bpr:wam.obj
 0002:00003210       ??_C@_0CD@NDEIDHNC@prolog?3translate_delayed_multifi@ 0042f210     bpr:wam.obj
 0002:00003234       ??_C@_0BF@CBPPLJFO@prolog?3memoable_file?$AA@ 0042f234     bpr:wam.obj
 0002:0000324c       ??_C@_0BG@HHGMHEIK@prolog?3add_multifiles?$AA@ 0042f24c     bpr:wam.obj
 0002:00003264       ??_C@_0BG@LFCJIPBP@prolog?3fcompile_files?$AA@ 0042f264     bpr:wam.obj
 0002:0000327c       ??_C@_0BE@EKCOOKOB@compilation?5aborted?$AA@ 0042f27c     bpr:wam.obj
 0002:00003290       ??_C@_0N@DFFGMAEP@compile_time?$AA@ 0042f290     bpr:wam.obj
 0002:000032a0       ??_C@_02LBCDJBAJ@to?$AA@   0042f2a0     bpr:wam.obj
 0002:000032a4       ??_C@_09FPBLGEND@compiling?$AA@ 0042f2a4     bpr:wam.obj
 0002:000032b0       ??_C@_0BD@GJAICHJ@prolog?3compile_mem?$AA@ 0042f2b0     bpr:wam.obj
 0002:000032c4       ??_C@_0BA@BJHCGDHH@prolog?3init_cmd?$AA@ 0042f2c4     bpr:wam.obj
 0002:000032d4       ??_C@_0BA@LLCKDGCK@prolog?3currpred?$AA@ 0042f2d4     bpr:wam.obj
 0002:000032e4       ??_C@_05PBLOBLMM@chunk?$AA@ 0042f2e4     bpr:wam.obj
 0002:000032ec       ??_C@_06KLHHMIGM@offset?$AA@ 0042f2ec     bpr:wam.obj
 0002:000032f4       ??_C@_05OFKMILLG@arity?$AA@ 0042f2f4     bpr:wam.obj
 0002:000032fc       ??_C@_09OKBKKDGM@predicate?$AA@ 0042f2fc     bpr:wam.obj
 0002:00003308       ??_C@_0BA@EBDFKANL@prolog?3newpred0?$AA@ 0042f308     bpr:wam.obj
 0002:00003318       ??_C@_09GOEDCGAO@file_name?$AA@ 0042f318     bpr:wam.obj
 0002:00003324       ??_C@_0BI@GFBJBLLK@prolog?3let_c_chunk_file?$AA@ 0042f324     bpr:wam.obj
 0002:0000333c       ??_C@_0BB@OFDNDLFC@prolog?3wcode_asm?$AA@ 0042f33c     bpr:wam.obj
 0002:00003350       ??_C@_0P@MGLBLMCO@prolog?3wcode_c?$AA@ 0042f350     bpr:wam.obj
 0002:00003360       ??_C@_0O@ODCIOKOI@v0547co?4pl146?$AA@ 0042f360     bpr:wam.obj
 0002:00003370       ??_C@_0P@ELOEOGMC@prolog?3wspec_c?$AA@ 0042f370     bpr:wam.obj
 0002:00003380       ??_C@_09NMAOFODD@begin_end?$AA@ 0042f380     bpr:wam.obj
 0002:0000338c       ??_C@_06CBDOFKPK@c_flag?$AA@ 0042f38c     bpr:wam.obj
 0002:00003394       ??_C@_0BG@KIFKMNDE@prolog?3write_or_skip0?$AA@ 0042f394     bpr:wam.obj
 0002:000033ac       ??_C@_0BB@LIOIAGHN@prolog?3encode_op?$AA@ 0042f3ac     bpr:wam.obj
 0002:000033c0       ??_C@_09BALHMBDF@builtin_?$DP?$AA@ 0042f3c0     bpr:wam.obj
 0002:000033cc       ??_C@_0M@IFNEKADF@arith_value?$AA@ 0042f3cc     bpr:wam.obj
 0002:000033d8       ??_C@_0P@HDAEJMEH@arith_variable?$AA@ 0042f3d8     bpr:wam.obj
 0002:000033e8       ??_C@_0BA@HIEMLFEH@inline_variable?$AA@ 0042f3e8     bpr:wam.obj
 0002:000033f8       ??_C@_05LLHMCKHM@end_?$DP?$AA@ 0042f3f8     bpr:wam.obj
 0002:00003400       ??_C@_0L@DMDDFHJB@firstarg_?$DP?$AA@ 0042f400     bpr:wam.obj
 0002:0000340c       ??_C@_08MGOGHI@clause_?$DP?$AA@ 0042f40c     bpr:wam.obj
 0002:00003418       ??_C@_0BF@BLMLFBAB@prolog?3write_or_skip?$AA@ 0042f418     bpr:wam.obj
 0002:00003430       ??_C@_0L@BOBBIBAF@write_void?$AA@ 0042f430     bpr:wam.obj
 0002:0000343c       ??_C@_0L@OFAPJJEO@unify_void?$AA@ 0042f43c     bpr:wam.obj
 0002:00003448       ??_C@_0O@DFOCEKGP@push_variable?$AA@ 0042f448     bpr:wam.obj
 0002:00003458       ??_C@_0P@PDKCFFGI@push_structure?$AA@ 0042f458     bpr:wam.obj
 0002:00003468       ??_C@_0L@GGBHHKCK@load_value?$AA@ 0042f468     bpr:wam.obj
 0002:00003474       ??_C@_0O@BNMEMGHG@load_variable?$AA@ 0042f474     bpr:wam.obj
 0002:00003484       ??_C@_0O@GMCEEFP@load_constant?$AA@ 0042f484     bpr:wam.obj
 0002:00003494       ??_C@_09CGOOFPCK@execute_?$DP?$AA@ 0042f494     bpr:wam.obj
 0002:000034a0       ??_C@_07IDHHLDBP@get_cut?$AA@ 0042f4a0     bpr:wam.obj
 0002:000034a8       ??_C@_07JCNHBHOD@put_cut?$AA@ 0042f4a8     bpr:wam.obj
 0002:000034b0       ??_C@_08LOHLOGEP@push_cut?$AA@ 0042f4b0     bpr:wam.obj
 0002:000034bc       ??_C@_09IGFEIHJM@get_value?$AA@ 0042f4bc     bpr:wam.obj
 0002:000034c8       ??_C@_0N@FHLMIGJA@put_variable?$AA@ 0042f4c8     bpr:wam.obj
 0002:000034d8       ??_C@_09OPOGFPHM@put_value?$AA@ 0042f4d8     bpr:wam.obj
 0002:000034e4       ??_C@_0N@JCNAMLOO@get_variable?$AA@ 0042f4e4     bpr:wam.obj
 0002:000034f4       ??_C@_0O@NOMCOECJ@put_structure?$AA@ 0042f4f4     bpr:wam.obj
 0002:00003504       ??_C@_0N@EMLKAELJ@put_constant?$AA@ 0042f504     bpr:wam.obj
 0002:00003514       ??_C@_0O@GJLKNEFP@get_structure?$AA@ 0042f514     bpr:wam.obj
 0002:00003524       ??_C@_0N@IJNGEJMH@get_constant?$AA@ 0042f524     bpr:wam.obj
 0002:00003534       ??_C@_0O@COOEMIEG@push_constant?$AA@ 0042f534     bpr:wam.obj
 0002:00003544       ??_C@_0P@MFAOBINE@write_constant?$AA@ 0042f544     bpr:wam.obj
 0002:00003554       ??_C@_0P@GFAACBGL@unify_constant?$AA@ 0042f554     bpr:wam.obj
 0002:00003564       ??_C@_0M@PNPEPNPI@write_value?$AA@ 0042f564     bpr:wam.obj
 0002:00003570       ??_C@_0M@BMABHLPI@unify_value?$AA@ 0042f570     bpr:wam.obj
 0002:0000357c       ??_C@_0P@NOAIJKPN@write_variable?$AA@ 0042f57c     bpr:wam.obj
 0002:0000358c       ??_C@_0N@CDLKGKPG@prolog?3wcode?$AA@ 0042f58c     bpr:wam.obj
 0002:0000359c       ??_C@_0P@HOAGKDEC@unify_variable?$AA@ 0042f59c     bpr:wam.obj
 0002:000035ac       ??_C@_0BJ@DBCJOKOI@prolog?3mc_transform_void?$AA@ 0042f5ac     bpr:wam.obj
 0002:000035c8       ??_C@_0L@CHBBLIFN@prolog?3mc4?$AA@ 0042f5c8     bpr:wam.obj
 0002:000035d4       ??_C@_0BJ@DMMJMBBJ@prolog?3mc_transform_push?$AA@ 0042f5d4     bpr:wam.obj
 0002:000035f0       ??_C@_0O@DCPENNMI@prolog?3mc_sel?$AA@ 0042f5f0     bpr:wam.obj
 0002:00003600       ??_C@_0L@GIFACOJK@prolog?3mc3?$AA@ 0042f600     bpr:wam.obj
 0002:0000360c       ??_C@_0BA@OJFGELKC@prolog?3mc_chunk?$AA@ 0042f60c     bpr:wam.obj
 0002:0000361c       ??_C@_0P@DIGKJGPC@prolog?3mc_push?$AA@ 0042f61c     bpr:wam.obj
 0002:0000362c       ??_C@_0L@DOAKIJBM@prolog?3mc5?$AA@ 0042f62c     bpr:wam.obj
 0002:00003638       ??_C@_0L@FKGGEMBI@prolog?3mc1?$AA@ 0042f638     bpr:wam.obj
 0002:00003644       ??_C@_0L@EDHNHNFJ@prolog?3mc0?$AA@ 0042f644     bpr:wam.obj
 0002:00003650       ??_C@_0BA@KJHEIBII@prolog?3mc_empty?$AA@ 0042f650     bpr:wam.obj
 0002:00003660       ??_C@_0BB@MNNMKFIM@prolog?3mc_input0?$AA@ 0042f660     bpr:wam.obj
 0002:00003674       ??_C@_0BA@CNHKCPFJ@prolog?3mc_input?$AA@ 0042f674     bpr:wam.obj
 0002:00003684       ??_C@_0O@EEMDDNPK@prolog?3mc_top?$AA@ 0042f684     bpr:wam.obj
 0002:00003694       ??_C@_08DDCPGNIN@empty_op?$AA@ 0042f694     bpr:wam.obj
 0002:000036a0       ??_C@_03OOEBGOEH@cut?$AA@  0042f6a0     bpr:wam.obj
 0002:000036a4       ??_C@_0P@KLAKHBOE@prolog?3encode2?$AA@ 0042f6a4     bpr:wam.obj
 0002:000036b4       ??_C@_0BC@OHOLLLLK@prolog?3encode_arg?$AA@ 0042f6b4     bpr:wam.obj
 0002:000036c8       ??_C@_0BB@FBKHPBFK@prolog?3instr_cat?$AA@ 0042f6c8     bpr:wam.obj
 0002:000036dc       ??_C@_0BD@GGJBEPIL@prolog?3mc_peephole?$AA@ 0042f6dc     bpr:wam.obj
 0002:000036f0       ??_C@_0BE@OJKCKJMF@prolog?3mc_one_instr?$AA@ 0042f6f0     bpr:wam.obj
 0002:00003704       ??_C@_0O@BDJLOMKP@prolog?3encode?$AA@ 0042f704     bpr:wam.obj
 0002:00003714       ??_C@_0BA@BEGLABLC@prolog?3beautify?$AA@ 0042f714     bpr:wam.obj
 0002:00003724       ??_C@_0BB@OMBOEEE@prolog?3gen_instr?$AA@ 0042f724     bpr:wam.obj
 0002:00003738       ??_C@_0P@CINNJJFO@prolog?3temparg?$AA@ 0042f738     bpr:wam.obj
 0002:00003748       ??_C@_03CPCFKGMH@256?$AA@  0042f748     bpr:wam.obj
 0002:0000374c       ??_C@_0BA@LFHLNLLH@prolog?3maxarity?$AA@ 0042f74c     bpr:wam.obj
 0002:0000375c       ??_C@_0BD@HNDEDAPI@prolog?3write_instr?$AA@ 0042f75c     bpr:wam.obj
 0002:00003770       ??_C@_0BB@PMMHLEF@prolog?3antigenic?$AA@ 0042f770     bpr:wam.obj
 0002:00003784       ??_C@_0O@NLGNPLJB@c_chunk_value?$AA@ 0042f784     bpr:wam.obj
 0002:00003794       ??_C@_0BB@EGIHOGBC@c_chunk_variable?$AA@ 0042f794     bpr:wam.obj
 0002:000037a8       ??_C@_0BG@EGMFOAJC@prolog?3make_anti_call?$AA@ 0042f7a8     bpr:wam.obj
 0002:000037c0       ??_C@_0BD@LPFGLKIB@prolog?3bind_length?$AA@ 0042f7c0     bpr:wam.obj
 0002:000037d4       ??_C@_0BL@LPKFINGB@prolog?3bind_c_chunk_length?$AA@ 0042f7d4     bpr:wam.obj
 0002:000037f0       ??_C@_0O@MCFGKOID@v0871co?4pl145?$AA@ 0042f7f0     bpr:wam.obj
 0002:00003800       ??_C@_0BC@IOGOIGKI@prolog?3show_steps?$AA@ 0042f800     bpr:wam.obj
 0002:00003814       ??_C@_0BA@NMLDAPPL@prolog?3show_fun?$AA@ 0042f814     bpr:wam.obj
 0002:00003824       ??_C@_0BE@DFBECHPG@prolog?3show_or_skip?$AA@ 0042f824     bpr:wam.obj
 0002:00003838       ??_C@_0M@BKIFCLOB@FINAL?5CODE?3?$AA@ 0042f838     bpr:wam.obj
 0002:00003844       ??_C@_0BA@BMNLIPDJ@prolog?3gen_code?$AA@ 0042f844     bpr:wam.obj
 0002:00003854       ??_C@_0BM@KHOCFNEM@POST?5TERM?9COMPRESSION?5CODE?3?$AA@ 0042f854     bpr:wam.obj
 0002:00003870       ??_C@_0BE@MGNCKKNL@prolog?3mc_all_instr?$AA@ 0042f870     bpr:wam.obj
 0002:00003884       ??_C@_0BB@LFLEFBDP@compilation_mode?$AA@ 0042f884     bpr:wam.obj
 0002:00003898       ??_C@_0BE@LNFEJEJD@BRUT?5WAM?9ASSEMBLER?3?$AA@ 0042f898     bpr:wam.obj
 0002:000038ac       ??_C@_0BC@GNBDLJKI@prolog?3show_instr?$AA@ 0042f8ac     bpr:wam.obj
 0002:000038c0       ??_C@_0BB@MIOKLKCE@prolog?3show_code?$AA@ 0042f8c0     bpr:wam.obj
 0002:000038d4       ??_C@_0BG@CCCIEKKI@prolog?3add_upper_cont?$AA@ 0042f8d4     bpr:wam.obj
 0002:000038ec       ??_C@_0BE@KAMLDGIG@prolog?3def_to_mbin0?$AA@ 0042f8ec     bpr:wam.obj
 0002:00003900       ??_C@_0O@MEICDEOE@prolog?3pexec2?$AA@ 0042f900     bpr:wam.obj
 0002:00003910       ??_C@_0O@OPKPGHCH@prolog?3pexec1?$AA@ 0042f910     bpr:wam.obj
 0002:00003920       ??_C@_0BK@DPDMJNBN@compile_time_execution_of?$AA@ 0042f920     bpr:wam.obj
 0002:0000393c       ??_C@_0BD@KIJFAIDA@not?5expanded?5by?5?$CD?$CD?$AA@ 0042f93c     bpr:wam.obj
 0002:00003950       ??_C@_0P@OLBLBGAM@prolog?3emit_is?$AA@ 0042f950     bpr:wam.obj
 0002:00003960       ??_C@_0BD@NEBONMNG@prolog?3split_rel_1?$AA@ 0042f960     bpr:wam.obj
 0002:00003974       ??_C@_0BA@KKLLMDCF@prolog?3split_is?$AA@ 0042f974     bpr:wam.obj
 0002:00003984       ??_C@_0BB@BNFFEEHD@prolog?3split_rel?$AA@ 0042f984     bpr:wam.obj
 0002:00003998       ??_C@_0BE@MJBGFHPN@prolog?3split_is_rel?$AA@ 0042f998     bpr:wam.obj
 0002:000039ac       ??_C@_04DAMGJPCA@file?$AA@ 0042f9ac     bpr:wam.obj
 0002:000039b4       ??_C@_0BP@DFFHOBLG@?$CF?5delaying?5multifile?5predicate?$AA@ 0042f9b4     bpr:wam.obj
 0002:000039d4       ??_C@_0O@FIGANGAK@$collect_pred?$AA@ 0042f9d4     bpr:wam.obj
 0002:000039e4       ??_C@_0BC@IECHDNDJ@prolog?3delay_pred?$AA@ 0042f9e4     bpr:wam.obj
 0002:000039f8       ??_C@_05BAKMKMLC@$todo?$AA@ 0042f9f8     bpr:wam.obj
 0002:00003a00       ??_C@_0BG@ODODBIKG@compiler_current_file?$AA@ 0042fa00     bpr:wam.obj
 0002:00003a18       ??_C@_0BD@POMIABCH@prolog?3mod_or_file?$AA@ 0042fa18     bpr:wam.obj
 0002:00003a2c       ??_C@_0BA@IDAKAAN@prolog?3var2call?$AA@ 0042fa2c     bpr:wam.obj
 0002:00003a3c       ??_C@_0BC@BAHHCOKJ@prolog?3delay_disj?$AA@ 0042fa3c     bpr:wam.obj
 0002:00003a50       ??_C@_0O@HHHOLABB@prolog?3r_disj?$AA@ 0042fa50     bpr:wam.obj
 0002:00003a60       ??_C@_0BF@BKEMAHFB@prolog?3traverse_disj?$AA@ 0042fa60     bpr:wam.obj
 0002:00003a78       ??_C@_0P@LFIBGILB@prolog?3r_disj0?$AA@ 0042fa78     bpr:wam.obj
 0002:00003a88       ??_C@_0BA@LHGMFKIC@prolog?3app_body?$AA@ 0042fa88     bpr:wam.obj
 0002:00003a98       ??_C@_0P@KMJKFJPA@prolog?3r_disj1?$AA@ 0042fa98     bpr:wam.obj
 0002:00003aa8       ??_C@_0BF@LNJDFJOM@prolog?3compile_later?$AA@ 0042faa8     bpr:wam.obj
 0002:00003ac0       ??_C@_0BF@HHPBFKDE@prolog?3make_new_head?$AA@ 0042fac0     bpr:wam.obj
 0002:00003ad8       ??_C@_0BC@DPNAHENP@prolog?3repl_goal1?$AA@ 0042fad8     bpr:wam.obj
 0002:00003aec       ??_C@_0BB@JPGOGPCP@prolog?3delay_cmd?$AA@ 0042faec     bpr:wam.obj
 0002:00003b00       ??_C@_0BA@HPPHGJEJ@prolog?3bp_delay?$AA@ 0042fb00     bpr:wam.obj
 0002:00003b10       ??_C@_09IDPGJFGI@save_term?$AA@ 0042fb10     bpr:wam.obj
 0002:00003b1c       ??_C@_0N@CLKJANHJ@prolog?3pexec?$AA@ 0042fb1c     bpr:wam.obj
 0002:00003b2c       ??_C@_0BB@DEKMACJM@prolog?3repl_goal?$AA@ 0042fb2c     bpr:wam.obj
 0002:00003b40       ??_C@_0BB@BPJPPHAI@prolog?3repl_disj?$AA@ 0042fb40     bpr:wam.obj
 0002:00003b54       ??_C@_0BF@JJPJLELO@prolog?3traverse_conj?$AA@ 0042fb54     bpr:wam.obj
 0002:00003b6c       ??_C@_0BC@LIPNOHCN@prolog?3repl_known?$AA@ 0042fb6c     bpr:wam.obj
 0002:00003b80       ??_C@_0BL@LNMIIKKD@prolog?3avoid_replacing_cut?$AA@ 0042fb80     bpr:wam.obj
 0002:00003b9c       ??_C@_0BA@JFHDEGJL@prolog?3cut_free?$AA@ 0042fb9c     bpr:wam.obj
 0002:00003bac       ??_C@_0BI@IBFCLDFD@prolog?3make_delphi_call?$AA@ 0042fbac     bpr:wam.obj
 0002:00003bc4       ??_C@_09GOOOPJPN@spying_on?$AA@ 0042fbc4     bpr:wam.obj
 0002:00003bd0       ??_C@_0BA@IFBLOMFE@prolog?3split_op?$AA@ 0042fbd0     bpr:wam.obj
 0002:00003be0       ??_C@_0BB@KBMMGFDD@prolog?3strip_nil?$AA@ 0042fbe0     bpr:wam.obj
 0002:00003bf4       ??_C@_0BC@LJPCNPPD@prolog?3repl_macro?$AA@ 0042fbf4     bpr:wam.obj
 0002:00003c08       ??_C@_0BB@MNDCKJBD@prolog?3repl_body?$AA@ 0042fc08     bpr:wam.obj
 0002:00003c1c       ??_C@_0BD@CIHJJAFI@prolog?3mdef_to_def?$AA@ 0042fc1c     bpr:wam.obj
 0002:00003c30       ??_C@_0N@LBGGJCMO@prolog?3dname?$AA@ 0042fc30     bpr:wam.obj
 0002:00003c40       ??_C@_0M@FPANBMOH@prolog?3ht2t?$AA@ 0042fc40     bpr:wam.obj
 0002:00003c4c       ??_C@_0O@BNHBOJDD@v0350co?4pl144?$AA@ 0042fc4c     bpr:wam.obj
 0002:00003c5c       ??_C@_0O@CIEHNEIB@v0492co?4pl143?$AA@ 0042fc5c     bpr:wam.obj
 0002:00003c6c       ??_C@_0M@CFEJMKOD@prolog?3t2ht?$AA@ 0042fc6c     bpr:wam.obj
 0002:00003c78       ??_C@_0BE@CGABFGBC@prolog?3term2pattern?$AA@ 0042fc78     bpr:wam.obj
 0002:00003c8c       ??_C@_0M@EILLPLMO@prolog?3hl2l?$AA@ 0042fc8c     bpr:wam.obj
 0002:00003c98       ??_C@_0BF@NHJENOKL@prolog?3collapse_dict?$AA@ 0042fc98     bpr:wam.obj
 0002:00003cb0       ??_C@_0BK@JOAMJKEL@prolog?3collapse_instances?$AA@ 0042fcb0     bpr:wam.obj
 0002:00003ccc       ??_C@_05ELJFHEOG@lmemb?$AA@ 0042fccc     bpr:wam.obj
 0002:00003cd4       ??_C@_0M@PHMCIOPJ@prolog?3l2hl?$AA@ 0042fcd4     bpr:wam.obj
 0002:00003ce0       ??_C@_04JNELBDGO@lapp?$AA@ 0042fce0     bpr:wam.obj
 0002:00003ce8       ??_C@_0BJ@DNGKKMDK@prolog?3repl_pred_pattern?$AA@ 0042fce8     bpr:wam.obj
 0002:00003d04       ??_C@_0BJ@CIGJLINJ@?5?5replacing_with_builtin?$AA@ 0042fd04     bpr:wam.obj
 0002:00003d20       ??_C@_0BD@EACLGEDD@prolog?3repl_member?$AA@ 0042fd20     bpr:wam.obj
 0002:00003d34       ??_C@_0BD@MBPKKMND@prolog?3repl_append?$AA@ 0042fd34     bpr:wam.obj
 0002:00003d48       ??_C@_0O@ELDGEEBF@prolog?3repmes?$AA@ 0042fd48     bpr:wam.obj
 0002:00003d58       ??_C@_0BB@ILMPOEJI@prolog?3repl_pred?$AA@ 0042fd58     bpr:wam.obj
 0002:00003d6c       ??_C@_0P@OGGEAJJE@prolog?3get_reg?$AA@ 0042fd6c     bpr:wam.obj
 0002:00003d7c       ??_C@_0BA@CPGOABAJ@prolog?3free_reg?$AA@ 0042fd7c     bpr:wam.obj
 0002:00003d8c       ??_C@_0BE@HBNFDPOC@prolog?3allocate_reg?$AA@ 0042fd8c     bpr:wam.obj
 0002:00003da0       ??_C@_0BB@DNJGNJPI@prolog?3allocate1?$AA@ 0042fda0     bpr:wam.obj
 0002:00003db4       ??_C@_0BF@IGAPNOCN@prolog?3check_var_arg?$AA@ 0042fdb4     bpr:wam.obj
 0002:00003dcc       ??_C@_0BF@GCBEEKDG@prolog?3check_var_var?$AA@ 0042fdcc     bpr:wam.obj
 0002:00003de4       ??_C@_0BH@FPGPKDOG@prolog?3check_lifetimes?$AA@ 0042fde4     bpr:wam.obj
 0002:00003dfc       ??_C@_0O@LJHAENFB@prolog?3set_to?$AA@ 0042fdfc     bpr:wam.obj
 0002:00003e0c       ??_C@_0BJ@JDEPPABD@prolog?3default_life_time?$AA@ 0042fe0c     bpr:wam.obj
 0002:00003e28       ??_C@_0BF@JAEFPLOG@prolog?3collapse_them?$AA@ 0042fe28     bpr:wam.obj
 0002:00003e40       ??_C@_0BA@HIKCLDLD@prolog?3mark_var?$AA@ 0042fe40     bpr:wam.obj
 0002:00003e50       ??_C@_0BA@JMLJCHKI@prolog?3mark_arg?$AA@ 0042fe50     bpr:wam.obj
 0002:00003e60       ??_C@_05MFEJDJP@value?$AA@ 0042fe60     bpr:wam.obj
 0002:00003e68       ??_C@_04GKJNKENE@void?$AA@ 0042fe68     bpr:wam.obj
 0002:00003e70       ??_C@_0BE@FJPCPBNK@prolog?3get_var_type?$AA@ 0042fe70     bpr:wam.obj
 0002:00003e84       ??_C@_0BF@BHFFMOCI@prolog?3fill_var_type?$AA@ 0042fe84     bpr:wam.obj
 0002:00003e9c       ??_C@_0BA@CADIDKEO@prolog?3fill_one?$AA@ 0042fe9c     bpr:wam.obj
 0002:00003eac       ??_C@_0O@FFDLAMCF@prolog?3tpoint?$AA@ 0042feac     bpr:wam.obj
 0002:00003ebc       ??_C@_0BA@BCKBCCFK@prolog?3fill_all?$AA@ 0042febc     bpr:wam.obj
 0002:00003ecc       ??_C@_0L@FFFBHHMK@prolog?3inc?$AA@ 0042fecc     bpr:wam.obj
 0002:00003ed8       ??_C@_0P@MOGMBDMG@bad_occurrence?$AA@ 0042fed8     bpr:wam.obj
 0002:00003ee8       ??_C@_03LJLPIKKL@occ?$AA@  0042fee8     bpr:wam.obj
 0002:00003eec       ??_C@_02CPIDLAI@at?$AA@    0042feec     bpr:wam.obj
 0002:00003ef0       ??_C@_0O@GGFKJAJC@prolog?3oldvar?$AA@ 0042fef0     bpr:wam.obj
 0002:00003f00       ??_C@_0O@MAGCCHLM@prolog?3newvar?$AA@ 0042ff00     bpr:wam.obj
 0002:00003f10       ??_C@_04GHGDOGBC@$OCC?$AA@ 0042ff10     bpr:wam.obj
 0002:00003f18       ??_C@_0BC@JLDMMFAO@prolog?3occurrence?$AA@ 0042ff18     bpr:wam.obj
 0002:00003f2c       ??_C@_0BI@HGKJOPED@prolog?3find_occurrences?$AA@ 0042ff2c     bpr:wam.obj
 0002:00003f44       ??_C@_0BJ@LAJMEEPL@prolog?3count_occurrences?$AA@ 0042ff44     bpr:wam.obj
 0002:00003f60       ??_C@_04GHHNIPCF@push?$AA@ 0042ff60     bpr:wam.obj
 0002:00003f68       ??_C@_0BD@JGFJKLP@prolog?3deep_var_op?$AA@ 0042ff68     bpr:wam.obj
 0002:00003f7c       ??_C@_0BA@MEMOOPAE@prolog?3unify_op?$AA@ 0042ff7c     bpr:wam.obj
 0002:00003f8c       ??_C@_0BC@GBNEABCJ@prolog?3emit_args0?$AA@ 0042ff8c     bpr:wam.obj
 0002:00003fa0       ??_C@_0BJ@JGCEKEMD@prolog?3deep_structure_op?$AA@ 0042ffa0     bpr:wam.obj
 0002:00003fbc       ??_C@_0BG@JBIFLGFI@prolog?3emit_structure?$AA@ 0042ffbc     bpr:wam.obj
 0002:00003fd4       ??_C@_0M@KFBMBKKD@prolog?3cc_t?$AA@ 0042ffd4     bpr:wam.obj
 0002:00003fe0       ??_C@_0O@GCEGFFLP@prolog?3cc_arg?$AA@ 0042ffe0     bpr:wam.obj
 0002:00003ff0       ??_C@_09GNENBKCD@structure?$AA@ 0042fff0     bpr:wam.obj
 0002:00003ffc       ??_C@_0BB@JJCHMKHC@prolog?3emit_args?$AA@ 0042fffc     bpr:wam.obj
 0002:00004010       ??_C@_0P@FPKOMCHN@prolog?3cc_args?$AA@ 00430010     bpr:wam.obj
 0002:00004020       ??_C@_0BK@JBEEPAFJ@prolog?3emit_top_structure?$AA@ 00430020     bpr:wam.obj
 0002:0000403c       ??_C@_0BD@CMEEKKBO@prolog?3classif_arg?$AA@ 0043003c     bpr:wam.obj
 0002:00004050       ??_C@_08KFDOCAEB@constant?$AA@ 00430050     bpr:wam.obj
 0002:0000405c       ??_C@_0BE@KFNMOACL@prolog?3classif_load?$AA@ 0043005c     bpr:wam.obj
 0002:00004070       ??_C@_06OGMBMJA@inline?$AA@ 00430070     bpr:wam.obj
 0002:00004078       ??_C@_0BB@BLFHJCKJ@prolog?3cc_b_args?$AA@ 00430078     bpr:wam.obj
 0002:0000408c       ??_C@_0BG@IMNKDHIA@prolog?3emit_top_bargs?$AA@ 0043008c     bpr:wam.obj
 0002:000040a4       ??_C@_0BL@MDFLINNP@prolog?3handle_constant_res?$AA@ 004300a4     bpr:wam.obj
 0002:000040c0       ??_C@_0P@FCFPIOOP@prolog?3out_reg?$AA@ 004300c0     bpr:wam.obj
 0002:000040d0       ??_C@_04FGEHGIFJ@temp?$AA@ 004300d0     bpr:wam.obj
 0002:000040d8       ??_C@_0BA@FCEKAPAI@prolog?3cc_top_t?$AA@ 004300d8     bpr:wam.obj
 0002:000040e8       ??_C@_0O@DIDIGGD@prolog?3cc_eq1?$AA@ 004300e8     bpr:wam.obj
 0002:000040f8       ??_C@_0BF@KHKCCALA@unexpected_body_atom?$AA@ 004300f8     bpr:wam.obj
 0002:00004110       ??_C@_0BK@GFJMOGNG@prolog?3emit_body_top_term?$AA@ 00430110     bpr:wam.obj
 0002:0000412c       ??_C@_0BC@FPDMBJHM@prolog?3cc_builtin?$AA@ 0043012c     bpr:wam.obj
 0002:00004140       ??_C@_0N@GELKGPLI@prolog?3cc_eq?$AA@ 00430140     bpr:wam.obj
 0002:00004150       ??_C@_06HBCDHNLM@cutarg?$AA@ 00430150     bpr:wam.obj
 0002:00004158       ??_C@_0BF@PBAIGHLH@prolog?3emit_top_args?$AA@ 00430158     bpr:wam.obj
 0002:00004170       ??_C@_0BC@ECGICDCA@prolog?3cc_top_arg?$AA@ 00430170     bpr:wam.obj
 0002:00004184       ??_C@_0BF@GLEHMJIN@unexpected_head_atom?$AA@ 00430184     bpr:wam.obj
 0002:0000419c       ??_C@_0BK@HADFKELH@prolog?3emit_head_top_term?$AA@ 0043019c     bpr:wam.obj
 0002:000041b8       ??_C@_07JNFPDNEP@builtin?$AA@ 004301b8     bpr:wam.obj
 0002:000041c0       ??_C@_0N@IIJHAHHJ@prolog?3cc_b0?$AA@ 004301c0     bpr:wam.obj
 0002:000041d0       ??_C@_0N@IFAAICKP@prolog?3cc_h0?$AA@ 004301d0     bpr:wam.obj
 0002:000041e0       ??_C@_0BK@HNBFJLOJ@prolog?3begin_chunk_nocomp?$AA@ 004301e0     bpr:wam.obj
 0002:000041fc       ??_C@_0BI@LOOGCFOJ@prolog?3begin_chunk_comp?$AA@ 004301fc     bpr:wam.obj
 0002:00004214       ??_C@_0P@GNKAFGGO@v0436bin?4pl142?$AA@ 00430214     bpr:wam.obj
 0002:00004224       ??_C@_0BE@ELFPFCNC@prolog?3has_compress?$AA@ 00430224     bpr:wam.obj
 0002:00004238       ??_C@_0BA@JBGJOBKF@prolog?3set_mode?$AA@ 00430238     bpr:wam.obj
 0002:00004248       ??_C@_0BA@GAEFPCNI@prolog?3get_mode?$AA@ 00430248     bpr:wam.obj
 0002:00004258       ??_C@_0BB@JIKALAMI@prolog?3end_chunk?$AA@ 00430258     bpr:wam.obj
 0002:0000426c       ??_C@_0M@OKGFABBC@prolog?3emit?$AA@ 0043026c     bpr:wam.obj
 0002:00004278       ??_C@_0BC@NPADPDDH@prolog?3hidden_var?$AA@ 00430278     bpr:wam.obj
 0002:0000428c       ??_C@_03BKCJCHLK@len?$AA@  0043028c     bpr:wam.obj
 0002:00004290       ??_C@_07KOKHFLAA@c_chunk?$AA@ 00430290     bpr:wam.obj
 0002:00004298       ??_C@_0BD@PBGPPEDL@prolog?3begin_chunk?$AA@ 00430298     bpr:wam.obj
 0002:000042ac       ??_C@_0M@EDGLEHPO@prolog?3cc_h?$AA@ 004302ac     bpr:wam.obj
 0002:000042b8       ??_C@_0M@LJIEKPHE@prolog?3cc_b?$AA@ 004302b8     bpr:wam.obj
 0002:000042c4       ??_C@_0BF@EKGHHMFO@prolog?3allocate_regs?$AA@ 004302c4     bpr:wam.obj
 0002:000042dc       ??_C@_0BF@NACELPFO@prolog?3collapse_args?$AA@ 004302dc     bpr:wam.obj
 0002:000042f4       ??_C@_0BB@POCHGIDM@prolog?3fill_info?$AA@ 004302f4     bpr:wam.obj
 0002:00004308       ??_C@_04BCIDKIGN@dict?$AA@ 00430308     bpr:wam.obj
 0002:00004310       ??_C@_0M@NIMBIJKO@prolog?3vars?$AA@ 00430310     bpr:wam.obj
 0002:0000431c       ??_C@_0O@FCKMDLMD@prolog?3cc_h_b?$AA@ 0043031c     bpr:wam.obj
 0002:0000432c       ??_C@_07EMGJIMLB@execute?$AA@ 0043032c     bpr:wam.obj
 0002:00004334       ??_C@_08PNGLIBLF@firstarg?$AA@ 00430334     bpr:wam.obj
 0002:00004340       ??_C@_02PDIHAGKM@ii?$AA@   00430340     bpr:wam.obj
 0002:00004344       ??_C@_0BF@JCFEACBA@prolog?3classif_first?$AA@ 00430344     bpr:wam.obj
 0002:0000435c       ??_C@_0BA@JEJNDMCD@prolog?3firstarg?$AA@ 0043035c     bpr:wam.obj
 0002:0000436c       ??_C@_0BB@KFKOGKNM@prolog?3cc_clause?$AA@ 0043036c     bpr:wam.obj
 0002:00004380       ??_C@_0BE@MHNECCPA@prolog?3make_builtin?$AA@ 00430380     bpr:wam.obj
 0002:00004394       ??_C@_0M@IABKHOOF@prolog?3cutp?$AA@ 00430394     bpr:wam.obj
 0002:000043a0       ??_C@_0BK@FFLGDEMI@failing_to_compile_clause?$AA@ 004303a0     bpr:wam.obj
 0002:000043bc       ??_C@_0P@BHADILAH@prolog?3newpred?$AA@ 004303bc     bpr:wam.obj
 0002:000043cc       ??_C@_0P@JHIOLCFA@prolog?3gg_emit?$AA@ 004303cc     bpr:wam.obj
 0002:000043dc       ??_C@_0BJ@MCIFLHFF@prolog?3cc_compile_clause?$AA@ 004303dc     bpr:wam.obj
 0002:000043f8       ??_C@_07FHPHMDCG@BINARY?3?$AA@ 004303f8     bpr:wam.obj
 0002:00004400       ??_C@_03PDOMKJON@bin?$AA@  00430400     bpr:wam.obj
 0002:00004404       ??_C@_0BD@PCLGIHPA@prolog?3bin_builtin?$AA@ 00430404     bpr:wam.obj
 0002:00004418       ??_C@_0BE@CHFJDDDN@prolog?3c_chunk_file?$AA@ 00430418     bpr:wam.obj
 0002:0000442c       ??_C@_05KKPDJIED@wam?4h?$AA@ 0043042c     bpr:wam.obj
 0002:00004434       ??_C@_0BN@CNOJGEFB@prolog?3cc_must_have_builtins?$AA@ 00430434     bpr:wam.obj
 0002:00004454       ??_C@_0BD@FNPOCLDL@prolog?3cc_builtins?$AA@ 00430454     bpr:wam.obj
 0002:00004468       ??_C@_0BI@DMIHMECJ@prolog?3compile_builtins?$AA@ 00430468     bpr:wam.obj
 0002:00004480       ??_C@_0BC@DEEHAPDC@prolog?3cc_bincomp?$AA@ 00430480     bpr:wam.obj
 0002:00004494       ??_C@_0BG@EOKCBOPB@prolog?3compile_binary?$AA@ 00430494     bpr:wam.obj
 0002:000044ac       ??_C@_04HEMFHPJH@more?$AA@ 004304ac     bpr:wam.obj
 0002:000044b4       ??_C@_05GLLMDLIO@ready?$AA@ 004304b4     bpr:wam.obj
 0002:000044bc       ??_C@_0BD@NPGMNCFJ@v0388cserver?4pl141?$AA@ 004304bc     bpr:wam.obj
 0002:000044d0       ??_C@_0BD@JPDFAEEF@v0563cserver?4pl140?$AA@ 004304d0     bpr:wam.obj
 0002:000044e4       ??_C@_0BP@HDFPJHJE@prolog?3shell_server_eval_query?$AA@ 004304e4     bpr:wam.obj
 0002:00004504       ??_C@_0CB@JLDDGJKM@prolog?3shell_server_query_answer@ 00430504     bpr:wam.obj
 0002:00004528       ??_C@_0BP@NJHHLCFC@prolog?3shell_server_inner_loop?$AA@ 00430528     bpr:wam.obj
 0002:00004548       ??_C@_0BO@JDIEABJE@shell_server_finished_on_port?$AA@ 00430548     bpr:wam.obj
 0002:00004568       ??_C@_0BP@NHGCMKOB@prolog?3shell_server_outer_loop?$AA@ 00430568     bpr:wam.obj
 0002:00004588       ??_C@_0BN@NHLMFLNG@shell_server_running_on_port?$AA@ 00430588     bpr:wam.obj
 0002:000045a8       ??_C@_05DCCHCIFB@10001?$AA@ 004305a8     bpr:wam.obj
 0002:000045b0       ??_C@_0BG@CFCIHIL@prolog?3send_canonical?$AA@ 004305b0     bpr:wam.obj
 0002:000045c8       ??_C@_0BD@NJODGOCK@v0254cserver?4pl139?$AA@ 004305c8     bpr:wam.obj
 0002:000045dc       ??_C@_0BG@BMKGEPHO@prolog?3recv_canonical?$AA@ 004305dc     bpr:wam.obj
 0002:000045f4       ??_C@_0BE@EGONMNID@prolog?3cserver_step?$AA@ 004305f4     bpr:wam.obj
 0002:00004608       ??_C@_0BI@GJOBFCKJ@cserver_running_on_port?$AA@ 00430608     bpr:wam.obj
 0002:00004620       ??_C@_04IHPBMIJG@9001?$AA@ 00430620     bpr:wam.obj
 0002:00004628       ??_C@_0BH@CHPNLKFJ@prolog?3from_canonicals?$AA@ 00430628     bpr:wam.obj
 0002:00004640       ??_C@_0BJ@CMMKCLDG@prolog?3extract_terminals?$AA@ 00430640     bpr:wam.obj
 0002:0000465c       ??_C@_01EPMOAMKG@$?$AA@    0043065c     bpr:wam.obj
 0002:00004660       ??_C@_0BG@DGPHNDPH@prolog?3from_canonical?$AA@ 00430660     bpr:wam.obj
 0002:00004678       ??_C@_0BD@FONIMKE@prolog?3from_linear?$AA@ 00430678     bpr:wam.obj
 0002:0000468c       ??_C@_0BF@IIBPHAPN@prolog?3to_canonicals?$AA@ 0043068c     bpr:wam.obj
 0002:000046a4       ??_C@_0BI@LCKGGDLD@prolog?3inject_terminals?$AA@ 004306a4     bpr:wam.obj
 0002:000046bc       ??_C@_0BE@NOCGDLFO@prolog?3to_canonical?$AA@ 004306bc     bpr:wam.obj
 0002:000046d0       ??_C@_0BB@OIAFNBMF@prolog?3to_linear?$AA@ 004306d0     bpr:wam.obj
 0002:000046e4       ??_C@_09NCBIFILJ@holds_for?$AA@ 004306e4     bpr:wam.obj
 0002:000046f0       ??_C@_0M@DOEPHBBG@waiting_for?$AA@ 004306f0     bpr:wam.obj
 0002:000046fc       ??_C@_07PANPENDC@running?$AA@ 004306fc     bpr:wam.obj
 0002:00004704       ??_C@_07IEOHBIGJ@stopped?$AA@ 00430704     bpr:wam.obj
 0002:0000470c       ??_C@_08MPCGNPAH@error_in?$AA@ 0043070c     bpr:wam.obj
 0002:00004718       ??_C@_0BL@ENHIECEF@no_free_thread_guards_left?$AA@ 00430718     bpr:wam.obj
 0002:00004734       ??_C@_0O@JLEABPHN@should_be_var?$AA@ 00430734     bpr:wam.obj
 0002:00004744       ??_C@_04GPMDFGEJ@type?$AA@ 00430744     bpr:wam.obj
 0002:0000474c       ??_C@_06FJHNOCKE@thread?$AA@ 0043074c     bpr:wam.obj
 0002:00004754       ??_C@_0BJ@NNFGIAHA@failed_to_destroy_engine?$AA@ 00430754     bpr:wam.obj
 0002:00004770       ??_C@_0BB@PCMOGNNL@destroyed_engine?$AA@ 00430770     bpr:wam.obj
 0002:00004784       ??_C@_0M@HOKMDGHN@prolog?3when?$AA@ 00430784     bpr:wam.obj
 0002:00004790       ??_C@_0O@EBEHMKOP@available_for?$AA@ 00430790     bpr:wam.obj
 0002:000047a0       ??_C@_0P@GFGANEGD@v0393net?4pl138?$AA@ 004307a0     bpr:wam.obj
 0002:000047b0       ??_C@_0BE@EOEHLBCE@prolog?3take_pattern?$AA@ 004307b0     bpr:wam.obj
 0002:000047c4       ??_C@_0P@PDDGNJOJ@v0123net?4pl137?$AA@ 004307c4     bpr:wam.obj
 0002:000047d4       ??_C@_0BC@DMPNCKJL@prolog?3local_rall?$AA@ 004307d4     bpr:wam.obj
 0002:000047e8       ??_C@_0BC@ENMOFNAO@prolog?3local_rout?$AA@ 004307e8     bpr:wam.obj
 0002:000047fc       ??_C@_0BB@IGOPFEGN@prolog?3local_rin?$AA@ 004307fc     bpr:wam.obj
 0002:00004810       ??_C@_0P@IKLEFFKP@v0396net?4pl136?$AA@ 00430810     bpr:wam.obj
 0002:00004820       ??_C@_07BMPLEEBA@waiting?$AA@ 00430820     bpr:wam.obj
 0002:00004828       ??_C@_0P@DLLIFDFO@v0360net?4pl135?$AA@ 00430828     bpr:wam.obj
 0002:00004838       ??_C@_0BI@JIDEDKOH@may_not_stop_on_timeout?$AA@ 00430838     bpr:wam.obj
 0002:00004850       ??_C@_09FECPLFHD@goal_done?$AA@ 00430850     bpr:wam.obj
 0002:0000485c       ??_C@_0P@BIPMAEDJ@v0960net?4pl134?$AA@ 0043085c     bpr:wam.obj
 0002:0000486c       ??_C@_0BF@CKCIMNAC@running_in_forground?$AA@ 0043086c     bpr:wam.obj
 0002:00004884       ??_C@_04DKANHIJH@noid?$AA@ 00430884     bpr:wam.obj
 0002:0000488c       ??_C@_08FIBDGEAE@noengine?$AA@ 0043088c     bpr:wam.obj
 0002:00004898       ??_C@_09BPKMPNIP@nothreads?$AA@ 00430898     bpr:wam.obj
 0002:000048a4       ??_C@_0P@MEOMMENC@v0210net?4pl133?$AA@ 004308a4     bpr:wam.obj
 0002:000048b4       ??_C@_0P@PNKGONOP@v0609net?4pl132?$AA@ 004308b4     bpr:wam.obj
 0002:000048c4       ??_C@_0P@MNJKDFOC@v0400net?4pl131?$AA@ 004308c4     bpr:wam.obj
 0002:000048d4       ??_C@_08CBBMEOFB@critical?$AA@ 004308d4     bpr:wam.obj
 0002:000048e0       ??_C@_09PCPODDJK@bad_guard?$AA@ 004308e0     bpr:wam.obj
 0002:000048ec       ??_C@_0P@EGLJADFM@v0732net?4pl130?$AA@ 004308ec     bpr:wam.obj
 0002:000048fc       ??_C@_0N@OIBOBMB@thread_guard?$AA@ 004308fc     bpr:wam.obj
 0002:0000490c       ??_C@_0BH@MADMGANE@prolog?3max_thread_lock?$AA@ 0043090c     bpr:wam.obj
 0002:00004924       ??_C@_0P@MKIJEN@v0493net?4pl129?$AA@ 00430924     bpr:wam.obj
 0002:00004934       ??_C@_0BH@LKJBPDKP@prolog?3release_mutexes?$AA@ 00430934     bpr:wam.obj
 0002:0000494c       ??_C@_0BE@DCCBMPFI@prolog?3init_mutexes?$AA@ 0043094c     bpr:wam.obj
 0002:00004960       ??_C@_07PMHKKJOG@failing?$AA@ 00430960     bpr:wam.obj
 0002:00004968       ??_C@_07NACDKLFL@exiting?$AA@ 00430968     bpr:wam.obj
 0002:00004970       ??_C@_08CHLEOHIO@entering?$AA@ 00430970     bpr:wam.obj
 0002:0000497c       ??_C@_0BI@CDBLGFJH@prolog?3thread_operation?$AA@ 0043097c     bpr:wam.obj
 0002:00004994       ??_C@_0BH@JLKBIAHJ@prolog?3trace_thread_op?$AA@ 00430994     bpr:wam.obj
 0002:000049ac       ??_C@_0P@BBEJAIOJ@v0439net?4pl128?$AA@ 004309ac     bpr:wam.obj
 0002:000049bc       ??_C@_0BB@HFPHMJDF@prolog?3show_area?$AA@ 004309bc     bpr:wam.obj
 0002:000049d0       ??_C@_0P@NKAPFFGE@v0219net?4pl127?$AA@ 004309d0     bpr:wam.obj
 0002:000049e0       ??_C@_0BG@DJHIPIKB@stopped_remote_engine?$AA@ 004309e0     bpr:wam.obj
 0002:000049f8       ??_C@_0BK@KNIBPBJ@prolog?3stop_remote_engine?$AA@ 004309f8     bpr:wam.obj
 0002:00004a14       ??_C@_0BJ@BGCCIFHI@prolog?3ask_remote_engine?$AA@ 00430a14     bpr:wam.obj
 0002:00004a30       ??_C@_0BL@NMIBGKNE@prolog?3start_remote_engine?$AA@ 00430a30     bpr:wam.obj
 0002:00004a4c       ??_C@_0BF@INLGPBBJ@loaded_remote_engine?$AA@ 00430a4c     bpr:wam.obj
 0002:00004a64       ??_C@_0BK@PKEDBHCE@prolog?3load_remote_engine?$AA@ 00430a64     bpr:wam.obj
 0002:00004a80       ??_C@_0O@HBLJLDOM@unimplemented?$AA@ 00430a80     bpr:wam.obj
 0002:00004a90       ??_C@_0BG@POKPHLEM@created_remote_engine?$AA@ 00430a90     bpr:wam.obj
 0002:00004aa8       ??_C@_0BM@FOFGKDEM@prolog?3create_remote_engine?$AA@ 00430aa8     bpr:wam.obj
 0002:00004ac4       ??_C@_0BD@JHJCJNDH@prolog?3call_engine?$AA@ 00430ac4     bpr:wam.obj
 0002:00004ad8       ??_C@_0BD@CIHOKJED@prolog?3select_from?$AA@ 00430ad8     bpr:wam.obj
 0002:00004aec       ??_C@_0BH@LHDDLKDO@prolog?3pick_element_of?$AA@ 00430aec     bpr:wam.obj
 0002:00004b04       ??_C@_0BA@MPGFDFNK@$engine_message?$AA@ 00430b04     bpr:wam.obj
 0002:00004b14       ??_C@_0P@DOKFABJL@v0352net?4pl126?$AA@ 00430b14     bpr:wam.obj
 0002:00004b24       ??_C@_0P@CJLHOICG@v0218net?4pl125?$AA@ 00430b24     bpr:wam.obj
 0002:00004b34       ??_C@_0BO@CIFMFGFH@prolog?3create_or_reuse_engine?$AA@ 00430b34     bpr:wam.obj
 0002:00004b54       ??_C@_0BJ@HCIDDHJL@wrong_password_for_query?$AA@ 00430b54     bpr:wam.obj
 0002:00004b70       ??_C@_06NKIEGJEO@passwd?$AA@ 00430b70     bpr:wam.obj
 0002:00004b78       ??_C@_07FPLKDJGL@warning?$AA@ 00430b78     bpr:wam.obj
 0002:00004b80       ??_C@_03LGMJKEGG@run?$AA@  00430b80     bpr:wam.obj
 0002:00004b84       ??_C@_0BB@KIHHEMPH@prolog?3call_here?$AA@ 00430b84     bpr:wam.obj
 0002:00004b98       ??_C@_0BG@EBEKIPGI@prolog?3run_query_term?$AA@ 00430b98     bpr:wam.obj
 0002:00004bb0       ??_C@_0BA@LLFOMHPB@prolog?3react_to?$AA@ 00430bb0     bpr:wam.obj
 0002:00004bc0       ??_C@_0BK@JMLPMCDF@prolog?3disconnect_service?$AA@ 00430bc0     bpr:wam.obj
 0002:00004bdc       ??_C@_0N@INLKIHHE@prolog?3trust?$AA@ 00430bdc     bpr:wam.obj
 0002:00004bec       ??_C@_05FOPPNBKI@jinni?$AA@ 00430bec     bpr:wam.obj
 0002:00004bf4       ??_C@_04NDJIBAID@here?$AA@ 00430bf4     bpr:wam.obj
 0002:00004bfc       ??_C@_05LCFPHLEE@where?$AA@ 00430bfc     bpr:wam.obj
 0002:00004c04       ??_C@_0BA@IGPBLHJL@prolog?3run_here?$AA@ 00430c04     bpr:wam.obj
 0002:00004c14       ??_C@_0BC@MDENEGDH@prolog?3ask_server?$AA@ 00430c14     bpr:wam.obj
 0002:00004c28       ??_C@_0BM@FPOFMDAE@prolog?3ask_query_get_answer?$AA@ 00430c28     bpr:wam.obj
 0002:00004c44       ??_C@_0BD@IECDLCIM@prolog?3encode_term?$AA@ 00430c44     bpr:wam.obj
 0002:00004c58       ??_C@_0BD@DMKHHJKH@prolog?3decode_term?$AA@ 00430c58     bpr:wam.obj
 0002:00004c6c       ??_C@_0BB@DLMEMHPH@prolog?3read_from?$AA@ 00430c6c     bpr:wam.obj
 0002:00004c80       ??_C@_0BA@PHALHIPK@prolog?3write_to?$AA@ 00430c80     bpr:wam.obj
 0002:00004c90       ??_C@_0BL@GGMOADLM@prolog?3get_client_password?$AA@ 00430c90     bpr:wam.obj
 0002:00004cac       ??_C@_0BE@LEEOCIAH@prolog?3stop_service?$AA@ 00430cac     bpr:wam.obj
 0002:00004cc0       ??_C@_0BK@KGPMHIML@rpc_client_alredy_started?$AA@ 00430cc0     bpr:wam.obj
 0002:00004cdc       ??_C@_06DGDLPBAN@client?$AA@ 00430cdc     bpr:wam.obj
 0002:00004ce4       ??_C@_0L@OIFGKHMH@total_time?$AA@ 00430ce4     bpr:wam.obj
 0002:00004cf0       ??_C@_0M@NFHDHNAD@rpc_per_sec?$AA@ 00430cf0     bpr:wam.obj
 0002:00004cfc       ??_C@_05MJOOAIJH@times?$AA@ 00430cfc     bpr:wam.obj
 0002:00004d04       ??_C@_0N@HONIEOML@starting_rpc?$AA@ 00430d04     bpr:wam.obj
 0002:00004d14       ??_C@_0O@FGOMJOIE@v088net?4pl124?$AA@ 00430d14     bpr:wam.obj
 0002:00004d24       ??_C@_0BH@NGIHBNIN@prolog?3service_stopped?$AA@ 00430d24     bpr:wam.obj
 0002:00004d3c       ??_C@_0BB@FKKFBJBE@service_finished?$AA@ 00430d3c     bpr:wam.obj
 0002:00004d50       ??_C@_0BI@IJNBIDHL@prolog?3starting_service?$AA@ 00430d50     bpr:wam.obj
 0002:00004d68       ??_C@_0P@DOOFBJOC@v0789net?4pl123?$AA@ 00430d68     bpr:wam.obj
 0002:00004d78       ??_C@_0N@IKLKCFBM@prolog?3serve?$AA@ 00430d78     bpr:wam.obj
 0002:00004d88       ??_C@_0BC@DIDOACLA@prolog?3disconnect?$AA@ 00430d88     bpr:wam.obj
 0002:00004d9c       ??_C@_0BF@BEAGEKML@prolog?3close_csocket?$AA@ 00430d9c     bpr:wam.obj
 0002:00004db4       ??_C@_0BD@MFHKFOHD@prolog?3csock_write?$AA@ 00430db4     bpr:wam.obj
 0002:00004dc8       ??_C@_0BC@LMECPLNA@prolog?3csock_read?$AA@ 00430dc8     bpr:wam.obj
 0002:00004ddc       ??_C@_0BE@LCLOABCF@prolog?3new_cservice?$AA@ 00430ddc     bpr:wam.obj
 0002:00004df0       ??_C@_0BD@GEBBECBK@prolog?3new_cserver?$AA@ 00430df0     bpr:wam.obj
 0002:00004e04       ??_C@_0M@JIHMBNAA@prolog?3succ?$AA@ 00430e04     bpr:wam.obj
 0002:00004e10       ??_C@_0L@KIOPFFEA@prolog?3fun?$AA@ 00430e10     bpr:wam.obj
 0002:00004e1c       ??_C@_0O@CHMMJBIB@prolog?3httest?$AA@ 00430e1c     bpr:wam.obj
 0002:00004e2c       ??_C@_0BA@KJAIJOOO@prolog?3pushEach?$AA@ 00430e2c     bpr:wam.obj
 0002:00004e3c       ??_C@_0BB@JAGNGIDL@prolog?3pushTerms?$AA@ 00430e3c     bpr:wam.obj
 0002:00004e50       ??_C@_0BA@EPCCJCKC@prolog?3pushAtom?$AA@ 00430e50     bpr:wam.obj
 0002:00004e60       ??_C@_0BC@MOJCJBOE@prolog?3pushNumber?$AA@ 00430e60     bpr:wam.obj
 0002:00004e74       ??_C@_0BA@BLHJIKIJ@prolog?3pushTerm?$AA@ 00430e74     bpr:wam.obj
 0002:00004e84       ??_C@_02MEEAJGGO@?93?$AA@  00430e84     bpr:wam.obj
 0002:00004e88       ??_C@_0BA@PNMKPIJJ@prolog?3makeArgs?$AA@ 00430e88     bpr:wam.obj
 0002:00004e98       ??_C@_0P@GNKHFLOD@prolog?3makeSym?$AA@ 00430e98     bpr:wam.obj
 0002:00004ea8       ??_C@_0O@BFNBGJDM@prolog?3lookUp?$AA@ 00430ea8     bpr:wam.obj
 0002:00004eb8       ??_C@_0BA@FGKINBAJ@prolog?3makeTerm?$AA@ 00430eb8     bpr:wam.obj
 0002:00004ec8       ??_C@_0P@IKPFCLDM@prolog?3newDict?$AA@ 00430ec8     bpr:wam.obj
 0002:00004ed8       ??_C@_0P@PGGDCPLG@prolog?3popTerm?$AA@ 00430ed8     bpr:wam.obj
 0002:00004ee8       ??_C@_0BJ@IFBDPNNJ@prolog?3call_jinni_string?$AA@ 00430ee8     bpr:wam.obj
 0002:00004f04       ??_C@_0BH@IFKDKHJG@prolog?3call_jinni_term?$AA@ 00430f04     bpr:wam.obj
 0002:00004f1c       ??_C@_0BB@PLMDMIBD@v0174extra?4pl122?$AA@ 00430f1c     bpr:wam.obj
 0002:00004f30       ??_C@_0BF@FOOLKHFH@prolog?3nonvar_member?$AA@ 00430f30     bpr:wam.obj
 0002:00004f48       ??_C@_0BF@JLGKIKPJ@prolog?3nonvar_select?$AA@ 00430f48     bpr:wam.obj
 0002:00004f60       ??_C@_0BI@OLDFEAME@prolog?3match_assumption?$AA@ 00430f60     bpr:wam.obj
 0002:00004f78       ??_C@_0BK@ILPNBBGF@prolog?3consume_assumption?$AA@ 00430f78     bpr:wam.obj
 0002:00004f94       ??_C@_0BJ@OGJEFGDN@prolog?3equate_assumption?$AA@ 00430f94     bpr:wam.obj
 0002:00004fb0       ??_C@_0BG@LDCOJEGK@prolog?3add_assumption?$AA@ 00430fb0     bpr:wam.obj
 0002:00004fc8       ??_C@_0BJ@LJPGJMPO@prolog?3new_assumption_db?$AA@ 00430fc8     bpr:wam.obj
 0002:00004fe4       ??_C@_0BB@DLJDGNMJ@v0864extra?4pl121?$AA@ 00430fe4     bpr:wam.obj
 0002:00004ff8       ??_C@_0BO@HDLEABPO@expected_end_marker_not_found?$AA@ 00430ff8     bpr:wam.obj
 0002:00005018       ??_C@_0CC@GOPFIAAE@end_of_continuation_stack_reache@ 00431018     bpr:wam.obj
 0002:0000503c       ??_C@_0BF@MOHEPGPG@prolog?3consume_cont1?$AA@ 0043103c     bpr:wam.obj
 0002:00005054       ??_C@_0BE@EEMMGJEN@prolog?3consume_cont?$AA@ 00431054     bpr:wam.obj
 0002:00005068       ??_C@_0BJ@HAFKNILD@prolog?3do_or_throw_again?$AA@ 00431068     bpr:wam.obj
 0002:00005084       ??_C@_0BB@BLAFMNGL@prolog?3$to_catch?$AA@ 00431084     bpr:wam.obj
 0002:00005098       ??_C@_0CB@DGJFLKDK@?5?$DL?5for?5more?0?5?$DMreturn?$DO?5otherwise?5@ 00431098     bpr:wam.obj
 0002:000050bc       ??_C@_0BD@JHJNHDGL@prolog?3user_action?$AA@ 004310bc     bpr:wam.obj
 0002:000050d0       ??_C@_0BG@HHKODPLL@prolog?3report_one_var?$AA@ 004310d0     bpr:wam.obj
 0002:000050e8       ??_C@_0BH@IPAPIBFF@prolog?3report_top_vars?$AA@ 004310e8     bpr:wam.obj
 0002:00005100       ??_C@_0BD@JBJHKBEC@prolog?3another_sol?$AA@ 00431100     bpr:wam.obj
 0002:00005114       ??_C@_0BD@HGMJFKMF@prolog?3ask_answers?$AA@ 00431114     bpr:wam.obj
 0002:00005128       ??_C@_0P@DCKNELLC@v0467top?4pl120?$AA@ 00431128     bpr:wam.obj
 0002:00005138       ??_C@_0BG@DMNHMND@prolog?3report_answers?$AA@ 00431138     bpr:wam.obj
 0002:00005150       ??_C@_03NDOCDJAF@?$DP?9?5?$AA@ 00431150     bpr:wam.obj
 0002:00005154       ??_C@_0P@GFAAKJLL@v0801top?4pl118?$AA@ 00431154     bpr:wam.obj
 0002:00005164       ??_C@_0P@GAFNHKDK@v0543top?4pl119?$AA@ 00431164     bpr:wam.obj
 0002:00005174       ??_C@_0BH@NFNDOMJP@enter_call_prolog_term?$AA@ 00431174     bpr:wam.obj
 0002:0000518c       ??_C@_0BG@GKIAJHKB@exit_call_prolog_term?$AA@ 0043118c     bpr:wam.obj
 0002:000051a4       ??_C@_0BI@NEMKKHII@prolog?3call_prolog_term?$AA@ 004311a4     bpr:wam.obj
 0002:000051bc       ??_C@_0BD@OCDKFPPI@prolog?3call_prolog?$AA@ 004311bc     bpr:wam.obj
 0002:000051d0       ??_C@_0BD@JIEAHEGK@prolog?3prolog_run0?$AA@ 004311d0     bpr:wam.obj
 0002:000051e4       ??_C@_0P@LMDNHCAH@v0836top?4pl117?$AA@ 004311e4     bpr:wam.obj
 0002:000051f4       ??_C@_0BA@KFEFAGBL@prolog?3l_magic2?$AA@ 004311f4     bpr:wam.obj
 0002:00005204       ??_C@_03OEDMMJDH@?3?9?5?$AA@ 00431204     bpr:wam.obj
 0002:00005208       ??_C@_03PNJEBBD@?5?9?$DO?$AA@ 00431208     bpr:wam.obj
 0002:0000520c       ??_C@_04OCNHEMAJ@?$DL?5?5?5?$AA@ 0043120c     bpr:wam.obj
 0002:00005214       ??_C@_04MFJHKBFL@?$CI?5?5?5?$AA@ 00431214     bpr:wam.obj
 0002:0000521c       ??_C@_03JJJGFCCH@?0?5?5?$AA@ 0043121c     bpr:wam.obj
 0002:00005220       ??_C@_04MCJLMODC@?5?3?9?5?$AA@ 00431220     bpr:wam.obj
 0002:00005228       ??_C@_0BC@CBICGLF@prolog?3l_magic_nl?$AA@ 00431228     bpr:wam.obj
 0002:0000523c       ??_C@_0P@IHGECBKH@prolog?3l_magic?$AA@ 0043123c     bpr:wam.obj
 0002:0000524c       ??_C@_0BB@LACMCDBJ@prolog?3l_clauses?$AA@ 0043124c     bpr:wam.obj
 0002:00005260       ??_C@_0BC@KLALJOEH@prolog?3pp_clause0?$AA@ 00431260     bpr:wam.obj
 0002:00005274       ??_C@_0BL@KFHDBDHN@prolog?3classify_other_tail?$AA@ 00431274     bpr:wam.obj
 0002:00005290       ??_C@_05BGEKGIIP@other?$AA@ 00431290     bpr:wam.obj
 0002:00005298       ??_C@_0BL@BJFHIKIM@prolog?3classify_alpha_tail?$AA@ 00431298     bpr:wam.obj
 0002:000052b4       ??_C@_0BF@KIKBNBNI@prolog?3classify_name?$AA@ 004312b4     bpr:wam.obj
 0002:000052cc       ??_C@_0BB@PBNOOCGE@v0181write?4pl116?$AA@ 004312cc     bpr:wam.obj
 0002:000052e0       ??_C@_0BB@NPLMAOJB@v0473write?4pl115?$AA@ 004312e0     bpr:wam.obj
 0002:000052f4       ??_C@_03EIGKDDJI@700?$AA@  004312f4     bpr:wam.obj
 0002:000052f8       ??_C@_0BB@HNGDLNHC@v0360write?4pl114?$AA@ 004312f8     bpr:wam.obj
 0002:0000530c       ??_C@_0O@OFDHPBCJ@prolog?3w_oper?$AA@ 0043130c     bpr:wam.obj
 0002:0000531c       ??_C@_0BB@JEMJBKAE@v0476write?4pl113?$AA@ 0043131c     bpr:wam.obj
 0002:00005330       ??_C@_0P@FMCAIJBL@v08write?4pl112?$AA@ 00431330     bpr:wam.obj
 0002:00005340       ??_C@_0BB@MJLAEFPN@v0593write?4pl111?$AA@ 00431340     bpr:wam.obj
 0002:00005354       ??_C@_0O@MHPJKBPL@prolog?3w_tail?$AA@ 00431354     bpr:wam.obj
 0002:00005364       ??_C@_0O@OKJBGCOM@prolog?3w_args?$AA@ 00431364     bpr:wam.obj
 0002:00005374       ??_C@_0O@BFKIFDFH@prolog?3w_atom?$AA@ 00431374     bpr:wam.obj
 0002:00005384       ??_C@_0BB@PPIAPPKI@v0804write?4pl110?$AA@ 00431384     bpr:wam.obj
 0002:00005398       ??_C@_0BB@KFCCOLAI@v0984write?4pl109?$AA@ 00431398     bpr:wam.obj
 0002:000053ac       ??_C@_0N@GEMJKMGF@prolog?3w_VAR?$AA@ 004313ac     bpr:wam.obj
 0002:000053bc       ??_C@_0BC@DOHLBGME@prolog?3w_variable?$AA@ 004313bc     bpr:wam.obj
 0002:000053d0       ??_C@_0BC@CJECDPNJ@prolog?3put_string?$AA@ 004313d0     bpr:wam.obj
 0002:000053e4       ??_C@_05IAEKHIAN@alpha?$AA@ 004313e4     bpr:wam.obj
 0002:000053ec       ??_C@_05JHEGFHLM@quote?$AA@ 004313ec     bpr:wam.obj
 0002:000053f4       ??_C@_0BD@MPBMILNF@prolog?3maybe_space?$AA@ 004313f4     bpr:wam.obj
 0002:00005408       ??_C@_0BD@LBNNBKEB@prolog?3maybe_paren?$AA@ 00431408     bpr:wam.obj
 0002:0000541c       ??_C@_0BH@OLBMMDBL@prolog?3top_writeq_atom?$AA@ 0043141c     bpr:wam.obj
 0002:00005434       ??_C@_0N@JFGNFCG@prolog?3w_out?$AA@ 00431434     bpr:wam.obj
 0002:00005444       ??_C@_05KOBGHFJJ@punct?$AA@ 00431444     bpr:wam.obj
 0002:0000544c       ??_C@_0BC@MMBELPNJ@prolog?3r_varcount?$AA@ 0043144c     bpr:wam.obj
 0002:00005460       ??_C@_0BA@BNKHIEDD@prolog?3r_lookup?$AA@ 00431460     bpr:wam.obj
 0002:00005470       ??_C@_0O@PHFBBCKF@prolog?3r_digs?$AA@ 00431470     bpr:wam.obj
 0002:00005480       ??_C@_0BA@EIIHJDPH@prolog?3r_digits?$AA@ 00431480     bpr:wam.obj
 0002:00005490       ??_C@_0N@GMIDFHNI@prolog?3r_int?$AA@ 00431490     bpr:wam.obj
 0002:000054a0       ??_C@_0CD@LFKDPIH@?$CB?5end_of_file?5just?5after?5full_st@ 004314a0     bpr:wam.obj
 0002:000054c4       ??_C@_0BO@DGOMEACK@?$CB?5end_of_file?5in?5?1?$CK?4?4?5comment?$AA@ 004314c4     bpr:wam.obj
 0002:000054e4       ??_C@_0BD@CILDEKFL@prolog?3patch_slash?$AA@ 004314e4     bpr:wam.obj
 0002:000054f8       ??_C@_0BD@IFGEJAFG@prolog?3more_string?$AA@ 004314f8     bpr:wam.obj
 0002:0000550c       ??_C@_0BD@PMPFOIOO@?$CB?5end?5of?5file?5in?3?5?$AA@ 0043150c     bpr:wam.obj
 0002:00005520       ??_C@_05JMKJMOPH@token?$AA@ 00431520     bpr:wam.obj
 0002:00005528       ??_C@_0BA@KJLAOOID@prolog?3r_symbol?$AA@ 00431528     bpr:wam.obj
 0002:00005538       ??_C@_0BB@HKIPGKIA@prolog?3r_integer?$AA@ 00431538     bpr:wam.obj
 0002:0000554c       ??_C@_0BA@EFMLFFIM@v0523read?4pl108?$AA@ 0043154c     bpr:wam.obj
 0002:0000555c       ??_C@_0O@GJFKBCOK@prolog?3r_name?$AA@ 0043155c     bpr:wam.obj
 0002:0000556c       ??_C@_0BA@MCKJMJPD@prolog?3r_string?$AA@ 0043156c     bpr:wam.obj
 0002:0000557c       ??_C@_0BC@CGJACFOK@prolog?3r_fullstop?$AA@ 0043157c     bpr:wam.obj
 0002:00005590       ??_C@_0BE@GKPGHDBL@prolog?3r_after_atom?$AA@ 00431590     bpr:wam.obj
 0002:000055a4       ??_C@_0BB@MHOBMPP@prolog?3r_solidus?$AA@ 004315a4     bpr:wam.obj
 0002:000055b8       ??_C@_0O@LLMACDJP@prolog?3r_toks?$AA@ 004315b8     bpr:wam.obj
 0002:000055c8       ??_C@_09BPADJGJI@?5?$DMHERE?$DN?$DO?5?$AA@ 004315c8     bpr:wam.obj
 0002:000055d4       ??_C@_05GJGEDGEA@99999?$AA@ 004315d4     bpr:wam.obj
 0002:000055dc       ??_C@_0BF@BPFIDOGH@prolog?3display_token?$AA@ 004315dc     bpr:wam.obj
 0002:000055f4       ??_C@_0BE@BMKABHML@prolog?3display_list?$AA@ 004315f4     bpr:wam.obj
 0002:00005608       ??_C@_0BC@IDGDNJLK@?5?$CIapprox?4?$CJ?0?5BYTE?$DN?$AA@ 00431608     bpr:wam.obj
 0002:0000561c       ??_C@_0BJ@EGDHLGLP@?$CK?$CK?5SYNTAX?5ERROR?5?$CK?$CK?5LINE?$DN?$AA@ 0043161c     bpr:wam.obj
 0002:00005638       ??_C@_0BL@IOGBKLPM@prolog?3finish_syntax_error?$AA@ 00431638     bpr:wam.obj
 0002:00005654       ??_C@_03JIDPIAJI@err?$AA@  00431654     bpr:wam.obj
 0002:00005658       ??_C@_0BK@NJFDDEBK@prolog?3start_syntax_error?$AA@ 00431658     bpr:wam.obj
 0002:00005674       ??_C@_07IHLGFCAL@bracket?$AA@ 00431674     bpr:wam.obj
 0002:0000567c       ??_C@_08LODIKCGI@variable?$AA@ 0043167c     bpr:wam.obj
 0002:00005688       ??_C@_0BI@BCCEDJNO@prolog?3cant_follow_expr?$AA@ 00431688     bpr:wam.obj
 0002:000056a0       ??_C@_07OELKFDHO@follows?$AA@ 004316a0     bpr:wam.obj
 0002:000056a8       ??_C@_0P@MNBDCMLM@v044read?4pl107?$AA@ 004316a8     bpr:wam.obj
 0002:000056b8       ??_C@_04BGCGNFHD@1100?$AA@ 004316b8     bpr:wam.obj
 0002:000056c0       ??_C@_0O@PAGABEJJ@prolog?3peepop?$AA@ 004316c0     bpr:wam.obj
 0002:000056d0       ??_C@_0O@IOMDHHAA@prolog?3exprtl?$AA@ 004316d0     bpr:wam.obj
 0002:000056e0       ??_C@_0BG@GJGGKJGF@prolog?3prefix_is_atom?$AA@ 004316e0     bpr:wam.obj
 0002:000056f8       ??_C@_0L@ECKNJGGO@precedence?$AA@ 004316f8     bpr:wam.obj
 0002:00005704       ??_C@_04MKNNKNJH@with?$AA@ 00431704     bpr:wam.obj
 0002:0000570c       ??_C@_07JKKCBBMM@context?$AA@ 0043170c     bpr:wam.obj
 0002:00005714       ??_C@_06CHGOAPND@prefix?$AA@ 00431714     bpr:wam.obj
 0002:0000571c       ??_C@_04DONFEANM@list?$AA@ 0043171c     bpr:wam.obj
 0002:00005724       ??_C@_02FCEAJEMA@?$HM?$FN?$AA@ 00431724     bpr:wam.obj
 0002:00005728       ??_C@_01DNKMNLPK@?$HM?$AA@ 00431728     bpr:wam.obj
 0002:0000572c       ??_C@_09PBNAMLIK@arguments?$AA@ 0043172c     bpr:wam.obj
 0002:00005738       ??_C@_02HFKPAGIC@?0?$CJ?$AA@ 00431738     bpr:wam.obj
 0002:0000573c       ??_C@_02LCNFMBND@an?$AA@   0043173c     bpr:wam.obj
 0002:00005740       ??_C@_05FAGFPHJG@start?$AA@ 00431740     bpr:wam.obj
 0002:00005748       ??_C@_06OOEGNDPF@cannot?$AA@ 00431748     bpr:wam.obj
 0002:00005750       ??_C@_06ICGJLFIM@string?$AA@ 00431750     bpr:wam.obj
 0002:00005758       ??_C@_01CELHOKLL@?$HN?$AA@ 00431758     bpr:wam.obj
 0002:0000575c       ??_C@_01HCONENDN@?$HL?$AA@ 0043175c     bpr:wam.obj
 0002:00005760       ??_C@_02GLLNJPBP@?$CI?$CI?$AA@ 00431760     bpr:wam.obj
 0002:00005764       ??_C@_01PKGAHCOL@?$CJ?$AA@ 00431764     bpr:wam.obj
 0002:00005768       ??_C@_0O@JDEPMEAP@prolog?3r_list?$AA@ 00431768     bpr:wam.obj
 0002:00005778       ??_C@_01LBDDMOBJ@?$FN?$AA@ 00431778     bpr:wam.obj
 0002:0000577c       ??_C@_01OHGJGJJP@?$FL?$AA@ 0043177c     bpr:wam.obj
 0002:00005780       ??_C@_0BH@MNGFKCKG@prolog?3after_prefix_op?$AA@ 00431780     bpr:wam.obj
 0002:00005798       ??_C@_03HGKGMEGN@999?$AA@  00431798     bpr:wam.obj
 0002:0000579c       ??_C@_05KAEIDCAL@apply?$AA@ 0043179c     bpr:wam.obj
 0002:000057a4       ??_C@_0P@NPMIPFIE@prolog?3exprtl0?$AA@ 004317a4     bpr:wam.obj
 0002:000057b4       ??_C@_0O@LIKJENEL@prolog?3r_args?$AA@ 004317b4     bpr:wam.obj
 0002:000057c4       ??_C@_01ODHLEDKK@?$CI?$AA@ 004317c4     bpr:wam.obj
 0002:000057c8       ??_C@_0L@IJDKJDKD@prolog?3rts?$AA@ 004317c8     bpr:wam.obj
 0002:000057d4       ??_C@_0P@IHNJEEDJ@prolog?3ambigop?$AA@ 004317d4     bpr:wam.obj
 0002:000057e4       ??_C@_0P@PGDPEAMO@prolog?3infixop?$AA@ 004317e4     bpr:wam.obj
 0002:000057f4       ??_C@_0BB@MCKLHKAA@prolog?3postfixop?$AA@ 004317f4     bpr:wam.obj
 0002:00005808       ??_C@_0BA@DPOIOEFO@prolog?3prefixop?$AA@ 00431808     bpr:wam.obj
 0002:00005818       ??_C@_0O@NIHPDFIK@prolog?3expect?$AA@ 00431818     bpr:wam.obj
 0002:00005828       ??_C@_0L@FKCCBALC@expression?$AA@ 00431828     bpr:wam.obj
 0002:00005834       ??_C@_05CMKPCFDK@after?$AA@ 00431834     bpr:wam.obj
 0002:0000583c       ??_C@_08LBKEHGGD@expected?$AA@ 0043183c     bpr:wam.obj
 0002:00005848       ??_C@_08LHJFAFGD@operator?$AA@ 00431848     bpr:wam.obj
 0002:00005854       ??_C@_0BE@DFNMJCNG@prolog?3syntax_error?$AA@ 00431854     bpr:wam.obj
 0002:00005868       ??_C@_09CALEGDBP@prolog?3rt?$AA@ 00431868     bpr:wam.obj
 0002:00005874       ??_C@_0BA@MKPMFBEN@prolog?3all_read?$AA@ 00431874     bpr:wam.obj
 0002:00005884       ??_C@_0BD@JHMMMPNF@prolog?3r_and_check?$AA@ 00431884     bpr:wam.obj
 0002:00005898       ??_C@_0P@PMGCJEEJ@prolog?3r_term2?$AA@ 00431898     bpr:wam.obj
 0002:000058a8       ??_C@_0BO@HLOMCKLM@prolog?3clean_up_syntax_errors?$AA@ 004318a8     bpr:wam.obj
 0002:000058c8       ??_C@_0BH@INMKFBOL@prolog?3portable_writeq?$AA@ 004318c8     bpr:wam.obj
 0002:000058e0       ??_C@_0BG@OFFOFPLF@prolog?3portable_write?$AA@ 004318e0     bpr:wam.obj
 0002:000058f8       ??_C@_0BG@LKDDGKLL@prolog?3portable_print?$AA@ 004318f8     bpr:wam.obj
 0002:00005910       ??_C@_0P@NHEPMHIK@prolog?3r_term1?$AA@ 00431910     bpr:wam.obj
 0002:00005920       ??_C@_0BE@MJAIELLL@prolog?3read_or_fail?$AA@ 00431920     bpr:wam.obj
 0002:00005934       ??_C@_0O@DCCIJPDD@prolog?3r_vars?$AA@ 00431934     bpr:wam.obj
 0002:00005944       ??_C@_04HJPCFDOP@line?$AA@ 00431944     bpr:wam.obj
 0002:0000594c       ??_C@_04IHGKJMLH@byte?$AA@ 0043194c     bpr:wam.obj
 0002:00005954       ??_C@_0CB@POGEHOJD@?$CK?$CK?5warning?5singleton_variables?$DN?$DO@ 00431954     bpr:wam.obj
 0002:00005978       ??_C@_03GHILOMKH@?$DN?$DO?5?$AA@ 00431978     bpr:wam.obj
 0002:0000597c       ??_C@_05KLLECLOJ@?3?9?4?4?4?$AA@ 0043197c     bpr:wam.obj
 0002:00005984       ??_C@_0BF@GIMKLBMO@prolog?3melt_varnames?$AA@ 00431984     bpr:wam.obj
 0002:0000599c       ??_C@_0BI@MMLEIEPD@prolog?3warn_singletons1?$AA@ 0043199c     bpr:wam.obj
 0002:000059b4       ??_C@_0O@BDMLGENL@prolog?3r_term?$AA@ 004319b4     bpr:wam.obj
 0002:000059c4       ??_C@_0BC@DPGNPIKJ@prolog?3singletons?$AA@ 004319c4     bpr:wam.obj
 0002:000059d8       ??_C@_0BA@DKAMBMBC@v0335read?4pl105?$AA@ 004319d8     bpr:wam.obj
 0002:000059e8       ??_C@_0BA@CLOIKNOK@v0708read?4pl106?$AA@ 004319e8     bpr:wam.obj
 0002:000059f8       ??_C@_0P@MOBICEEB@file_not_found?$AA@ 004319f8     bpr:wam.obj
 0002:00005a08       ??_C@_0BC@BFENHBLO@prolog?3see_a_file?$AA@ 00431a08     bpr:wam.obj
 0002:00005a1c       ??_C@_0BC@BOKODHNK@prolog?3find_file2?$AA@ 00431a1c     bpr:wam.obj
 0002:00005a30       ??_C@_0P@HIJBHOJB@v049read?4pl104?$AA@ 00431a30     bpr:wam.obj
 0002:00005a40       ??_C@_0O@LFBIBIFE@bad?5file?5name?$AA@ 00431a40     bpr:wam.obj
 0002:00005a50       ??_C@_07OPILGPEN@library?$AA@ 00431a50     bpr:wam.obj
 0002:00005a58       ??_C@_0BC@DFIDGEBJ@prolog?3find_file1?$AA@ 00431a58     bpr:wam.obj
 0002:00005a6c       ??_C@_0BA@PHBDLGCL@v0852read?4pl103?$AA@ 00431a6c     bpr:wam.obj
 0002:00005a7c       ??_C@_0BC@IBIJGLKK@unable_to_tell_at?$AA@ 00431a7c     bpr:wam.obj
 0002:00005a90       ??_C@_0BB@FDHMPHMP@unable_to_see_at?$AA@ 00431a90     bpr:wam.obj
 0002:00005aa4       ??_C@_0BE@NGLMIFLM@unable_to_append_to?$AA@ 00431aa4     bpr:wam.obj
 0002:00005ab8       ??_C@_0P@KNEFLICD@unable_to_tell?$AA@ 00431ab8     bpr:wam.obj
 0002:00005ac8       ??_C@_0O@CKCBMLOJ@unable_to_see?$AA@ 00431ac8     bpr:wam.obj
 0002:00005ad8       ??_C@_02BOGAIONP@ab?$AA@   00431ad8     bpr:wam.obj
 0002:00005adc       ??_C@_02GMLFBBN@wb?$AA@    00431adc     bpr:wam.obj
 0002:00005ae0       ??_C@_0BA@KKGJJAEL@v0158read?4pl102?$AA@ 00431ae0     bpr:wam.obj
 0002:00005af0       ??_C@_0BC@CMGLMIDP@prolog?3set_stream?$AA@ 00431af0     bpr:wam.obj
 0002:00005b04       ??_C@_0BK@BNEADNBL@prolog?3set_default_stream?$AA@ 00431b04     bpr:wam.obj
 0002:00005b20       ??_C@_0BA@KMEMLANJ@unable_to_close?$AA@ 00431b20     bpr:wam.obj
 0002:00005b30       ??_C@_0BG@FEGCKACJ@prolog?3current_stream?$AA@ 00431b30     bpr:wam.obj
 0002:00005b48       ??_C@_0BA@MDPEGKGK@v0519read?4pl101?$AA@ 00431b48     bpr:wam.obj
 0002:00005b58       ??_C@_0P@IPCLGLH@v0993read?4pl99?$AA@ 00431b58     bpr:wam.obj
 0002:00005b68       ??_C@_0P@MFHONKAF@v094read?4pl100?$AA@ 00431b68     bpr:wam.obj
 0002:00005b78       ??_C@_0BC@DCEEHPHG@prolog?3get_stream?$AA@ 00431b78     bpr:wam.obj
 0002:00005b8c       ??_C@_0O@INOLIJN@prolog?3mode2c?$AA@ 00431b8c     bpr:wam.obj
 0002:00005b9c       ??_C@_0BB@MLABKELE@prolog?3user_file?$AA@ 00431b9c     bpr:wam.obj
 0002:00005bb0       ??_C@_0BG@OHLELFEE@error_in_flush_output?$AA@ 00431bb0     bpr:wam.obj
 0002:00005bc8       ??_C@_0BF@JOPKBOCC@error_in_put_char_to?$AA@ 00431bc8     bpr:wam.obj
 0002:00005be0       ??_C@_0P@LANGKFPD@v0336read?4pl98?$AA@ 00431be0     bpr:wam.obj
 0002:00005bf0       ??_C@_0BH@KJHAEPI@bad_stream_in_put_code?$AA@ 00431bf0     bpr:wam.obj
 0002:00005c08       ??_C@_0BH@LOINBKGL@bad_stream_in_get_code?$AA@ 00431c08     bpr:wam.obj
 0002:00005c20       ??_C@_0BG@FHCNONJG@prolog?3parse_dir_list?$AA@ 00431c20     bpr:wam.obj
 0002:00005c38       ??_C@_0BD@EPJMEEKH@dir?5?1B?5?1O?3EN?5?1A?3?9D?$AA@ 00431c38     bpr:wam.obj
 0002:00005c4c       ??_C@_0BB@BKILGLKB@dir?5?1B?5?1O?3N?5?1A?3D?$AA@ 00431c4c     bpr:wam.obj
 0002:00005c60       ??_C@_08HELIPADA@ls?5?9F?5?91?$AA@ 00431c60     bpr:wam.obj
 0002:00005c6c       ??_C@_0BB@FIMDGCLE@prolog?3pcollect0?$AA@ 00431c6c     bpr:wam.obj
 0002:00005c80       ??_C@_0BE@IOFKEAHB@prolog?3close_f_or_p?$AA@ 00431c80     bpr:wam.obj
 0002:00005c94       ??_C@_01NOFIACDB@w?$AA@    00431c94     bpr:wam.obj
 0002:00005c98       ??_C@_07LMHOMJDI@$stream?$AA@ 00431c98     bpr:wam.obj
 0002:00005ca0       ??_C@_01KDCPPGHE@r?$AA@    00431ca0     bpr:wam.obj
 0002:00005ca4       ??_C@_0BH@NPOKIDIO@prolog?3read_more_chars?$AA@ 00431ca4     bpr:wam.obj
 0002:00005cbc       ??_C@_0BA@DOHHAAFM@prolog?3peval_io?$AA@ 00431cbc     bpr:wam.obj
 0002:00005ccc       ??_C@_09FFOBGDAJ@binprolog?$AA@ 00431ccc     bpr:wam.obj
 0002:00005cd8       ??_C@_0BA@DAJEIEMJ@prolog?3dcg_CONJ?$AA@ 00431cd8     bpr:wam.obj
 0002:00005ce8       ??_C@_0BB@FDOKFBNF@prolog?3dcg_disj0?$AA@ 00431ce8     bpr:wam.obj
 0002:00005cfc       ??_C@_0BA@BLKOABJE@prolog?3dcg_term?$AA@ 00431cfc     bpr:wam.obj
 0002:00005d0c       ??_C@_02MCILKGOH@?$HL?$HN?$AA@ 00431d0c     bpr:wam.obj
 0002:00005d10       ??_C@_0BA@HPBLNFFO@prolog?3dcg_disj?$AA@ 00431d10     bpr:wam.obj
 0002:00005d20       ??_C@_0BA@FECICAMK@prolog?3dcg_goal?$AA@ 00431d20     bpr:wam.obj
 0002:00005d30       ??_C@_02IAFNOECI@?$EA?$EA?$AA@ 00431d30     bpr:wam.obj
 0002:00005d34       ??_C@_0BA@HBBMNNHH@prolog?3dcg_head?$AA@ 00431d34     bpr:wam.obj
 0002:00005d44       ??_C@_0BA@PMKOGGLB@prolog?3dcg_conj?$AA@ 00431d44     bpr:wam.obj
 0002:00005d54       ??_C@_0BA@KNLGILEF@prolog?3dcg_body?$AA@ 00431d54     bpr:wam.obj
 0002:00005d64       ??_C@_0BG@GJABGOLF@dcg?5expansion?5error?9?$DO?$AA@ 00431d64     bpr:wam.obj
 0002:00005d7c       ??_C@_0BA@BKJGKHNJ@prolog?3dcg_rule?$AA@ 00431d7c     bpr:wam.obj
 0002:00005d8c       ??_C@_03PNLDJJMO@?9?9?$DO?$AA@ 00431d8c     bpr:wam.obj
 0002:00005d90       ??_C@_0BJ@PADOPKOE@prolog?3try_dcg_expansion?$AA@ 00431d90     bpr:wam.obj
 0002:00005dac       ??_C@_0P@HNJKPIFB@v0520maps?4pl97?$AA@ 00431dac     bpr:wam.obj
 0002:00005dbc       ??_C@_0P@LFGCNGKB@v0331maps?4pl95?$AA@ 00431dbc     bpr:wam.obj
 0002:00005dcc       ??_C@_0P@LJEJPEBA@v0863maps?4pl96?$AA@ 00431dcc     bpr:wam.obj
 0002:00005ddc       ??_C@_0BC@KABDJHGG@prolog?3mmap_show_?$AA@ 00431ddc     bpr:wam.obj
 0002:00005df0       ??_C@_0P@INLGOICA@v0856maps?4pl94?$AA@ 00431df0     bpr:wam.obj
 0002:00005e00       ??_C@_0BB@DIJANOFE@prolog?3map_show_?$AA@ 00431e00     bpr:wam.obj
 0002:00005e14       ??_C@_0P@NDKCIDGL@v0610maps?4pl93?$AA@ 00431e14     bpr:wam.obj
 0002:00005e24       ??_C@_05GPCICBPL@$keys?$AA@ 00431e24     bpr:wam.obj
 0002:00005e2c       ??_C@_04KCPKHGBJ@$map?$AA@ 00431e2c     bpr:wam.obj
 0002:00005e34       ??_C@_0P@FIPHBBJC@v0170maps?4pl92?$AA@ 00431e34     bpr:wam.obj
 0002:00005e44       ??_C@_0BD@FEIIEIFH@prolog?3mmap_gc_one?$AA@ 00431e44     bpr:wam.obj
 0002:00005e58       ??_C@_06FACDBJAN@$mkeys?$AA@ 00431e58     bpr:wam.obj
 0002:00005e60       ??_C@_05BMMEFNLP@$mmap?$AA@ 00431e60     bpr:wam.obj
 0002:00005e68       ??_C@_02NCIKJMKA@$2?$AA@   00431e68     bpr:wam.obj
 0002:00005e6c       ??_C@_0BA@NFCMLHAI@prolog?3g_update?$AA@ 00431e6c     bpr:wam.obj
 0002:00005e7c       ??_C@_0P@LMMBBDIB@prolog?3g_set_k?$AA@ 00431e7c     bpr:wam.obj
 0002:00005e8c       ??_C@_0N@CMGKJNNH@prolog?3g_key?$AA@ 00431e8c     bpr:wam.obj
 0002:00005e9c       ??_C@_0N@IOHCAELD@prolog?3g_sel?$AA@ 00431e9c     bpr:wam.obj
 0002:00005eac       ??_C@_07NMNGKLNI@$global?$AA@ 00431eac     bpr:wam.obj
 0002:00005eb4       ??_C@_0O@PLJAPEAF@prolog?3g_trim?$AA@ 00431eb4     bpr:wam.obj
 0002:00005ec4       ??_C@_0BD@CKKHGLEF@prolog?3global_get0?$AA@ 00431ec4     bpr:wam.obj
 0002:00005ed8       ??_C@_0BJ@ILKCIBJP@prolog?3get_one_more_term?$AA@ 00431ed8     bpr:wam.obj
 0002:00005ef4       ??_C@_0BB@IELGFNDM@v0976tstore?4pl91?$AA@ 00431ef4     bpr:wam.obj
 0002:00005f08       ??_C@_0BC@EJAOIIDC@v01008tstore?4pl90?$AA@ 00431f08     bpr:wam.obj
 0002:00005f1c       ??_C@_0BD@PPNFDHFO@prolog?3remove_term?$AA@ 00431f1c     bpr:wam.obj
 0002:00005f30       ??_C@_0BA@LCHKLCIF@prolog?3get_term?$AA@ 00431f30     bpr:wam.obj
 0002:00005f40       ??_C@_0CA@EFCPIMDI@should_be_ground_in_find_unique?$AA@ 00431f40     bpr:wam.obj
 0002:00005f60       ??_C@_0P@KDPAGCEB@v0572hmap?4pl89?$AA@ 00431f60     bpr:wam.obj
 0002:00005f70       ??_C@_06ODCMFGLL@unique?$AA@ 00431f70     bpr:wam.obj
 0002:00005f78       ??_C@_0BI@HIOGLHOA@prolog?3test_find_unique?$AA@ 00431f78     bpr:wam.obj
 0002:00005f90       ??_C@_0P@PJEJGHKC@v0854hmap?4pl88?$AA@ 00431f90     bpr:wam.obj
 0002:00005fa0       ??_C@_0O@HJGBNAFK@v033hmap?4pl87?$AA@ 00431fa0     bpr:wam.obj
 0002:00005fb0       ??_C@_0N@KMKCIKHA@$find_unique?$AA@ 00431fb0     bpr:wam.obj
 0002:00005fc0       ??_C@_0BL@MHDFNCDD@prolog?3collect_find_unique?$AA@ 00431fc0     bpr:wam.obj
 0002:00005fdc       ??_C@_0BM@BEPPOCEA@prolog?3generate_find_unique?$AA@ 00431fdc     bpr:wam.obj
 0002:00005ff8       ??_C@_0BJ@ODHHDOKI@hash?5maps?5compiled?0?5time?$AA@ 00431ff8     bpr:wam.obj
 0002:00006014       ??_C@_0CL@POCLNDBN@warning?3?5only?5hash_get?5operation@ 00432014     bpr:wam.obj
 0002:00006040       ??_C@_02DOGLGGHC@$d?$AA@   00432040     bpr:wam.obj
 0002:00006044       ??_C@_0BE@ENPJFADE@prolog?3hash_compile?$AA@ 00432044     bpr:wam.obj
 0002:00006058       ??_C@_02JCNOCJHO@$h?$AA@   00432058     bpr:wam.obj
 0002:0000605c       ??_C@_0BB@EAFCPCOG@prolog?3hash_get0?$AA@ 0043205c     bpr:wam.obj
 0002:00006070       ??_C@_0CI@PIIGFGNP@unable_to_update_compiled_hash_m@ 00432070     bpr:wam.obj
 0002:00006098       ??_C@_0BP@ICFIGGFA@prolog?3hash_check_not_compiled?$AA@ 00432098     bpr:wam.obj
 0002:000060b8       ??_C@_0BB@INHKIMLE@prolog?3hash_key0?$AA@ 004320b8     bpr:wam.obj
 0002:000060cc       ??_C@_0BK@EIPNGKJA@hash_key_should_be_ground?$AA@ 004320cc     bpr:wam.obj
 0002:000060e8       ??_C@_0P@IDNLKIHB@prolog?3hash_of?$AA@ 004320e8     bpr:wam.obj
 0002:000060f8       ??_C@_0BA@GPCBLHPC@prolog?3hash_max?$AA@ 004320f8     bpr:wam.obj
 0002:00006108       ??_C@_09EFOCNFBG@$hash_max?$AA@ 00432108     bpr:wam.obj
 0002:00006114       ??_C@_0N@NIAKJBC@v091xdb?4pl84?$AA@ 00432114     bpr:wam.obj
 0002:00006124       ??_C@_0BG@EEGFDDFM@prolog?3x_retract_each?$AA@ 00432124     bpr:wam.obj
 0002:0000613c       ??_C@_0BI@NKJNPHLN@prolog?3x_finalize_known?$AA@ 0043213c     bpr:wam.obj
 0002:00006154       ??_C@_0BC@KJLBFDGD@prolog?3x_finalize?$AA@ 00432154     bpr:wam.obj
 0002:00006168       ??_C@_0O@LEFKBOKP@v0814xdb?4pl86?$AA@ 00432168     bpr:wam.obj
 0002:00006178       ??_C@_0L@DLHKNIDI@x_finalize?$AA@ 00432178     bpr:wam.obj
 0002:00006184       ??_C@_0P@IDAGLDHD@x_retract_each?$AA@ 00432184     bpr:wam.obj
 0002:00006194       ??_C@_09OFEGFIMA@x_gc_args?$AA@ 00432194     bpr:wam.obj
 0002:000061a0       ??_C@_0BB@OLAHEMLE@prolog?3x_retract?$AA@ 004321a0     bpr:wam.obj
 0002:000061b4       ??_C@_0BG@FNHGAOKL@prolog?3x_retract_args?$AA@ 004321b4     bpr:wam.obj
 0002:000061cc       ??_C@_0BB@PMEDJIAM@prolog?3x_gc_args?$AA@ 004321cc     bpr:wam.obj
 0002:000061e0       ??_C@_0BI@BEPPBDLJ@prolog?3x_clause_unbound?$AA@ 004321e0     bpr:wam.obj
 0002:000061f8       ??_C@_0BH@BGKFBLHC@prolog?3x_clause_search?$AA@ 004321f8     bpr:wam.obj
 0002:00006210       ??_C@_0BK@KALMPIFC@prolog?3x_clause_unindexed?$AA@ 00432210     bpr:wam.obj
 0002:0000622c       ??_C@_0BI@FNDNPLFN@prolog?3x_clause_indexed?$AA@ 0043222c     bpr:wam.obj
 0002:00006244       ??_C@_0BD@PCAIDDMN@x_clause_unindexed?$AA@ 00432244     bpr:wam.obj
 0002:00006258       ??_C@_0BB@KCJJIHHD@x_clause_indexed?$AA@ 00432258     bpr:wam.obj
 0002:0000626c       ??_C@_04PDMPFABO@$arg?$AA@ 0043226c     bpr:wam.obj
 0002:00006274       ??_C@_0BL@PBOLPEDL@prolog?3x_clause_is_indexed?$AA@ 00432274     bpr:wam.obj
 0002:00006290       ??_C@_0BB@OLFLGPJH@x_clause_unbound?$AA@ 00432290     bpr:wam.obj
 0002:000062a4       ??_C@_0BG@INIBBLDB@prolog?3x_clause_bound?$AA@ 004322a4     bpr:wam.obj
 0002:000062bc       ??_C@_0BB@EFDNBOEN@prolog?3x_clause0?$AA@ 004322bc     bpr:wam.obj
 0002:000062d0       ??_C@_0BA@MEJLAIIB@prolog?3x_clause?$AA@ 004322d0     bpr:wam.obj
 0002:000062e0       ??_C@_08LNIMNEIF@$dynamic?$AA@ 004322e0     bpr:wam.obj
 0002:000062ec       ??_C@_0BJ@INKMOHKK@prolog?3x_is_dynamic_pred?$AA@ 004322ec     bpr:wam.obj
 0002:00006308       ??_C@_0BB@HKJJAKMM@prolog?3x_indexed?$AA@ 00432308     bpr:wam.obj
 0002:0000631c       ??_C@_03CHPFGFJJ@unx?$AA@  0043231c     bpr:wam.obj
 0002:00006320       ??_C@_0L@BBGALAOO@$unindexed?$AA@ 00432320     bpr:wam.obj
 0002:0000632c       ??_C@_0BD@ODGFPHP@prolog?3x_indexable?$AA@ 0043232c     bpr:wam.obj
 0002:00006340       ??_C@_0BD@IDJMBDK@prolog?3x_assert_op?$AA@ 00432340     bpr:wam.obj
 0002:00006354       ??_C@_0BF@KBAOCJJJ@prolog?3ensure_clause?$AA@ 00432354     bpr:wam.obj
 0002:0000636c       ??_C@_0N@PGDEMANH@v031xdb?4pl85?$AA@ 0043236c     bpr:wam.obj
 0002:0000637c       ??_C@_0BA@JILMCNGK@prolog?3x_map_op?$AA@ 0043237c     bpr:wam.obj
 0002:0000638c       ??_C@_0BG@EOEMNCCD@prolog?3x_dynamic_pred?$AA@ 0043238c     bpr:wam.obj
 0002:000063a4       ??_C@_0BA@LJKGHDLM@prolog?3x_assert?$AA@ 004323a4     bpr:wam.obj
 0002:000063b4       ??_C@_01GLPGHMHM@z?$AA@    004323b4     bpr:wam.obj
 0002:000063b8       ??_C@_08NAFAMOCK@x_assert?$AA@ 004323b8     bpr:wam.obj
 0002:000063c4       ??_C@_0O@BFCNHMJF@v0339xdb?4pl83?$AA@ 004323c4     bpr:wam.obj
 0002:000063d4       ??_C@_0O@HKNDEIKH@v0858xdb?4pl82?$AA@ 004323d4     bpr:wam.obj
 0002:000063e4       ??_C@_0BB@MOMMPOEE@after_retractall?$AA@ 004323e4     bpr:wam.obj
 0002:000063f8       ??_C@_0N@CFCBOFDA@prolog?3xtest?$AA@ 004323f8     bpr:wam.obj
 0002:00006408       ??_C@_0M@FOKFFJPB@prolog?3xbug?$AA@ 00432408     bpr:wam.obj
 0002:00006414       ??_C@_0BF@MLHHLIND@call?5without?5tracing?$AA@ 00432414     bpr:wam.obj
 0002:0000642c       ??_C@_05EMNIMLKD@ENTER?$AA@ 0043242c     bpr:wam.obj
 0002:00006434       ??_C@_01HHGOMJKL@l?$AA@    00432434     bpr:wam.obj
 0002:00006438       ??_C@_03EAIJACHI@q?0a?$AA@ 00432438     bpr:wam.obj
 0002:0000643c       ??_C@_0BG@MJJFLMIG@toplevel?5Prolog?5query?$AA@ 0043243c     bpr:wam.obj
 0002:00006454       ??_C@_0CD@POCOGCDE@succeed?0?5but?5do?5not?5call?5this?5go@ 00432454     bpr:wam.obj
 0002:00006478       ??_C@_0CA@ONAFBFPC@fail?0?5and?5do?5not?5call?5this?5goal?$AA@ 00432478     bpr:wam.obj
 0002:00006498       ??_C@_0CA@HCJPPLHD@keep?5goal?5for?5futher?5inspection?$AA@ 00432498     bpr:wam.obj
 0002:000064b8       ??_C@_01DICPFPGM@k?$AA@    004324b8     bpr:wam.obj
 0002:000064bc       ??_C@_0BK@DBHPGODF@show?5saved?5goal?5instances?$AA@ 004324bc     bpr:wam.obj
 0002:000064d8       ??_C@_0BD@JOAPCFFG@continue?5?$CIdefault?$CJ?$AA@ 004324d8     bpr:wam.obj
 0002:000064ec       ??_C@_05KJBAOLBJ@?5?$DN?$DN?$DO?5?$AA@ 004324ec     bpr:wam.obj
 0002:000064f4       ??_C@_06DNGPDEMK@Redo?3?5?$AA@ 004324f4     bpr:wam.obj
 0002:000064fc       ??_C@_06FPNGJDOA@Exit?3?5?$AA@ 004324fc     bpr:wam.obj
 0002:00006504       ??_C@_0O@FBONNCHA@v0458lib?4pl75?$AA@ 00432504     bpr:wam.obj
 0002:00006514       ??_C@_0CB@NJMAMHII@?5?$DMENTER?$DNcall?0?5?$DL?$DNtrace?0?5h?$DNhelp?$DO?3?5@ 00432514     bpr:wam.obj
 0002:00006538       ??_C@_06EFJCAFIJ@Call?3?5?$AA@ 00432538     bpr:wam.obj
 0002:00006540       ??_C@_0O@PGJGMGLE@v0775lib?4pl70?$AA@ 00432540     bpr:wam.obj
 0002:00006550       ??_C@_02KLLMIGEE@?$CF?5?$AA@ 00432550     bpr:wam.obj
 0002:00006554       ??_C@_0BB@BNPDJGGC@?$CF?5dyn_compiled?3?5?$AA@ 00432554     bpr:wam.obj
 0002:00006568       ??_C@_0L@LJDEHCCE@in_sandbox?$AA@ 00432568     bpr:wam.obj
 0002:00006574       ??_C@_0L@PGPAJFG@sandboxing?$AA@ 00432574     bpr:wam.obj
 0002:00006580       ??_C@_0BD@MFLEIJDC@prolog?3dyn_compile?$AA@ 00432580     bpr:wam.obj
 0002:00006594       ??_C@_0O@DCPKIFGP@v0244lib?4pl63?$AA@ 00432594     bpr:wam.obj
 0002:000065a4       ??_C@_0M@DPEFPJJE@vae_dynamic?$AA@ 004325a4     bpr:wam.obj
 0002:000065b0       ??_C@_0O@ODNBBKAK@v0414lib?4pl64?$AA@ 004325b0     bpr:wam.obj
 0002:000065c0       ??_C@_0O@MPFEFION@v0748lib?4pl56?$AA@ 004325c0     bpr:wam.obj
 0002:000065d0       ??_C@_0O@HNGDNLCC@v0396lib?4pl52?$AA@ 004325d0     bpr:wam.obj
 0002:000065e0       ??_C@_06GOHDHELE@sorted?$AA@ 004325e0     bpr:wam.obj
 0002:000065e8       ??_C@_0O@LFKAMBHE@v0606lib?4pl51?$AA@ 004325e8     bpr:wam.obj
 0002:000065f8       ??_C@_0M@GENALBKM@interpreted?$AA@ 004325f8     bpr:wam.obj
 0002:00006604       ??_C@_0BN@CBIJNAKJ@expected?5to?5be?5deterministic?$AA@ 00432604     bpr:wam.obj
 0002:00006624       ??_C@_0BJ@HMMEBKMB@different_findall_levels?$AA@ 00432624     bpr:wam.obj
 0002:00006640       ??_C@_09DLMNNIEJ@namevars0?$AA@ 00432640     bpr:wam.obj
 0002:0000664c       ??_C@_0O@MLKJKCMB@v0204lib?4pl34?$AA@ 0043264c     bpr:wam.obj
 0002:0000665c       ??_C@_0O@ECDPBPME@v0653lib?4pl35?$AA@ 0043265c     bpr:wam.obj
 0002:0000666c       ??_C@_0P@GAPJJKDI@?$DM?1h2?$DO?$DM?1center?$DO?$AA@ 0043266c     bpr:wam.obj
 0002:0000667c       ??_C@_0CG@JMANOBNE@Total?5number?5of?5documented?5built@ 0043267c     bpr:wam.obj
 0002:000066a4       ??_C@_0N@FAIDGGNJ@?$DMcenter?$DO?$DMh2?$DO?$AA@ 004326a4     bpr:wam.obj
 0002:000066b4       ??_C@_0M@DBGFNFE@EXAMPLE?$CIS?$CJ?3?$AA@ 004326b4     bpr:wam.obj
 0002:000066c0       ??_C@_0BB@CCMIBIIF@prolog?3namevars0?$AA@ 004326c0     bpr:wam.obj
 0002:000066d4       ??_C@_0O@ICMDCFCN@v0396lib?4pl28?$AA@ 004326d4     bpr:wam.obj
 0002:000066e4       ??_C@_0O@MEMLMLMM@v0112lib?4pl29?$AA@ 004326e4     bpr:wam.obj
 0002:000066f4       ??_C@_0M@DJHKHDJN@PREDICATE?3?5?$AA@ 004326f4     bpr:wam.obj
 0002:00006700       ??_C@_06IMLIHHCE@start?5?$AA@ 00432700     bpr:wam.obj
 0002:00006708       ??_C@_01HNPIGOCE@?$CG?$AA@ 00432708     bpr:wam.obj
 0002:0000670c       ??_C@_09ELDDMGOL@xterm?5?9e?5?$AA@ 0043270c     bpr:wam.obj
 0002:00006718       ??_C@_06KEDFAKNN@VISUAL?$AA@ 00432718     bpr:wam.obj
 0002:00006720       ??_C@_06CKOGFMD@EDITOR?$AA@ 00432720     bpr:wam.obj
 0002:00006728       ??_C@_0BN@FBEPABEJ@no?5such?5environment?5variable?$AA@ 00432728     bpr:wam.obj
 0002:00006748       ??_C@_04GHGFPGNC@HOME?$AA@ 00432748     bpr:wam.obj
 0002:00006750       ??_C@_08KEPJCLIB@intruder?$AA@ 00432750     bpr:wam.obj
 0002:0000675c       ??_C@_0N@EHEGNBEO@bad_password?$AA@ 0043275c     bpr:wam.obj
 0002:0000676c       ??_C@_0BA@NFGFANFD@no?5such?5command?$AA@ 0043276c     bpr:wam.obj
 0002:0000677c       ??_C@_07OONHKHBL@bb_used?$AA@ 0043277c     bpr:wam.obj
 0002:00006784       ??_C@_07LONBPGKD@bb_left?$AA@ 00432784     bpr:wam.obj
 0002:0000678c       ??_C@_0BM@CLEJKEKG@not_enough_garbage_colected?$AA@ 0043278c     bpr:wam.obj
 0002:000067a8       ??_C@_0BG@IIACLKFI@average_time_per_call?$AA@ 004327a8     bpr:wam.obj
 0002:000067c0       ??_C@_0P@KCGIFBHF@TOTAL?5PROFILED?$AA@ 004327c0     bpr:wam.obj
 0002:000067d0       ??_C@_05FACACNJP@calls?$AA@ 004327d0     bpr:wam.obj
 0002:000067d8       ??_C@_0O@LAIKHNLH@time_per_call?$AA@ 004327d8     bpr:wam.obj
 0002:000067e8       ??_C@_07OEFIIBCN@$ptotal?$AA@ 004327e8     bpr:wam.obj
 0002:000067f0       ??_C@_02HHFHKOHM@?$DP?$DP?$AA@ 004327f0     bpr:wam.obj
 0002:000067f4       ??_C@_09JDAMDECO@266411704?$AA@ 004327f4     bpr:wam.obj
 0002:00006800       ??_C@_09OEAHPFBE@300647710?$AA@ 00432800     bpr:wam.obj
 0002:0000680c       ??_C@_06MLLEIFDK@prolog?$AA@ 0043280c     bpr:wam.obj
 0002:00006814       ??_C@_0BB@DMKHDNME@should?5be?5ground?$AA@ 00432814     bpr:wam.obj
 0002:00006828       ??_C@_0BI@BBPDPODC@prolog?3explicit_binding?$AA@ 00432828     bpr:wam.obj
 0002:00006840       ??_C@_0BH@NCFLKPJD@prolog?3term_is_free_of?$AA@ 00432840     bpr:wam.obj
 0002:00006858       ??_C@_0BH@KMAHOKOC@prolog?3list_is_free_of?$AA@ 00432858     bpr:wam.obj
 0002:00006870       ??_C@_0BN@ECKDOCEF@prolog?3replace_key_variables?$AA@ 00432870     bpr:wam.obj
 0002:00006890       ??_C@_0BJ@PLLHNPBD@prolog?3concordant_subset?$AA@ 00432890     bpr:wam.obj
 0002:000068ac       ??_C@_0BI@CKEHNGDM@prolog?3replace_instance?$AA@ 004328ac     bpr:wam.obj
 0002:000068c4       ??_C@_0BA@DOFBLMHA@prolog?3keymerge?$AA@ 004328c4     bpr:wam.obj
 0002:000068d4       ??_C@_0N@GGDNHAKA@prolog?3samkr?$AA@ 004328d4     bpr:wam.obj
 0002:000068e4       ??_C@_0BC@JPMFAICN@illegal_arguments?$AA@ 004328e4     bpr:wam.obj
 0002:000068f8       ??_C@_0P@NDJBLGCF@prolog?3keysort?$AA@ 004328f8     bpr:wam.obj
 0002:00006908       ??_C@_0N@HMDMMDEG@prolog?3ksort?$AA@ 00432908     bpr:wam.obj
 0002:00006918       ??_C@_0P@BDFCKDHH@prolog?3merge_2?$AA@ 00432918     bpr:wam.obj
 0002:00006928       ??_C@_0BD@KKBAJDGI@prolog?3merge_sort1?$AA@ 00432928     bpr:wam.obj
 0002:0000693c       ??_C@_0O@JJEFKIBP@prolog?3remdup?$AA@ 0043293c     bpr:wam.obj
 0002:0000694c       ??_C@_0O@NOAPOEDB@v0899lib?4pl81?$AA@ 0043294c     bpr:wam.obj
 0002:0000695c       ??_C@_0BA@KOPJGHPF@prolog?3is_quote?$AA@ 0043295c     bpr:wam.obj
 0002:0000696c       ??_C@_0BD@CMBCFNBH@prolog?3quoted_with?$AA@ 0043296c     bpr:wam.obj
 0002:00006980       ??_C@_0L@ONBPFIEK@prolog?3sym?$AA@ 00432980     bpr:wam.obj
 0002:0000698c       ??_C@_08NPFHDKEA@prolog?3c?$AA@ 0043298c     bpr:wam.obj
 0002:00006998       ??_C@_0N@NIKNBPC@prolog?3token?$AA@ 00432998     bpr:wam.obj
 0002:000069a8       ??_C@_0N@FIKBLNGC@prolog?3words?$AA@ 004329a8     bpr:wam.obj
 0002:000069b8       ??_C@_0O@BNHMKNAM@prolog?3stoken?$AA@ 004329b8     bpr:wam.obj
 0002:000069c8       ??_C@_0N@HKPLKEAE@prolog?3space?$AA@ 004329c8     bpr:wam.obj
 0002:000069d8       ??_C@_0O@EOFODMJC@prolog?3nwords?$AA@ 004329d8     bpr:wam.obj
 0002:000069e8       ??_C@_0BD@CCNENIHP@prolog?3codes2names?$AA@ 004329e8     bpr:wam.obj
 0002:000069fc       ??_C@_0BA@LEJCLLKK@nonvar_expected?$AA@ 004329fc     bpr:wam.obj
 0002:00006a0c       ??_C@_0BG@IPMMMBOM@prolog?3disj_term_cont?$AA@ 00432a0c     bpr:wam.obj
 0002:00006a24       ??_C@_04NKOEDEMC@disj?$AA@ 00432a24     bpr:wam.obj
 0002:00006a2c       ??_C@_0BA@HBDFMNGB@prolog?3disj_seq?$AA@ 00432a2c     bpr:wam.obj
 0002:00006a3c       ??_C@_0BB@HFKNKFCE@prolog?3cons_args?$AA@ 00432a3c     bpr:wam.obj
 0002:00006a50       ??_C@_0L@BOFEFPAD@prolog?3seq?$AA@ 00432a50     bpr:wam.obj
 0002:00006a5c       ??_C@_03BLIIKFAI@bar?$AA@  00432a5c     bpr:wam.obj
 0002:00006a60       ??_C@_0BG@KEPEBEAP@prolog?3term_list_cont?$AA@ 00432a60     bpr:wam.obj
 0002:00006a78       ??_C@_04HDGCBN@rbra?$AA@   00432a78     bpr:wam.obj
 0002:00006a80       ??_C@_05COJKOOHP@comma?$AA@ 00432a80     bpr:wam.obj
 0002:00006a88       ??_C@_0P@BPONFOPO@prolog?3arglist?$AA@ 00432a88     bpr:wam.obj
 0002:00006a98       ??_C@_0BC@DLCOHDJG@prolog?3token2term?$AA@ 00432a98     bpr:wam.obj
 0002:00006aac       ??_C@_0BA@OCHFGDOM@prolog?3to_float?$AA@ 00432aac     bpr:wam.obj
 0002:00006abc       ??_C@_0BF@ODKDMCEE@prolog?3check_integer?$AA@ 00432abc     bpr:wam.obj
 0002:00006ad4       ??_C@_0BC@OFOHNDKE@prolog?3to_integer?$AA@ 00432ad4     bpr:wam.obj
 0002:00006ae8       ??_C@_0BC@NMNFOJMJ@prolog?3apply_sign?$AA@ 00432ae8     bpr:wam.obj
 0002:00006afc       ??_C@_0M@FCEAFLNG@prolog?3args?$AA@ 00432afc     bpr:wam.obj
 0002:00006b08       ??_C@_0P@MLOEDKBL@prolog?3is_sign?$AA@ 00432b08     bpr:wam.obj
 0002:00006b18       ??_C@_0P@DBCMBADD@prolog?3num2int?$AA@ 00432b18     bpr:wam.obj
 0002:00006b28       ??_C@_0BC@EHBCPOOK@prolog?3nums2float?$AA@ 00432b28     bpr:wam.obj
 0002:00006b3c       ??_C@_0BB@LAKMAAGE@prolog?3spec_term?$AA@ 00432b3c     bpr:wam.obj
 0002:00006b50       ??_C@_04NPKDELPO@lbra?$AA@ 00432b50     bpr:wam.obj
 0002:00006b58       ??_C@_0BB@BCOCPPJI@prolog?3term_list?$AA@ 00432b58     bpr:wam.obj
 0002:00006b6c       ??_C@_0BH@HDCMOFBH@prolog?3neg_num_or_args?$AA@ 00432b6c     bpr:wam.obj
 0002:00006b84       ??_C@_05BNCCCJPP@const?$AA@ 00432b84     bpr:wam.obj
 0002:00006b8c       ??_C@_0BE@ECMDIFAF@prolog?3float_or_int?$AA@ 00432b8c     bpr:wam.obj
 0002:00006ba0       ??_C@_03IHCLBPIC@num?$AA@  00432ba0     bpr:wam.obj
 0002:00006ba4       ??_C@_04KCCPLAND@tree?$AA@ 00432ba4     bpr:wam.obj
 0002:00006bac       ??_C@_0BB@DIHGNBIN@prolog?3check_var?$AA@ 00432bac     bpr:wam.obj
 0002:00006bc0       ??_C@_03OHGIODNJ@iff?$AA@  00432bc0     bpr:wam.obj
 0002:00006bc4       ??_C@_0BA@NFDCFECB@prolog?3conj_seq?$AA@ 00432bc4     bpr:wam.obj
 0002:00006bd4       ??_C@_0BA@PNBEPIAC@prolog?3test_end?$AA@ 00432bd4     bpr:wam.obj
 0002:00006be4       ??_C@_0BB@OJPBBOOF@prolog?3match_end?$AA@ 00432be4     bpr:wam.obj
 0002:00006bf8       ??_C@_0M@EPDKPIJH@prolog?3body?$AA@ 00432bf8     bpr:wam.obj
 0002:00006c04       ??_C@_0BG@GFKMDHAM@prolog?3dcg_look_ahead?$AA@ 00432c04     bpr:wam.obj
 0002:00006c1c       ??_C@_0BF@FHPHBNHB@prolog?3get_dcg_state?$AA@ 00432c1c     bpr:wam.obj
 0002:00006c34       ??_C@_0BF@CIOJKOAG@prolog?3set_dcg_state?$AA@ 00432c34     bpr:wam.obj
 0002:00006c4c       ??_C@_0BA@ECLIPEOK@prolog?3top_term?$AA@ 00432c4c     bpr:wam.obj
 0002:00006c5c       ??_C@_0BE@KAEEGOMC@prolog?3collect_vars?$AA@ 00432c5c     bpr:wam.obj
 0002:00006c70       ??_C@_0BC@COHHHJEM@prolog?3run_parser?$AA@ 00432c70     bpr:wam.obj
 0002:00006c84       ??_C@_03NPBIJDKL@eoc?$AA@  00432c84     bpr:wam.obj
 0002:00006c88       ??_C@_04IFOMKBLC@rpar?$AA@ 00432c88     bpr:wam.obj
 0002:00006c90       ??_C@_04FKDMIIFB@lpar?$AA@ 00432c90     bpr:wam.obj
 0002:00006c98       ??_C@_07MNAPGDEB@parsing?$AA@ 00432c98     bpr:wam.obj
 0002:00006ca0       ??_C@_0N@BGPJNOCK@syntax_error?$AA@ 00432ca0     bpr:wam.obj
 0002:00006cb0       ??_C@_0O@JECFFFKH@prolog?3parser?$AA@ 00432cb0     bpr:wam.obj
 0002:00006cc0       ??_C@_0BF@FNJMKPPE@prolog?3find_file_ext?$AA@ 00432cc0     bpr:wam.obj
 0002:00006cd8       ??_C@_0L@IELFEEIP@bytes_used?$AA@ 00432cd8     bpr:wam.obj
 0002:00006ce4       ??_C@_0CB@KAIACLGO@compilation?5has?5been?5aborted?5for@ 00432ce4     bpr:wam.obj
 0002:00006d08       ??_C@_0BA@FFFGIEJI@processing_time?$AA@ 00432d08     bpr:wam.obj
 0002:00006d18       ??_C@_0BE@EBIEMPMN@prolog?3stat_compile?$AA@ 00432d18     bpr:wam.obj
 0002:00006d2c       ??_C@_0BB@FOAGCMCP@prolog?3stat_time?$AA@ 00432d2c     bpr:wam.obj
 0002:00006d40       ??_C@_0BF@PMDNBGDF@prolog?3insert_spaces?$AA@ 00432d40     bpr:wam.obj
 0002:00006d58       ??_C@_0BC@NCKPEKKE@undefined_default?$AA@ 00432d58     bpr:wam.obj
 0002:00006d6c       ??_C@_0O@IPGENIGK@v0524lib?4pl80?$AA@ 00432d6c     bpr:wam.obj
 0002:00006d7c       ??_C@_0N@DCIBDKCA@?$CB?$CB?$CB?5compiled?$AA@ 00432d7c     bpr:wam.obj
 0002:00006d8c       ??_C@_04HBPJMOHI@?$CB?$CB?$CB?5?$AA@ 00432d8c     bpr:wam.obj
 0002:00006d94       ??_C@_0BF@EIBBPMMH@prolog?3templ_do_goal?$AA@ 00432d94     bpr:wam.obj
 0002:00006dac       ??_C@_0O@PNKHFDKC@v0259lib?4pl79?$AA@ 00432dac     bpr:wam.obj
 0002:00006dbc       ??_C@_0O@DCNFCFKG@v0913lib?4pl78?$AA@ 00432dbc     bpr:wam.obj
 0002:00006dcc       ??_C@_04PFEFDOAA@?5?$DP?9?5?$AA@ 00432dcc     bpr:wam.obj
 0002:00006dd4       ??_C@_0BD@JOPEPOFN@prolog?3escape_goal?$AA@ 00432dd4     bpr:wam.obj
 0002:00006de8       ??_C@_06NPEKKFFO@Fail?3?5?$AA@ 00432de8     bpr:wam.obj
 0002:00006df0       ??_C@_0O@MNELFPBG@prolog?3tprint?$AA@ 00432df0     bpr:wam.obj
 0002:00006e00       ??_C@_0N@PBONOBHA@v089lib?4pl73?$AA@ 00432e00     bpr:wam.obj
 0002:00006e10       ??_C@_0O@OLPINAEH@v0410lib?4pl74?$AA@ 00432e10     bpr:wam.obj
 0002:00006e20       ??_C@_0O@DCAGMHBI@v0212lib?4pl76?$AA@ 00432e20     bpr:wam.obj
 0002:00006e30       ??_C@_0BC@EAJGCKEM@prolog?3trace_help?$AA@ 00432e30     bpr:wam.obj
 0002:00006e44       ??_C@_0P@BBBKCHFL@prolog?3tr_call?$AA@ 00432e44     bpr:wam.obj
 0002:00006e54       ??_C@_0O@ODPMMDNM@v0665lib?4pl77?$AA@ 00432e54     bpr:wam.obj
 0002:00006e64       ??_C@_0O@ODIDPKIN@v0303lib?4pl72?$AA@ 00432e64     bpr:wam.obj
 0002:00006e74       ??_C@_0O@BBOCKMJD@prolog?3tr_if2?$AA@ 00432e74     bpr:wam.obj
 0002:00006e84       ??_C@_0BA@DAFKIGCI@prolog?3tr_disj2?$AA@ 00432e84     bpr:wam.obj
 0002:00006e94       ??_C@_0O@LLAIGEND@v0994lib?4pl71?$AA@ 00432e94     bpr:wam.obj
 0002:00006ea4       ??_C@_0O@DKMPPPFA@prolog?3tr_if1?$AA@ 00432ea4     bpr:wam.obj
 0002:00006eb4       ??_C@_0P@MJNGFPL@prolog?3tr_goal?$AA@ 00432eb4     bpr:wam.obj
 0002:00006ec4       ??_C@_0BA@BLHHNFOL@prolog?3tr_disj1?$AA@ 00432ec4     bpr:wam.obj
 0002:00006ed4       ??_C@_0P@PFADMOHE@prolog?3tr_body?$AA@ 00432ed4     bpr:wam.obj
 0002:00006ee4       ??_C@_03ODLKKDDL@CUT?$AA@  00432ee4     bpr:wam.obj
 0002:00006ee8       ??_C@_0P@KADHELAL@prolog?3append3?$AA@ 00432ee8     bpr:wam.obj
 0002:00006ef8       ??_C@_0O@DLNNFGDJ@v0718lib?4pl69?$AA@ 00432ef8     bpr:wam.obj
 0002:00006f08       ??_C@_0CP@CIMACEJP@use?5info?11?5to?5get?5a?5description?5@ 00432f08     bpr:wam.obj
 0002:00006f38       ??_C@_0BD@PGDHONDH@prolog?3db_listing0?$AA@ 00432f38     bpr:wam.obj
 0002:00006f4c       ??_C@_0O@ENFIPLIJ@v0746lib?4pl68?$AA@ 00432f4c     bpr:wam.obj
 0002:00006f5c       ??_C@_0CD@OPIMLLHN@prolog?3generate_run_time_predica@ 00432f5c     bpr:wam.obj
 0002:00006f80       ??_C@_03EAIPFAE@255?$AA@   00432f80     bpr:wam.obj
 0002:00006f84       ??_C@_0BA@KHPDAGFO@prolog?3listing2?$AA@ 00432f84     bpr:wam.obj
 0002:00006f94       ??_C@_0BD@DBBBGAJK@prolog?3list_clause?$AA@ 00432f94     bpr:wam.obj
 0002:00006fa8       ??_C@_0BA@JFMFGENM@prolog?3listing0?$AA@ 00432fa8     bpr:wam.obj
 0002:00006fb8       ??_C@_0N@IDBCJNHH@v024lib?4pl67?$AA@ 00432fb8     bpr:wam.obj
 0002:00006fc8       ??_C@_0M@MGBHMNNF@catchmarker?$AA@ 00432fc8     bpr:wam.obj
 0002:00006fd4       ??_C@_0BN@GDNNCEOO@forbiden_predicate_called_on?$AA@ 00432fd4     bpr:wam.obj
 0002:00006ff4       ??_C@_0CA@EMEHCJCG@no_playing_with_fire_in_sandbox?$AA@ 00432ff4     bpr:wam.obj
 0002:00007014       ??_C@_0BC@CLPPPJHP@prolog?3in_sandbox?$AA@ 00433014     bpr:wam.obj
 0002:00007028       ??_C@_0O@FIAJAMM@v0398lib?4pl66?$AA@ 00433028     bpr:wam.obj
 0002:00007038       ??_C@_0BA@MEPOAOFN@iso_open_stream?$AA@ 00433038     bpr:wam.obj
 0002:00007048       ??_C@_0P@OLCGGOL@prolog?3sandbox?$AA@ 00433048     bpr:wam.obj
 0002:00007058       ??_C@_0BA@EJBCICCB@prolog?3do_disj0?$AA@ 00433058     bpr:wam.obj
 0002:00007068       ??_C@_0BH@FPBIDOKM@prolog?3do_if_then_else?$AA@ 00433068     bpr:wam.obj
 0002:00007080       ??_C@_0P@FNBMFMEK@prolog?3do_disj?$AA@ 00433080     bpr:wam.obj
 0002:00007090       ??_C@_0P@NOKJOPKF@prolog?3do_conj?$AA@ 00433090     bpr:wam.obj
 0002:000070a0       ??_C@_0CA@MNCPAMCH@undefined_predicate_in_metacall?$AA@ 004330a0     bpr:wam.obj
 0002:000070c0       ??_C@_0BK@GNHBKLCM@prolog?3delegate_undefined?$AA@ 004330c0     bpr:wam.obj
 0002:000070dc       ??_C@_0BA@EDKMMBHB@prolog?3do_apply?$AA@ 004330dc     bpr:wam.obj
 0002:000070ec       ??_C@_0O@PODPPLHG@v0416lib?4pl65?$AA@ 004330ec     bpr:wam.obj
 0002:000070fc       ??_C@_0P@HGCPKJNO@prolog?3do_goal?$AA@ 004330fc     bpr:wam.obj
 0002:0000710c       ??_C@_0BG@DKNMDOBO@prolog?3db_is_asserted?$AA@ 0043310c     bpr:wam.obj
 0002:00007124       ??_C@_07FCHMKID@$delphi?$AA@ 00433124     bpr:wam.obj
 0002:0000712c       ??_C@_0BB@IPGMOADM@prolog?3is_delphi?$AA@ 0043312c     bpr:wam.obj
 0002:00007140       ??_C@_0P@IPLBACFB@prolog?3do_body?$AA@ 00433140     bpr:wam.obj
 0002:00007150       ??_C@_0N@ILBJJGIL@unbound_goal?$AA@ 00433150     bpr:wam.obj
 0002:00007160       ??_C@_0BB@NMKJILEG@prolog?3assert_it?$AA@ 00433160     bpr:wam.obj
 0002:00007174       ??_C@_0BI@GFDFOJOM@prolog?3consult_embedded?$AA@ 00433174     bpr:wam.obj
 0002:0000718c       ??_C@_09BBGDIICN@consulted?$AA@ 0043318c     bpr:wam.obj
 0002:00007198       ??_C@_0BA@JPHNPBFM@prolog?3consult1?$AA@ 00433198     bpr:wam.obj
 0002:000071a8       ??_C@_0BA@DHMLCGEC@quick_compiling?$AA@ 004331a8     bpr:wam.obj
 0002:000071b8       ??_C@_0L@CIDDPIPD@consulting?$AA@ 004331b8     bpr:wam.obj
 0002:000071c4       ??_C@_0N@GANNJDAC@static_space?$AA@ 004331c4     bpr:wam.obj
 0002:000071d4       ??_C@_0M@GCOLHEON@prolog?3rl2l?$AA@ 004331d4     bpr:wam.obj
 0002:000071e0       ??_C@_0M@OGHDKIFP@prolog?3l2rl?$AA@ 004331e0     bpr:wam.obj
 0002:000071ec       ??_C@_06PBJBIPGK@struct?$AA@ 004331ec     bpr:wam.obj
 0002:000071f4       ??_C@_0M@DEPIOMEF@prolog?3t2rt?$AA@ 004331f4     bpr:wam.obj
 0002:00007200       ??_C@_0M@HFFNJDME@prolog?3rt2t?$AA@ 00433200     bpr:wam.obj
 0002:0000720c       ??_C@_0BH@BLJLMABE@prolog?3survive_cleanup?$AA@ 0043320c     bpr:wam.obj
 0002:00007224       ??_C@_0BL@IOKJKGFN@prolog?3clean_up_data_areas?$AA@ 00433224     bpr:wam.obj
 0002:00007240       ??_C@_0BD@BPJMJKIM@prolog?3mainconsult?$AA@ 00433240     bpr:wam.obj
 0002:00007254       ??_C@_0BB@BPMEMJLF@unable_to_spy_on?$AA@ 00433254     bpr:wam.obj
 0002:00007268       ??_C@_0BO@ONHKMCDH@spying_all_predicates_in_file?$AA@ 00433268     bpr:wam.obj
 0002:00007288       ??_C@_0BH@EFKLHPKI@prolog?3spying_strictly?$AA@ 00433288     bpr:wam.obj
 0002:000072a0       ??_C@_0BC@LNMJNJDB@prolog?3count_goal?$AA@ 004332a0     bpr:wam.obj
 0002:000072b4       ??_C@_0BB@BIGHOJPJ@prolog?3conj2list?$AA@ 004332b4     bpr:wam.obj
 0002:000072c8       ??_C@_08HELGHMHP@failing_?$AA@ 004332c8     bpr:wam.obj
 0002:000072d4       ??_C@_05PHFDFCCF@exit_?$AA@ 004332d4     bpr:wam.obj
 0002:000072dc       ??_C@_08GMBJBGJH@calling_?$AA@ 004332dc     bpr:wam.obj
 0002:000072e8       ??_C@_0O@EEPLGCOA@v0679lib?4pl62?$AA@ 004332e8     bpr:wam.obj
 0002:000072f8       ??_C@_0BC@JDBDHKJL@prolog?3db_collect?$AA@ 004332f8     bpr:wam.obj
 0002:0000730c       ??_C@_03LGLGIONO@cmd?$AA@  0043330c     bpr:wam.obj
 0002:00007310       ??_C@_0O@HLLEGJA@v0225lib?4pl61?$AA@ 00433310     bpr:wam.obj
 0002:00007320       ??_C@_0O@GPHDJBKM@v0616lib?4pl60?$AA@ 00433320     bpr:wam.obj
 0002:00007330       ??_C@_0L@ENCHOHKG@$temp_cmds?$AA@ 00433330     bpr:wam.obj
 0002:0000733c       ??_C@_05OKMCAIKB@xinit?$AA@ 0043333c     bpr:wam.obj
 0002:00007344       ??_C@_04OPPIOAF@1111?$AA@  00433344     bpr:wam.obj
 0002:0000734c       ??_C@_03BDKPEBMF@plx?$AA@  0043334c     bpr:wam.obj
 0002:00007350       ??_C@_0O@HGKOEFIJ@v0550lib?4pl59?$AA@ 00433350     bpr:wam.obj
 0002:00007360       ??_C@_0O@KFOMKFPN@v0616lib?4pl58?$AA@ 00433360     bpr:wam.obj
 0002:00007370       ??_C@_0N@GKGDJICN@v027lib?4pl57?$AA@ 00433370     bpr:wam.obj
 0002:00007380       ??_C@_0BG@NBMELFKM@prolog?3db_retractall0?$AA@ 00433380     bpr:wam.obj
 0002:00007398       ??_C@_08BFIHCGPL@$clauses?$AA@ 00433398     bpr:wam.obj
 0002:000073a4       ??_C@_0P@KIJLCOBK@prolog?3db_pred?$AA@ 004333a4     bpr:wam.obj
 0002:000073b4       ??_C@_0O@EHAMLMLJ@v0562lib?4pl55?$AA@ 004333b4     bpr:wam.obj
 0002:000073c4       ??_C@_0BA@LMNBJOIC@prolog?3dynamize?$AA@ 004333c4     bpr:wam.obj
 0002:000073d4       ??_C@_0BK@CBHPBLOJ@prolog?3get_small_db_ratio?$AA@ 004333d4     bpr:wam.obj
 0002:000073f0       ??_C@_0O@OFGCHEGO@v0416lib?4pl54?$AA@ 004333f0     bpr:wam.obj
 0002:00007400       ??_C@_0CC@NLAFIFEE@known?5bug?3?5unable?5to?5assert?5in?5d@ 00433400     bpr:wam.obj
 0002:00007424       ??_C@_0BH@OCMNJJNL@prolog?3check_for_clash?$AA@ 00433424     bpr:wam.obj
 0002:0000743c       ??_C@_0P@GCJKEKMG@prolog?3clause0?$AA@ 0043343c     bpr:wam.obj
 0002:0000744c       ??_C@_0BG@CEIKDEGB@prolog?3db_keep_clause?$AA@ 0043344c     bpr:wam.obj
 0002:00007464       ??_C@_0BM@MOMGEJIG@WARNING?3?5compiled?5predicate?$AA@ 00433464     bpr:wam.obj
 0002:00007480       ??_C@_0BH@HAOMFEHB@prolog?3define_dynamic1?$AA@ 00433480     bpr:wam.obj
 0002:00007498       ??_C@_0BF@LIGMMIPI@prolog?3check_dynamic?$AA@ 00433498     bpr:wam.obj
 0002:000074b0       ??_C@_0BG@NHHOPODP@prolog?3define_dynamic?$AA@ 004334b0     bpr:wam.obj
 0002:000074c8       ??_C@_0BA@GIOKKPGM@prolog?3dynamic0?$AA@ 004334c8     bpr:wam.obj
 0002:000074d8       ??_C@_02LIELOMNJ@on?$AA@   004334d8     bpr:wam.obj
 0002:000074dc       ??_C@_08HMDOJEPJ@$db_hook?$AA@ 004334dc     bpr:wam.obj
 0002:000074e8       ??_C@_0L@DIMMHEIM@prolog?3dq1?$AA@ 004334e8     bpr:wam.obj
 0002:000074f4       ??_C@_0L@CBNHEFMN@prolog?3dq0?$AA@ 004334f4     bpr:wam.obj
 0002:00007500       ??_C@_0BB@JLBALACH@prolog?3cdelq_all?$AA@ 00433500     bpr:wam.obj
 0002:00007514       ??_C@_0L@KFBLEMDF@prolog?3cq1?$AA@ 00433514     bpr:wam.obj
 0002:00007520       ??_C@_0L@LMAAHNHE@prolog?3cq0?$AA@ 00433520     bpr:wam.obj
 0002:0000752c       ??_C@_0BA@LNLPPGJP@prolog?3cmemberq?$AA@ 0043352c     bpr:wam.obj
 0002:0000753c       ??_C@_0BE@OFIDFDEC@prolog?3cmember_filt?$AA@ 0043353c     bpr:wam.obj
 0002:00007550       ??_C@_0L@EFMEDLAG@prolog?3mq1?$AA@ 00433550     bpr:wam.obj
 0002:0000755c       ??_C@_0P@MCPDFFDM@prolog?3memberq?$AA@ 0043355c     bpr:wam.obj
 0002:0000756c       ??_C@_0M@NDBDODKD@BB_OVERFLOW?$AA@ 0043356c     bpr:wam.obj
 0002:00007578       ??_C@_0O@HGGBPLGO@prolog?3pushq1?$AA@ 00433578     bpr:wam.obj
 0002:00007588       ??_C@_0N@FHCOCJKK@prolog?3addq1?$AA@ 00433588     bpr:wam.obj
 0002:00007598       ??_C@_0N@DHAPAJEN@prolog?3popq1?$AA@ 00433598     bpr:wam.obj
 0002:000075a8       ??_C@_0O@HFGEANNK@v0408lib?4pl53?$AA@ 004335a8     bpr:wam.obj
 0002:000075b8       ??_C@_0P@KOHDINGJ@prolog?3bb_orig?$AA@ 004335b8     bpr:wam.obj
 0002:000075c8       ??_C@_0O@GLMGJHNF@v0817lib?4pl50?$AA@ 004335c8     bpr:wam.obj
 0002:000075d8       ??_C@_08GKEDILHH@unsorted?$AA@ 004335d8     bpr:wam.obj
 0002:000075e4       ??_C@_05CGDPOPDB@plain?$AA@ 004335e4     bpr:wam.obj
 0002:000075ec       ??_C@_0BJ@BMJEJMIJ@prolog?3generate_compiled?$AA@ 004335ec     bpr:wam.obj
 0002:00007608       ??_C@_0O@PFAELBOC@v0498lib?4pl49?$AA@ 00433608     bpr:wam.obj
 0002:00007618       ??_C@_06MPDMMGJJ@$first?$AA@ 00433618     bpr:wam.obj
 0002:00007620       ??_C@_0BG@OKPLAPCL@prolog?3predicate_key0?$AA@ 00433620     bpr:wam.obj
 0002:00007638       ??_C@_08DOMPDOCM@compiled?$AA@ 00433638     bpr:wam.obj
 0002:00007644       ??_C@_0O@JGOMGBOJ@v0739lib?4pl48?$AA@ 00433644     bpr:wam.obj
 0002:00007654       ??_C@_08MNIPPEON@built_in?$AA@ 00433654     bpr:wam.obj
 0002:00007660       ??_C@_0O@MPHCIDEE@v0217lib?4pl47?$AA@ 00433660     bpr:wam.obj
 0002:00007670       ??_C@_0BM@JFMPMNEO@prolog?3generate_a_predicate?$AA@ 00433670     bpr:wam.obj
 0002:0000768c       ??_C@_0BL@KBFCOOMH@prolog?3predicate_property0?$AA@ 0043368c     bpr:wam.obj
 0002:000076a8       ??_C@_0BE@BEDFGLDE@prolog?3is_predicate?$AA@ 004336a8     bpr:wam.obj
 0002:000076bc       ??_C@_01CPLAODJH@S?$AA@    004336bc     bpr:wam.obj
 0002:000076c0       ??_C@_01GAPBHFFA@T?$AA@    004336c0     bpr:wam.obj
 0002:000076c4       ??_C@_01BNIGIBBF@Q?$AA@    004336c4     bpr:wam.obj
 0002:000076c8       ??_C@_0BD@NOEKHCFI@prolog?3float_minus?$AA@ 004336c8     bpr:wam.obj
 0002:000076dc       ??_C@_0BG@HPMLAAGC@prolog?3try_float_exp1?$AA@ 004336dc     bpr:wam.obj
 0002:000076f4       ??_C@_0BF@PANDNJHG@prolog?3try_float_exp?$AA@ 004336f4     bpr:wam.obj
 0002:0000770c       ??_C@_03OLPJGAII@box?$AA@  0043370c     bpr:wam.obj
 0002:00007710       ??_C@_0BB@KBGJAGKK@prolog?3try_float?$AA@ 00433710     bpr:wam.obj
 0002:00007724       ??_C@_0BG@JHNHHJAM@prolog?3bb_default_val?$AA@ 00433724     bpr:wam.obj
 0002:0000773c       ??_C@_0N@PEFENLJD@prolog?3$gteq?$AA@ 0043373c     bpr:wam.obj
 0002:0000774c       ??_C@_0P@LMHBEIMA@prolog?3$lesseq?$AA@ 0043374c     bpr:wam.obj
 0002:0000775c       ??_C@_0O@JMGDBCJP@prolog?3$noteq?$AA@ 0043375c     bpr:wam.obj
 0002:0000776c       ??_C@_0P@BIABIJBL@variable_in_is?$AA@ 0043376c     bpr:wam.obj
 0002:0000777c       ??_C@_0M@BJIIPAJ@error_in_is?$AA@ 0043377c     bpr:wam.obj
 0002:00007788       ??_C@_0O@EJECKKLG@v0177lib?4pl46?$AA@ 00433788     bpr:wam.obj
 0002:00007798       ??_C@_0CI@IJIAANCO@in?5tab?11?3?5should?5evaluate?5to?5an?5@ 00433798     bpr:wam.obj
 0002:000077c0       ??_C@_0M@GFHDGFHI@prolog?3tab0?$AA@ 004337c0     bpr:wam.obj
 0002:000077cc       ??_C@_0BF@GPODEGNM@prolog?3not_subsumes0?$AA@ 004337cc     bpr:wam.obj
 0002:000077e4       ??_C@_0BD@IGFDBLLC@prolog?3make_length?$AA@ 004337e4     bpr:wam.obj
 0002:000077f8       ??_C@_0BC@DNLGFLJ@prolog?3get_length?$AA@ 004337f8     bpr:wam.obj
 0002:0000780c       ??_C@_0L@OJKJKOKB@prolog?3rev?$AA@ 0043380c     bpr:wam.obj
 0002:00007818       ??_C@_0O@OJFCELPO@v0989lib?4pl45?$AA@ 00433818     bpr:wam.obj
 0002:00007828       ??_C@_0BD@KDLNELOG@prolog?3append_body?$AA@ 00433828     bpr:wam.obj
 0002:0000783c       ??_C@_0P@DKKGEMLA@prolog?3appendN?$AA@ 0043383c     bpr:wam.obj
 0002:0000784c       ??_C@_0BC@GACIHJJC@prolog?3det_append?$AA@ 0043384c     bpr:wam.obj
 0002:00007860       ??_C@_0BC@EBKMMEDN@prolog?3term2dlist?$AA@ 00433860     bpr:wam.obj
 0002:00007874       ??_C@_0BB@KGIIODBM@prolog?3term2list?$AA@ 00433874     bpr:wam.obj
 0002:00007888       ??_C@_0O@CAJKAALF@v0134lib?4pl44?$AA@ 00433888     bpr:wam.obj
 0002:00007898       ??_C@_07GHMGAFGB@BP_PATH?$AA@ 00433898     bpr:wam.obj
 0002:000078a0       ??_C@_0M@LPDDJCB@PROLOG_PATH?$AA@ 004338a0     bpr:wam.obj
 0002:000078ac       ??_C@_0BD@NPILJIKD@prolog?3getenv_path?$AA@ 004338ac     bpr:wam.obj
 0002:000078c0       ??_C@_06FBOEEHNL@period?$AA@ 004338c0     bpr:wam.obj
 0002:000078c8       ??_C@_05OLNILLAB@space?$AA@ 004338c8     bpr:wam.obj
 0002:000078d0       ??_C@_05ODNOIFML@digit?$AA@ 004338d0     bpr:wam.obj
 0002:000078d8       ??_C@_05IPJEPLHL@lower?$AA@ 004338d8     bpr:wam.obj
 0002:000078e0       ??_C@_05NECKJAMC@upper?$AA@ 004338e0     bpr:wam.obj
 0002:000078e8       ??_C@_0BC@ODFBLJGM@prolog?3char_type0?$AA@ 004338e8     bpr:wam.obj
 0002:000078fc       ??_C@_0BD@FLMBMLDF@prolog?3chars2codes?$AA@ 004338fc     bpr:wam.obj
 0002:00007910       ??_C@_0BD@MAOFKDJN@prolog?3codes2chars?$AA@ 00433910     bpr:wam.obj
 0002:00007924       ??_C@_0O@LNCFOMPB@bad_arguments?$AA@ 00433924     bpr:wam.obj
 0002:00007934       ??_C@_0O@PINOHFJF@v0303lib?4pl43?$AA@ 00433934     bpr:wam.obj
 0002:00007944       ??_C@_0L@KNAJDHD@prolog?3s2t?$AA@ 00433944     bpr:wam.obj
 0002:00007950       ??_C@_0BB@CNKNMPGG@prolog?3list2conj?$AA@ 00433950     bpr:wam.obj
 0002:00007964       ??_C@_0O@DAOBGEHO@v0579lib?4pl42?$AA@ 00433964     bpr:wam.obj
 0002:00007974       ??_C@_0BC@GFFDJAAB@prolog?3codes2term?$AA@ 00433974     bpr:wam.obj
 0002:00007988       ??_C@_0P@NPGGLAJH@prolog?3swrite1?$AA@ 00433988     bpr:wam.obj
 0002:00007998       ??_C@_0P@MGHNIBNG@prolog?3swrite0?$AA@ 00433998     bpr:wam.obj
 0002:000079a8       ??_C@_0L@NIEGDNAN@prolog?3t2s?$AA@ 004339a8     bpr:wam.obj
 0002:000079b4       ??_C@_0BB@JKPDFFKE@prolog?3save_term?$AA@ 004339b4     bpr:wam.obj
 0002:000079c8       ??_C@_0BC@BCJICLBF@prolog?3numbervars?$AA@ 004339c8     bpr:wam.obj
 0002:000079dc       ??_C@_04BKCPAJHJ@$VAR?$AA@ 004339dc     bpr:wam.obj
 0002:000079e4       ??_C@_0M@JKLBEEJI@prolog?3for1?$AA@ 004339e4     bpr:wam.obj
 0002:000079f0       ??_C@_0BA@GFKJLDEI@prolog?3full_mem?$AA@ 004339f0     bpr:wam.obj
 0002:00007a00       ??_C@_07EPOPDKGL@lastarg?$AA@ 00433a00     bpr:wam.obj
 0002:00007a08       ??_C@_0BG@JHFBKNAN@prolog?3free_variables?$AA@ 00433a08     bpr:wam.obj
 0002:00007a20       ??_C@_04JPLCBLOA@vars?$AA@ 00433a20     bpr:wam.obj
 0002:00007a28       ??_C@_0BC@OMGJCKJH@prolog?3are_shared?$AA@ 00433a28     bpr:wam.obj
 0002:00007a3c       ??_C@_0BC@IEBHHMFG@prolog?3share_vars?$AA@ 00433a3c     bpr:wam.obj
 0002:00007a50       ??_C@_0N@BJNODAFI@v051lib?4pl41?$AA@ 00433a50     bpr:wam.obj
 0002:00007a60       ??_C@_0O@DJABMGHL@v0253lib?4pl40?$AA@ 00433a60     bpr:wam.obj
 0002:00007a70       ??_C@_0O@LNEKGDBN@v0747lib?4pl39?$AA@ 00433a70     bpr:wam.obj
 0002:00007a80       ??_C@_0BL@KNCIDHBD@prolog?3collect_findall_bag?$AA@ 00433a80     bpr:wam.obj
 0002:00007a9c       ??_C@_0M@MBNJMONO@findall_bag?$AA@ 00433a9c     bpr:wam.obj
 0002:00007aa8       ??_C@_0BB@NADOPJPD@prolog?3inc_level?$AA@ 00433aa8     bpr:wam.obj
 0002:00007abc       ??_C@_0O@PDBPDFFF@v0433lib?4pl38?$AA@ 00433abc     bpr:wam.obj
 0002:00007acc       ??_C@_06LOIFNIDC@$level?$AA@ 00433acc     bpr:wam.obj
 0002:00007ad4       ??_C@_08JLBCKBNK@$findall?$AA@ 00433ad4     bpr:wam.obj
 0002:00007ae0       ??_C@_0BB@KHJFOMJO@prolog?3dec_level?$AA@ 00433ae0     bpr:wam.obj
 0002:00007af4       ??_C@_0BA@MKCBBIHF@prolog?3qfindall?$AA@ 00433af4     bpr:wam.obj
 0002:00007b04       ??_C@_01GEODFPGF@?8?$AA@   00433b04     bpr:wam.obj
 0002:00007b08       ??_C@_01BJJEKLCA@?$CC?$AA@ 00433b08     bpr:wam.obj
 0002:00007b0c       ??_C@_0BA@FMHGNHNG@prolog?3collider?$AA@ 00433b0c     bpr:wam.obj
 0002:00007b1c       ??_C@_0BF@MCGFNOEH@prolog?3left_collider?$AA@ 00433b1c     bpr:wam.obj
 0002:00007b34       ??_C@_0O@FCOFGGDA@v0575lib?4pl37?$AA@ 00433b34     bpr:wam.obj
 0002:00007b44       ??_C@_0O@PMGIHKAI@list_expected?$AA@ 00433b44     bpr:wam.obj
 0002:00007b54       ??_C@_05JEMLEKKA@found?$AA@ 00433b54     bpr:wam.obj
 0002:00007b5c       ??_C@_0BA@BDDKJLPO@prolog?3write_ws?$AA@ 00433b5c     bpr:wam.obj
 0002:00007b6c       ??_C@_02NNFLKHCP@?92?$AA@  00433b6c     bpr:wam.obj
 0002:00007b70       ??_C@_06JIKFICKK@hidden?$AA@ 00433b70     bpr:wam.obj
 0002:00007b78       ??_C@_06ODACHPEO@failed?$AA@ 00433b78     bpr:wam.obj
 0002:00007b80       ??_C@_0BA@DCFFKJLB@calling_instead?$AA@ 00433b80     bpr:wam.obj
 0002:00007b90       ??_C@_0O@GDBJEDJE@prolog?3foldr0?$AA@ 00433b90     bpr:wam.obj
 0002:00007ba0       ??_C@_0O@HFKBMNOO@prolog?3foldl0?$AA@ 00433ba0     bpr:wam.obj
 0002:00007bb0       ??_C@_0M@BHCBOHJF@prolog?3map0?$AA@ 00433bb0     bpr:wam.obj
 0002:00007bbc       ??_C@_04BFDDMJJI@args?$AA@ 00433bbc     bpr:wam.obj
 0002:00007bc4       ??_C@_0BH@PANKIAEH@prolog?3std_expand_term?$AA@ 00433bc4     bpr:wam.obj
 0002:00007bdc       ??_C@_0BM@BDBIBAJF@prolog?3portable_expand_term?$AA@ 00433bdc     bpr:wam.obj
 0002:00007bf8       ??_C@_04EJDHKJN@1200?$AA@  00433bf8     bpr:wam.obj
 0002:00007c00       ??_C@_02PKDNOKP@?$DP?9?$AA@ 00433c00     bpr:wam.obj
 0002:00007c04       ??_C@_04MIDFFFLF@1199?$AA@ 00433c04     bpr:wam.obj
 0002:00007c0c       ??_C@_0BE@EBELPDPJ@prolog?3interactive0?$AA@ 00433c0c     bpr:wam.obj
 0002:00007c20       ??_C@_0O@IIMIGMAB@v0254lib?4pl36?$AA@ 00433c20     bpr:wam.obj
 0002:00007c30       ??_C@_0BG@BLIPOOAC@prolog?3is_builtin_var?$AA@ 00433c30     bpr:wam.obj
 0002:00007c48       ??_C@_04INBALIPC@cont?$AA@ 00433c48     bpr:wam.obj
 0002:00007c50       ??_C@_0BJ@GPBNBINP@prolog?3is_builtin_nonvar?$AA@ 00433c50     bpr:wam.obj
 0002:00007c6c       ??_C@_05JCHICDG@?$DM?1li?$DO?$AA@ 00433c6c     bpr:wam.obj
 0002:00007c74       ??_C@_04CKDPPOAM@?$DMli?$DO?$AA@ 00433c74     bpr:wam.obj
 0002:00007c7c       ??_C@_03HBHCBENH@?$DMp?$DO?$AA@ 00433c7c     bpr:wam.obj
 0002:00007c80       ??_C@_0L@GKHFAMGA@prolog?3hnl?$AA@ 00433c80     bpr:wam.obj
 0002:00007c8c       ??_C@_04NKJDMFKO@?$DMbr?$DO?$AA@ 00433c8c     bpr:wam.obj
 0002:00007c94       ??_C@_09GKMIGHOJ@prolog?3br?$AA@ 00433c94     bpr:wam.obj
 0002:00007ca0       ??_C@_06MMJHMCCK@?$DM?1pre?$DO?$AA@ 00433ca0     bpr:wam.obj
 0002:00007ca8       ??_C@_0M@LLMOBNB@prolog?3epre?$AA@ 00433ca8     bpr:wam.obj
 0002:00007cb4       ??_C@_05KLIADOE@?$DMpre?$DO?$AA@ 00433cb4     bpr:wam.obj
 0002:00007cbc       ??_C@_0L@DLCGJCEN@prolog?3pre?$AA@ 00433cbc     bpr:wam.obj
 0002:00007cc8       ??_C@_07HNEBHIML@?$DM?1font?$DO?$AA@ 00433cc8     bpr:wam.obj
 0002:00007cd0       ??_C@_0BF@KNIFEMGN@?$DMfont?5color?$DN?$CCblack?$CC?$DO?$AA@ 00433cd0     bpr:wam.obj
 0002:00007ce8       ??_C@_0BD@CGLNOBCN@?$DMfont?5color?$DN?$CCred?$CC?$DO?$AA@ 00433ce8     bpr:wam.obj
 0002:00007cfc       ??_C@_0L@JBFNNOHC@prolog?3red?$AA@ 00433cfc     bpr:wam.obj
 0002:00007d08       ??_C@_0BE@KJCLDEN@?$DMfont?5color?$DN?$CCblue?$CC?$DO?$AA@ 00433d08     bpr:wam.obj
 0002:00007d1c       ??_C@_03GCIFIMCI@?$DMi?$DO?$AA@ 00433d1c     bpr:wam.obj
 0002:00007d20       ??_C@_05IDELHFOO@?$DM?1i?$DO?5?$AA@ 00433d20     bpr:wam.obj
 0002:00007d28       ??_C@_03GONAGDMJ@?$DMb?$DO?$AA@ 00433d28     bpr:wam.obj
 0002:00007d2c       ??_C@_05FEEKPCOP@?$DM?1b?$DO?5?$AA@ 00433d2c     bpr:wam.obj
 0002:00007d34       ??_C@_0BK@FDGOKOGP@prolog?3show_bindings_html?$AA@ 00433d34     bpr:wam.obj
 0002:00007d50       ??_C@_0N@HLNFINNJ@v077lib?4pl33?$AA@ 00433d50     bpr:wam.obj
 0002:00007d60       ??_C@_0BK@OBIDFPNN@prolog?3show_examples_html?$AA@ 00433d60     bpr:wam.obj
 0002:00007d7c       ??_C@_0O@OPKKFFGG@v0491lib?4pl32?$AA@ 00433d7c     bpr:wam.obj
 0002:00007d8c       ??_C@_0L@OGOMPEJG@prolog?3eli?$AA@ 00433d8c     bpr:wam.obj
 0002:00007d98       ??_C@_0BP@MLLGHCPA@prolog?3show_info_html_examples?$AA@ 00433d98     bpr:wam.obj
 0002:00007db8       ??_C@_08CFLINCMK@prolog?3i?$AA@ 00433db8     bpr:wam.obj
 0002:00007dc4       ??_C@_08MGEMALAB@prolog?3b?$AA@ 00433dc4     bpr:wam.obj
 0002:00007dd0       ??_C@_0N@IJOCCCDH@prolog?3black?$AA@ 00433dd0     bpr:wam.obj
 0002:00007de0       ??_C@_09MJGAIBHJ@prolog?3li?$AA@ 00433de0     bpr:wam.obj
 0002:00007dec       ??_C@_0BG@DOFEDOAO@prolog?3show_info_html?$AA@ 00433dec     bpr:wam.obj
 0002:00007e04       ??_C@_0O@OIHLJBPH@v0174lib?4pl31?$AA@ 00433e04     bpr:wam.obj
 0002:00007e14       ??_C@_0BF@KBCMOKBC@prolog?3gen_info_html?$AA@ 00433e14     bpr:wam.obj
 0002:00007e2c       ??_C@_0O@PBJPGOGI@v0775lib?4pl30?$AA@ 00433e2c     bpr:wam.obj
 0002:00007e3c       ??_C@_07FAPLOCAO@?$DM?1html?$DO?$AA@ 00433e3c     bpr:wam.obj
 0002:00007e44       ??_C@_07IBLFEJOK@?$DM?1body?$DO?$AA@ 00433e44     bpr:wam.obj
 0002:00007e4c       ??_C@_0N@PLAKOANA@prolog?3efont?$AA@ 00433e4c     bpr:wam.obj
 0002:00007e5c       ??_C@_05BNFJOPDD@?$DM?1ol?$DO?$AA@ 00433e5c     bpr:wam.obj
 0002:00007e64       ??_C@_0BA@JDCMJEJI@prolog?3postlude?$AA@ 00433e64     bpr:wam.obj
 0002:00007e74       ??_C@_06CMOBCCHI@?$DMhtml?$DO?$AA@ 00433e74     bpr:wam.obj
 0002:00007e7c       ??_C@_04DOEBJDAJ@?$DMol?$DO?$AA@ 00433e7c     bpr:wam.obj
 0002:00007e84       ??_C@_0P@BHGHEIMI@?$DM?1h1?$DO?$DM?1center?$DO?$AA@ 00433e84     bpr:wam.obj
 0002:00007e94       ??_C@_0N@FCMFNIIA@?$DMcenter?$DO?$DMh1?$DO?$AA@ 00433e94     bpr:wam.obj
 0002:00007ea4       ??_C@_0M@KGBMMDGD@prolog?3blue?$AA@ 00433ea4     bpr:wam.obj
 0002:00007eb0       ??_C@_06PNKPIJJM@?$DMbody?$DO?$AA@ 00433eb0     bpr:wam.obj
 0002:00007eb8       ??_C@_07EJLOLCDM@?$DM?1head?$DO?$AA@ 00433eb8     bpr:wam.obj
 0002:00007ec0       ??_C@_08LEACBOMF@?$DM?1title?$DO?$AA@ 00433ec0     bpr:wam.obj
 0002:00007ecc       ??_C@_07NBINAAM@?$DMtitle?$DO?$AA@ 00433ecc     bpr:wam.obj
 0002:00007ed4       ??_C@_06DFKEHCEK@?$DMhead?$DO?$AA@ 00433ed4     bpr:wam.obj
 0002:00007edc       ??_C@_0DL@OJFPINOB@The?5BinProlog?5API?3?5Prolog?5built?9@ 00433edc     bpr:wam.obj
 0002:00007f18       ??_C@_0P@LCELLAIC@prolog?3prelude?$AA@ 00433f18     bpr:wam.obj
 0002:00007f28       ??_C@_0BH@GPPNIOIO@generating?5html?5file?3?5?$AA@ 00433f28     bpr:wam.obj
 0002:00007f40       ??_C@_0BB@OONJHKEE@prolog?3info_html?$AA@ 00433f40     bpr:wam.obj
 0002:00007f54       ??_C@_0CP@CGOAGCGP@please?5read?5it?5with?5the?5browser?5@ 00433f54     bpr:wam.obj
 0002:00007f84       ??_C@_09FKGDGBOA@help?4html?$AA@ 00433f84     bpr:wam.obj
 0002:00007f90       ??_C@_0BF@GONOOBPI@prolog?3show_bindings?$AA@ 00433f90     bpr:wam.obj
 0002:00007fa8       ??_C@_0O@LIFJDCGL@v0880lib?4pl27?$AA@ 00433fa8     bpr:wam.obj
 0002:00007fb8       ??_C@_06COOONKFB@INFO?3?5?$AA@ 00433fb8     bpr:wam.obj
 0002:00007fc0       ??_C@_0O@NDIPDHGJ@v0405lib?4pl25?$AA@ 00433fc0     bpr:wam.obj
 0002:00007fd0       ??_C@_0O@PKJGANDJ@v0592lib?4pl26?$AA@ 00433fd0     bpr:wam.obj
 0002:00007fe0       ??_C@_0BB@MDINPJAE@prolog?3show_info?$AA@ 00433fe0     bpr:wam.obj
 0002:00007ff4       ??_C@_08CLDAHFMA@examples?$AA@ 00433ff4     bpr:wam.obj
 0002:00008000       ??_C@_04CIMGMMMG@text?$AA@ 00434000     bpr:wam.obj
 0002:00008008       ??_C@_0O@OIALFOKD@v0784lib?4pl24?$AA@ 00434008     bpr:wam.obj
 0002:00008018       ??_C@_0N@FEGHMENG@prolog?3info0?$AA@ 00434018     bpr:wam.obj
 0002:00008028       ??_C@_0O@GCDJAAIF@v0553lib?4pl23?$AA@ 00434028     bpr:wam.obj
 0002:00008038       ??_C@_0BC@IAAEOLGJ@generating?5file?3?5?$AA@ 00434038     bpr:wam.obj
 0002:0000804c       ??_C@_0CO@OLAPJIPJ@please?5read?5it?5with?5the?5editor?5o@ 0043404c     bpr:wam.obj
 0002:0000807c       ??_C@_0CJ@CLFIAMCI@containing?5help?5on?5builtins?5and?5@ 0043407c     bpr:wam.obj
 0002:000080a8       ??_C@_08KKGPGONG@help?4txt?$AA@ 004340a8     bpr:wam.obj
 0002:000080b4       ??_C@_0BG@KMDHPNAL@prolog?3make_html_help?$AA@ 004340b4     bpr:wam.obj
 0002:000080cc       ??_C@_0BG@EKHECHLJ@prolog?3make_text_help?$AA@ 004340cc     bpr:wam.obj
 0002:000080e4       ??_C@_0O@LDHNIIOM@v0816lib?4pl22?$AA@ 004340e4     bpr:wam.obj
 0002:000080f4       ??_C@_0P@MFJGBJHP@prolog?3to_list?$AA@ 004340f4     bpr:wam.obj
 0002:00008104       ??_C@_0BA@PIKOFKBB@prolog?3make_exs?$AA@ 00434104     bpr:wam.obj
 0002:00008114       ??_C@_05BEELFHJC@about?$AA@ 00434114     bpr:wam.obj
 0002:0000811c       ??_C@_0O@EODBFLHG@v0199lib?4pl21?$AA@ 0043411c     bpr:wam.obj
 0002:0000812c       ??_C@_0BE@OGOMJFJN@prolog?3comment2info?$AA@ 0043412c     bpr:wam.obj
 0002:00008140       ??_C@_0O@GECFFICG@v0320lib?4pl20?$AA@ 00434140     bpr:wam.obj
 0002:00008150       ??_C@_0O@OPAIOMLL@v0850lib?4pl19?$AA@ 00434150     bpr:wam.obj
 0002:00008160       ??_C@_0BD@FBHOHMH@prolog?3gen_bp_info?$AA@ 00434160     bpr:wam.obj
 0002:00008174       ??_C@_0BE@EBHMHLFJ@dynamic_prolog_flag?$AA@ 00434174     bpr:wam.obj
 0002:00008188       ??_C@_0BE@BNCDDFPC@dynamic_compilation?$AA@ 00434188     bpr:wam.obj
 0002:0000819c       ??_C@_0L@IFJDDDIA@$multifile?$AA@ 0043419c     bpr:wam.obj
 0002:000081a8       ??_C@_0BA@JAIKDECB@prolog?3set_prop?$AA@ 004341a8     bpr:wam.obj
 0002:000081b8       ??_C@_0P@CEMHMOLA@prolog?3op_type?$AA@ 004341b8     bpr:wam.obj
 0002:000081c8       ??_C@_0P@KLAACMNO@prolog?3get_op0?$AA@ 004341c8     bpr:wam.obj
 0002:000081d8       ??_C@_05CLDMBJBA@10000?$AA@ 004341d8     bpr:wam.obj
 0002:000081e0       ??_C@_0O@PHMILHID@prolog?3get_op?$AA@ 004341e0     bpr:wam.obj
 0002:000081f0       ??_C@_0BB@EBPJIOIB@prolog?3is_public?$AA@ 004341f0     bpr:wam.obj
 0002:00008204       ??_C@_0BM@BJABALIJ@bad?5or?5repeated?5declaration?$AA@ 00434204     bpr:wam.obj
 0002:00008220       ??_C@_0BC@LOLJGJID@prolog?3hide_atom0?$AA@ 00434220     bpr:wam.obj
 0002:00008234       ??_C@_0BB@JEKAKDNO@prolog?3hide_atom?$AA@ 00434234     bpr:wam.obj
 0002:00008248       ??_C@_0P@LCKFOJAH@prolog?3public0?$AA@ 00434248     bpr:wam.obj
 0002:00008258       ??_C@_03HBABANP@bad?$AA@   00434258     bpr:wam.obj
 0002:0000825c       ??_C@_07LKPDDKMO@current?$AA@ 0043425c     bpr:wam.obj
 0002:00008264       ??_C@_0BB@DGMMDIOP@should_be_nonvar?$AA@ 00434264     bpr:wam.obj
 0002:00008278       ??_C@_0M@CILAMEAH@prolog?3type?$AA@ 00434278     bpr:wam.obj
 0002:00008284       ??_C@_0BC@GHANHMJG@prolog?3is_heapvar?$AA@ 00434284     bpr:wam.obj
 0002:00008298       ??_C@_0BA@MLAEKBEK@prolog?3is_bbvar?$AA@ 00434298     bpr:wam.obj
 0002:000082a8       ??_C@_0M@PDLGEMI@prolog?3bbgc?$AA@ 004342a8     bpr:wam.obj
 0002:000082b4       ??_C@_0O@BEJPBKNP@prolog?3gc_set?$AA@ 004342b4     bpr:wam.obj
 0002:000082c4       ??_C@_0BH@CAKLHLHC@error_in_error_handler?$AA@ 004342c4     bpr:wam.obj
 0002:000082dc       ??_C@_0P@PBAGNIIG@prolog?3atomize?$AA@ 004342dc     bpr:wam.obj
 0002:000082ec       ??_C@_01CLKCMJKC@?5?$AA@   004342ec     bpr:wam.obj
 0002:000082f0       ??_C@_0N@CLHMPDPO@v037lib?4pl18?$AA@ 004342f0     bpr:wam.obj
 0002:00008300       ??_C@_02JGIBMEE@?3?9?$AA@  00434300     bpr:wam.obj
 0002:00008304       ??_C@_07KMMNMMFF@command?$AA@ 00434304     bpr:wam.obj
 0002:0000830c       ??_C@_0BI@LAEPFPFA@prolog?3choose_shell_cmd?$AA@ 0043430c     bpr:wam.obj
 0002:00008324       ??_C@_08GNCPANBM@temp?4pro?$AA@ 00434324     bpr:wam.obj
 0002:00008330       ??_C@_0P@NAODLNHF@prolog?3defedit?$AA@ 00434330     bpr:wam.obj
 0002:00008340       ??_C@_0BC@IAAFMLPC@prolog?3my_defedit?$AA@ 00434340     bpr:wam.obj
 0002:00008354       ??_C@_0BN@HAGOBNKM@prolog?3set_current_user_file?$AA@ 00434354     bpr:wam.obj
 0002:00008374       ??_C@_0O@JAJEOJHP@v0707lib?4pl17?$AA@ 00434374     bpr:wam.obj
 0002:00008384       ??_C@_0BC@NMNGBOE@prolog?3get_editor?$AA@ 00434384     bpr:wam.obj
 0002:00008398       ??_C@_0BC@CMJIFFFI@prolog?3find_file0?$AA@ 00434398     bpr:wam.obj
 0002:000083ac       ??_C@_0BB@LJLLBJLC@prolog?3seen_file?$AA@ 004343ac     bpr:wam.obj
 0002:000083c0       ??_C@_0BB@HGEDCDDI@prolog?3read_file?$AA@ 004343c0     bpr:wam.obj
 0002:000083d4       ??_C@_0O@ELPIPCFP@v0516lib?4pl16?$AA@ 004343d4     bpr:wam.obj
 0002:000083e4       ??_C@_0BA@ODFKCDKD@prolog?3collectx?$AA@ 004343e4     bpr:wam.obj
 0002:000083f4       ??_C@_0BI@EAGFGKJK@prolog?3select_code_from?$AA@ 004343f4     bpr:wam.obj
 0002:0000840c       ??_C@_0BE@JDBECPGI@prolog?3pick_code_of?$AA@ 0043440c     bpr:wam.obj
 0002:00008420       ??_C@_0BB@IMFLHAJG@prolog?3words2nat?$AA@ 00434420     bpr:wam.obj
 0002:00008434       ??_C@_0BA@FCCNKOGK@prolog?3fcollect?$AA@ 00434434     bpr:wam.obj
 0002:00008444       ??_C@_06MFHBAJJH@ls?5?9tF?$AA@ 00434444     bpr:wam.obj
 0002:0000844c       ??_C@_03PFGOGFOL@cat?$AA@  0043444c     bpr:wam.obj
 0002:00008450       ??_C@_03PDBDNOHD@pid?$AA@  00434450     bpr:wam.obj
 0002:00008454       ??_C@_04JNJGGDAI@fork?$AA@ 00434454     bpr:wam.obj
 0002:0000845c       ??_C@_04BJJEOANI@kill?$AA@ 0043445c     bpr:wam.obj
 0002:00008464       ??_C@_06EBPNOMLE@access?$AA@ 00434464     bpr:wam.obj
 0002:0000846c       ??_C@_0O@ICINPANK@v0172lib?4pl15?$AA@ 0043446c     bpr:wam.obj
 0002:0000847c       ??_C@_06EPDNLFGH@getenv?$AA@ 0043447c     bpr:wam.obj
 0002:00008484       ??_C@_04GIEEDNNN@argv?$AA@ 00434484     bpr:wam.obj
 0002:0000848c       ??_C@_04FPPBNLMJ@argc?$AA@ 0043448c     bpr:wam.obj
 0002:00008494       ??_C@_0N@BALHNLPE@v062lib?4pl14?$AA@ 00434494     bpr:wam.obj
 0002:000084a4       ??_C@_0O@NMHNOGDH@v0446lib?4pl13?$AA@ 004344a4     bpr:wam.obj
 0002:000084b4       ??_C@_0P@GLKMNBPL@prolog?3unix_cd?$AA@ 004344b4     bpr:wam.obj
 0002:000084c4       ??_C@_0BM@HCHDKHF@prolog?3remember_load_method?$AA@ 004344c4     bpr:wam.obj
 0002:000084e0       ??_C@_0BJ@MFNEMNPG@prolog?3apply_load_method?$AA@ 004344e0     bpr:wam.obj
 0002:000084fc       ??_C@_0O@FPMANDHL@lineno_before?$AA@ 004344fc     bpr:wam.obj
 0002:0000850c       ??_C@_0N@MODAPEFC@lineno_after?$AA@ 0043450c     bpr:wam.obj
 0002:0000851c       ??_C@_0O@HNJJJILM@v0794lib?4pl12?$AA@ 0043451c     bpr:wam.obj
 0002:0000852c       ??_C@_05HLOCGDML@guest?$AA@ 0043452c     bpr:wam.obj
 0002:00008534       ??_C@_04OOEKJIOI@USER?$AA@ 00434534     bpr:wam.obj
 0002:0000853c       ??_C@_04DIMBHGPH@7001?$AA@ 0043453c     bpr:wam.obj
 0002:00008544       ??_C@_0O@CMEHCKDF@v0435lib?4pl11?$AA@ 00434544     bpr:wam.obj
 0002:00008554       ??_C@_04CGFJFPFD@none?$AA@ 00434554     bpr:wam.obj
 0002:0000855c       ??_C@_0BM@PHOMCLDL@prolog?3default_port_service?$AA@ 0043455c     bpr:wam.obj
 0002:00008578       ??_C@_0BF@NIDPEGC@default_port_service?$AA@ 00434578     bpr:wam.obj
 0002:00008590       ??_C@_0O@BIGNBABE@v0246lib?4pl10?$AA@ 00434590     bpr:wam.obj
 0002:000085a0       ??_C@_0BA@NIAKBKDJ@prolog?3cmd_flag?$AA@ 004345a0     bpr:wam.obj
 0002:000085b0       ??_C@_0N@IGFDCEDG@v0883lib?4pl9?$AA@ 004345b0     bpr:wam.obj
 0002:000085c0       ??_C@_0BI@ENBAHEJH@prolog?3read_or_skip_cmd?$AA@ 004345c0     bpr:wam.obj
 0002:000085d8       ??_C@_0BG@CBJPOPMK@prolog?3call_cmd_goals?$AA@ 004345d8     bpr:wam.obj
 0002:000085f0       ??_C@_0BE@GDKEJCDN@prolog?3top_file_cmd?$AA@ 004345f0     bpr:wam.obj
 0002:00008604       ??_C@_0BO@GFLCMPLE@trying?5to?5execute?5command?5?$CB?$CB?$CB?$AA@ 00434604     bpr:wam.obj
 0002:00008624       ??_C@_0M@PNFOGEMC@v019lib?4pl8?$AA@ 00434624     bpr:wam.obj
 0002:00008630       ??_C@_07NFIEECMO@1000000?$AA@ 00434630     bpr:wam.obj
 0002:00008638       ??_C@_0BP@EDDOJEIM@prolog?3exec_run_time_commands0?$AA@ 00434638     bpr:wam.obj
 0002:00008658       ??_C@_04GMOJEHPC@done?$AA@ 00434658     bpr:wam.obj
 0002:00008660       ??_C@_0BH@MLBAFPD@exec_run_time_commands?$AA@ 00434660     bpr:wam.obj
 0002:00008678       ??_C@_0BC@PNKMHLCG@$run_time_command?$AA@ 00434678     bpr:wam.obj
 0002:0000868c       ??_C@_0BA@DEKOOIAN@prolog?3cmd_root?$AA@ 0043468c     bpr:wam.obj
 0002:0000869c       ??_C@_05JNBLEPDF@65536?$AA@ 0043469c     bpr:wam.obj
 0002:000086a4       ??_C@_0BC@PNPOCNHF@prolog?3guess_port?$AA@ 004346a4     bpr:wam.obj
 0002:000086b8       ??_C@_0BJ@GOLJLJKI@prolog?3run_more_commands?$AA@ 004346b8     bpr:wam.obj
 0002:000086d4       ??_C@_0BH@LJMKNAKD@prolog?3check_if_server?$AA@ 004346d4     bpr:wam.obj
 0002:000086ec       ??_C@_0BB@OJCBNMPN@prolog?3show_help?$AA@ 004346ec     bpr:wam.obj
 0002:00008700       ??_C@_0BI@KPOAPBEF@prolog?3check_if_runtime?$AA@ 00434700     bpr:wam.obj
 0002:00008718       ??_C@_0BJ@ONCIGAIA@prolog?3run_first_command?$AA@ 00434718     bpr:wam.obj
 0002:00008734       ??_C@_0BO@HBKENGME@prolog?3exec_run_time_commands?$AA@ 00434734     bpr:wam.obj
 0002:00008754       ??_C@_07DBGOHDOG@culprit?$AA@ 00434754     bpr:wam.obj
 0002:0000875c       ??_C@_0BP@IPNNMBPG@blackboard?5overflow?0?5left?5only?$AA@ 0043475c     bpr:wam.obj
 0002:0000877c       ??_C@_0P@CDLMOKC@prolog?3bb_fail?$AA@ 0043477c     bpr:wam.obj
 0002:0000878c       ??_C@_08FDMAEHGB@bb_put_1?$AA@ 0043478c     bpr:wam.obj
 0002:00008798       ??_C@_0BA@DKDGPKPH@prolog?3bb_put_1?$AA@ 00434798     bpr:wam.obj
 0002:000087a8       ??_C@_0BE@GJPGMPOF@prolog?3bb_put_back1?$AA@ 004347a8     bpr:wam.obj
 0002:000087bc       ??_C@_0M@MMAAKKFC@v071lib?4pl7?$AA@ 004347bc     bpr:wam.obj
 0002:000087c8       ??_C@_04DOOIMPEH@used?$AA@ 004347c8     bpr:wam.obj
 0002:000087d0       ??_C@_05KBOMEDGA@total?$AA@ 004347d0     bpr:wam.obj
 0002:000087d8       ??_C@_0M@EIGOKNHI@bboard_used?$AA@ 004347d8     bpr:wam.obj
 0002:000087e4       ??_C@_0BA@FHLMEFBL@entering_bb_gc0?$AA@ 004347e4     bpr:wam.obj
 0002:000087f4       ??_C@_08EOKCAHIN@bb_after?$AA@ 004347f4     bpr:wam.obj
 0002:00008800       ??_C@_06BBNMIJDJ@actual?$AA@ 00434800     bpr:wam.obj
 0002:00008808       ??_C@_09GPEJODCL@estimated?$AA@ 00434808     bpr:wam.obj
 0002:00008814       ??_C@_06IFJIHOJA@useful?$AA@ 00434814     bpr:wam.obj
 0002:0000881c       ??_C@_09EJCMIOMN@bb_before?$AA@ 0043481c     bpr:wam.obj
 0002:00008828       ??_C@_0L@DAANGGGC@bb_savings?$AA@ 00434828     bpr:wam.obj
 0002:00008834       ??_C@_0BA@LELACILP@exiting__bb_gc0?$AA@ 00434834     bpr:wam.obj
 0002:00008844       ??_C@_0BA@KCIEEACB@prolog?3bb_check?$AA@ 00434844     bpr:wam.obj
 0002:00008854       ??_C@_0BD@KBNDBLKJ@prolog?3bb_put_back?$AA@ 00434854     bpr:wam.obj
 0002:00008868       ??_C@_0BA@EOKHHEFK@entering_bb_gc1?$AA@ 00434868     bpr:wam.obj
 0002:00008878       ??_C@_01KGKMHCOC@e?$AA@    00434878     bpr:wam.obj
 0002:0000887c       ??_C@_06LOBMEHPF@engine?$AA@ 0043487c     bpr:wam.obj
 0002:00008884       ??_C@_09FJBBFIPI@main_heap?$AA@ 00434884     bpr:wam.obj
 0002:00008890       ??_C@_0BA@KNKLBJPO@exiting__bb_gc1?$AA@ 00434890     bpr:wam.obj
 0002:000088a0       ??_C@_04MJHCKDHM@1024?$AA@ 004348a0     bpr:wam.obj
 0002:000088a8       ??_C@_03OCGDPLBD@500?$AA@  004348a8     bpr:wam.obj
 0002:000088ac       ??_C@_0O@NLADOBOH@prolog?3bb_gc1?$AA@ 004348ac     bpr:wam.obj
 0002:000088bc       ??_C@_08BEHKFNNO@disabled?$AA@ 004348bc     bpr:wam.obj
 0002:000088c8       ??_C@_0O@GIJJFKNG@blackboard_gc?$AA@ 004348c8     bpr:wam.obj
 0002:000088d8       ??_C@_0P@BOKIMPII@prolog?3bb_used?$AA@ 004348d8     bpr:wam.obj
 0002:000088e8       ??_C@_0BB@NLHANKKD@prolog?3heap_used?$AA@ 004348e8     bpr:wam.obj
 0002:000088fc       ??_C@_0BB@KKCHEHFB@prolog?3area_used?$AA@ 004348fc     bpr:wam.obj
 0002:00008910       ??_C@_0BE@HOLPLKNN@prolog?3to_full_stop?$AA@ 00434910     bpr:wam.obj
 0002:00008924       ??_C@_0BD@EJCCKHJK@prolog?3chars2prog0?$AA@ 00434924     bpr:wam.obj
 0002:00008938       ??_C@_0BD@FADJJGNL@prolog?3chars2prog1?$AA@ 00434938     bpr:wam.obj
 0002:0000894c       ??_C@_0N@PEDFLDEJ@v0853lib?4pl6?$AA@ 0043494c     bpr:wam.obj
 0002:0000895c       ??_C@_0N@DNJNHPHJ@v0882lib?4pl5?$AA@ 0043495c     bpr:wam.obj
 0002:0000896c       ??_C@_0N@EMGKAMO@v0401lib?4pl4?$AA@ 0043496c     bpr:wam.obj
 0002:0000897c       ??_C@_0L@DCBLEEBC@?$CB?$CBENTERING?$AA@ 0043497c     bpr:wam.obj
 0002:00008988       ??_C@_09JOMDFOMO@?$CB?$CBEXITING?$AA@ 00434988     bpr:wam.obj
 0002:00008994       ??_C@_02GNMIELFD@?$DN?$DO?$AA@ 00434994     bpr:wam.obj
 0002:00008998       ??_C@_08OBPFECCB@$profile?$AA@ 00434998     bpr:wam.obj
 0002:000089a4       ??_C@_0N@NEAJLCCI@v0919lib?4pl3?$AA@ 004349a4     bpr:wam.obj
 0002:000089b4       ??_C@_0BC@EOMHCJPF@prolog?3to_map_key?$AA@ 004349b4     bpr:wam.obj
 0002:000089c8       ??_C@_0BH@PFFPGFGN@prolog?3x_call_compiled?$AA@ 004349c8     bpr:wam.obj
 0002:000089e0       ??_C@_0BC@PBMIGLO@prolog?3hash_trace?$AA@ 004349e0     bpr:wam.obj
 0002:000089f4       ??_C@_0M@CNKPEMKD@v067lib?4pl2?$AA@ 004349f4     bpr:wam.obj
 0002:00008a00       ??_C@_0N@FDLCKMDA@v0423lib?4pl1?$AA@ 00434a00     bpr:wam.obj
 0002:00008a10       ??_C@_07HPMOGKMC@do_body?$AA@ 00434a10     bpr:wam.obj
 0002:00008a18       ??_C@_03ICICOMAL@yes?$AA@  00434a18     bpr:wam.obj
 0002:00008a1c       ??_C@_02KAJCLHKP@no?$AA@   00434a1c     bpr:wam.obj
 0002:00008a20       ??_C@_0BB@NAHEHEBJ@prolog?3trim_args?$AA@ 00434a20     bpr:wam.obj
 0002:00008a34       ??_C@_0BD@EPANDPMM@prolog?3trim_depth1?$AA@ 00434a34     bpr:wam.obj
 0002:00008a48       ??_C@_0BC@IDBDJOJJ@prolog?3trim_depth?$AA@ 00434a48     bpr:wam.obj
 0002:00008a5c       ??_C@_03KHICJKCI@?4?4?4?$AA@ 00434a5c     bpr:wam.obj
 0002:00008a60       ??_C@_0BD@NDJNHHIP@prolog?3trim_detail?$AA@ 00434a60     bpr:wam.obj
 0002:00008a74       ??_C@_04NNHNJHIJ@?$CK?$CK?$CK?5?$AA@ 00434a74     bpr:wam.obj
 0002:00008a7c       ??_C@_04IMEJGNKP@?$DO?$DO?$DO?5?$AA@ 00434a7c     bpr:wam.obj
 0002:00008a84       ??_C@_02LMMGGCAJ@?3?5?$AA@ 00434a84     bpr:wam.obj
 0002:00008a88       ??_C@_0BF@EELDJOOI@prolog?3portray_error?$AA@ 00434a88     bpr:wam.obj
 0002:00008aa0       ??_C@_03KCABIPMJ@666?$AA@  00434aa0     bpr:wam.obj
 0002:00008aa4       ??_C@_06NAJLJBKF@pretty?$AA@ 00434aa4     bpr:wam.obj
 0002:00008aac       ??_C@_0BF@GLJMHCCG@prolog?3error_message?$AA@ 00434aac     bpr:wam.obj
 0002:00008ac4       ??_C@_05NPAPGJEJ@basic?$AA@ 00434ac4     bpr:wam.obj
 0002:00008acc       ??_C@_08BPKGBPLK@realtime?$AA@ 00434acc     bpr:wam.obj
 0002:00008ad8       ??_C@_06LABLBGAJ@gctime?$AA@ 00434ad8     bpr:wam.obj
 0002:00008ae0       ??_C@_06CGEDKBAH@htable?$AA@ 00434ae0     bpr:wam.obj
 0002:00008ae8       ??_C@_07LAPAOEJA@symbols?$AA@ 00434ae8     bpr:wam.obj
 0002:00008af0       ??_C@_07OAJOIMIL@strings?$AA@ 00434af0     bpr:wam.obj
 0002:00008af8       ??_C@_02PGHGPEOM@?91?$AA@  00434af8     bpr:wam.obj
 0002:00008afc       ??_C@_03BNBDMEEF@254?$AA@  00434afc     bpr:wam.obj
 0002:00008b00       ??_C@_03FCFCFCIC@253?$AA@  00434b00     bpr:wam.obj
 0002:00008b04       ??_C@_03ELEJGDMD@252?$AA@  00434b04     bpr:wam.obj
 0002:00008b08       ??_C@_03GAGEDAAA@251?$AA@  00434b08     bpr:wam.obj
 0002:00008b0c       ??_C@_03HJHPABEB@250?$AA@  00434b0c     bpr:wam.obj
 0002:00008b10       ??_C@_03KJHPNADP@249?$AA@  00434b10     bpr:wam.obj
 0002:00008b14       ??_C@_03LAGEOBHO@248?$AA@  00434b14     bpr:wam.obj
 0002:00008b18       ??_C@_03COOHMMPA@246?$AA@  00434b18     bpr:wam.obj
 0002:00008b1c       ??_C@_03FMKJPDD@245?$AA@   00434b1c     bpr:wam.obj
 0002:00008b20       ??_C@_03BMNBKOHC@244?$AA@  00434b20     bpr:wam.obj
 0002:00008b24       ??_C@_03FDJADILF@243?$AA@  00434b24     bpr:wam.obj
 0002:00008b28       ??_C@_03EKILAJPE@242?$AA@  00434b28     bpr:wam.obj
 0002:00008b2c       ??_C@_03GBKGFKDH@241?$AA@  00434b2c     bpr:wam.obj
 0002:00008b30       ??_C@_03HILNGLHG@240?$AA@  00434b30     bpr:wam.obj
 0002:00008b34       ??_C@_03KMDAMGLK@239?$AA@  00434b34     bpr:wam.obj
 0002:00008b38       ??_C@_03LFCLPHPL@238?$AA@  00434b38     bpr:wam.obj
 0002:00008b3c       ??_C@_03DCLDOLDE@237?$AA@  00434b3c     bpr:wam.obj
 0002:00008b40       ??_C@_03CLKINKHF@236?$AA@  00434b40     bpr:wam.obj
 0002:00008b44       ??_C@_03IFIJLG@235?$AA@    00434b44     bpr:wam.obj
 0002:00008b48       ??_C@_03BJJOLIPH@234?$AA@  00434b48     bpr:wam.obj
 0002:00008b4c       ??_C@_03FGNPCODA@233?$AA@  00434b4c     bpr:wam.obj
 0002:00008b50       ??_C@_03EPMEBPHB@232?$AA@  00434b50     bpr:wam.obj
 0002:00008b54       ??_C@_03GEOJEMLC@231?$AA@  00434b54     bpr:wam.obj
 0002:00008b58       ??_C@_03HNPCHNPD@230?$AA@  00434b58     bpr:wam.obj
 0002:00008b5c       ??_C@_03KNPCKMIN@229?$AA@  00434b5c     bpr:wam.obj
 0002:00008b60       ??_C@_03LEOJJNMM@228?$AA@  00434b60     bpr:wam.obj
 0002:00008b64       ??_C@_03DDHBIBAD@227?$AA@  00434b64     bpr:wam.obj
 0002:00008b68       ??_C@_03CKGKLAEC@226?$AA@  00434b68     bpr:wam.obj
 0002:00008b6c       ??_C@_03BEHODIB@225?$AA@   00434b6c     bpr:wam.obj
 0002:00008b70       ??_C@_03BIFMNCMA@224?$AA@  00434b70     bpr:wam.obj
 0002:00008b74       ??_C@_03FHBNEEAH@223?$AA@  00434b74     bpr:wam.obj
 0002:00008b78       ??_C@_03EOAGHFEG@222?$AA@  00434b78     bpr:wam.obj
 0002:00008b7c       ??_C@_03GFCLCGIF@221?$AA@  00434b7c     bpr:wam.obj
 0002:00008b80       ??_C@_03HMDABHME@220?$AA@  00434b80     bpr:wam.obj
 0002:00008b84       ??_C@_03LGKPCDJF@218?$AA@  00434b84     bpr:wam.obj
 0002:00008b88       ??_C@_03DBDHDPFK@217?$AA@  00434b88     bpr:wam.obj
 0002:00008b8c       ??_C@_03CICMAOBL@216?$AA@  00434b8c     bpr:wam.obj
 0002:00008b90       ??_C@_03BKBKGMJJ@214?$AA@  00434b90     bpr:wam.obj
 0002:00008b94       ??_C@_03FFFLPKFO@213?$AA@  00434b94     bpr:wam.obj
 0002:00008b98       ??_C@_03EMEAMLBP@212?$AA@  00434b98     bpr:wam.obj
 0002:00008b9c       ??_C@_03GHGNJINM@211?$AA@  00434b9c     bpr:wam.obj
 0002:00008ba0       ??_C@_03HOHGKJJN@210?$AA@  00434ba0     bpr:wam.obj
 0002:00008ba4       ??_C@_03KOHGHIOD@209?$AA@  00434ba4     bpr:wam.obj
 0002:00008ba8       ??_C@_03LHGNEJKC@208?$AA@  00434ba8     bpr:wam.obj
 0002:00008bac       ??_C@_03DAPFFFGN@207?$AA@  00434bac     bpr:wam.obj
 0002:00008bb0       ??_C@_03CJOOGECM@206?$AA@  00434bb0     bpr:wam.obj
 0002:00008bb4       ??_C@_03CMDDHOP@205?$AA@   00434bb4     bpr:wam.obj
 0002:00008bb8       ??_C@_03BLNIAGKO@204?$AA@  00434bb8     bpr:wam.obj
 0002:00008bbc       ??_C@_03FEJJJAGJ@203?$AA@  00434bbc     bpr:wam.obj
 0002:00008bc0       ??_C@_03GGKPPCOL@201?$AA@  00434bc0     bpr:wam.obj
 0002:00008bc4       ??_C@_03LDBCOMIC@199?$AA@  00434bc4     bpr:wam.obj
 0002:00008bc8       ??_C@_03KKAJNNMD@198?$AA@  00434bc8     bpr:wam.obj
 0002:00008bcc       ??_C@_03CNJBMBAM@197?$AA@  00434bcc     bpr:wam.obj
 0002:00008bd0       ??_C@_03DEIKPAEN@196?$AA@  00434bd0     bpr:wam.obj
 0002:00008bd4       ??_C@_03BPKHKDIO@195?$AA@  00434bd4     bpr:wam.obj
 0002:00008bd8       ??_C@_03GLMJCMP@194?$AA@   00434bd8     bpr:wam.obj
 0002:00008bdc       ??_C@_03EJPNAEAI@193?$AA@  00434bdc     bpr:wam.obj
 0002:00008be0       ??_C@_03FAOGDFEJ@192?$AA@  00434be0     bpr:wam.obj
 0002:00008be4       ??_C@_0BN@KCKDGHKI@prints?5hi?5on?5default?5console?$AA@ 00434be4     bpr:wam.obj
 0002:00008c04       ??_C@_02PCEFGMJL@hi?$AA@   00434c04     bpr:wam.obj
 0002:00008c08       ??_C@_0CD@CDNGINCM@prints?5messages?5on?5default?5conso@ 00434c08     bpr:wam.obj
 0002:00008c2c       ??_C@_07GCEBNMMA@traceln?$AA@ 00434c2c     bpr:wam.obj
 0002:00008c34       ??_C@_0CJ@NHIMPAAP@runs?5simple?5shell?5server?5at?5defa@ 00434c34     bpr:wam.obj
 0002:00008c60       ??_C@_0CH@IKOAFMI@runs?5simple?5shell?5server?5at?5give@ 00434c60     bpr:wam.obj
 0002:00008c88       ??_C@_0N@BOAIPEJA@shell_server?$AA@ 00434c88     bpr:wam.obj
 0002:00008c98       ??_C@_0CJ@PKIPEHAB@runs?5simple?5remot?5server?5at?5defa@ 00434c98     bpr:wam.obj
 0002:00008cc4       ??_C@_0CI@POGNEEPD@runs?5simple?5remote?5server?5at?5giv@ 00434cc4     bpr:wam.obj
 0002:00008cec       ??_C@_07NPFDINMB@cserver?$AA@ 00434cec     bpr:wam.obj
 0002:00008cf4       ??_C@_0BO@IJDBCEIF@reads?5term?5from?5array?5of?5ints?$AA@ 00434cf4     bpr:wam.obj
 0002:00008d14       ??_C@_07GBMEHCF@popTerm?$AA@ 00434d14     bpr:wam.obj
 0002:00008d1c       ??_C@_0BN@CDPMOBMN@writes?5term?5to?5array?5of?5ints?$AA@ 00434d1c     bpr:wam.obj
 0002:00008d3c       ??_C@_08HCIPDHBP@pushTerm?$AA@ 00434d3c     bpr:wam.obj
 0002:00008d48       ??_C@_0BJ@EKFHODIB@counts?5answers?5to?5a?5goal?$AA@ 00434d48     bpr:wam.obj
 0002:00008d64       ??_C@_0O@EFGKIGCJ@count_answers?$AA@ 00434d64     bpr:wam.obj
 0002:00008d74       ??_C@_0BD@CFCEIPEE@simple?5call?5tracer?$AA@ 00434d74     bpr:wam.obj
 0002:00008d88       ??_C@_0BF@ONJKGNJK@Hilog?5call?5predicate?$AA@ 00434d88     bpr:wam.obj
 0002:00008da0       ??_C@_0GC@IMDPNBBF@callj?$CIG?$CJ?5calls?5Jinni?5in?5Twin?5Pro@ 00434da0     bpr:wam.obj
 0002:00008e08       ??_C@_0FM@NNMFDNIO@callj?$CIG?0R?$CJ?5calls?5Jinni?5in?5Twin?5P@ 00434e08     bpr:wam.obj
 0002:00008e68       ??_C@_0FO@EIBOCFMC@callj?$CIX?0G?0R?$CJ?5calls?5Jinni?5in?5Twin@ 00434e68     bpr:wam.obj
 0002:00008ec8       ??_C@_05MLCAIEIH@callj?$AA@ 00434ec8     bpr:wam.obj
 0002:00008ed0       ??_C@_0DJ@CLLLHBBK@works?5for?5throw?11?3?5used?5to?5rethr@ 00434ed0     bpr:wam.obj
 0002:00008f0c       ??_C@_0BA@DBLBMFIO@throw_with_cont?$AA@ 00434f0c     bpr:wam.obj
 0002:00008f1c       ??_C@_0CH@BPAOFNCI@processes?5data?5sent?5by?5catch?5for@ 00434f1c     bpr:wam.obj
 0002:00008f44       ??_C@_0P@KJNKGBDC@$process_catch?$AA@ 00434f44     bpr:wam.obj
 0002:00008f54       ??_C@_0DK@HEIHNOAN@?$CICatchThrowData?$CJ?3?5continuation?5m@ 00434f54     bpr:wam.obj
 0002:00008f90       ??_C@_0BJ@PKIONJFC@$catch_looking_for_throw?$AA@ 00434f90     bpr:wam.obj
 0002:00008fac       ??_C@_0CK@EFDGNHDO@calls?5arg?51?5as?5cc?5and?5returns?5cc@ 00434fac     bpr:wam.obj
 0002:00008fd8       ??_C@_09CMPFHNDC@swap_cont?$AA@ 00434fd8     bpr:wam.obj
 0002:00008fe4       ??_C@_0CE@BFKDKABD@calls?5arg?51?5as?5current?5continuat@ 00434fe4     bpr:wam.obj
 0002:00009008       ??_C@_09OPPKCEEK@call_cont?$AA@ 00435008     bpr:wam.obj
 0002:00009014       ??_C@_0DG@PPGHJPFE@captures?5current?5continuation?0?5u@ 00435014     bpr:wam.obj
 0002:0000904c       ??_C@_08OIMNFHOJ@get_cont?$AA@ 0043504c     bpr:wam.obj
 0002:00009058       ??_C@_06KHCGBIIP@catch0?$AA@ 00435058     bpr:wam.obj
 0002:00009060       ??_C@_0FJ@OBBHGMGO@ISO?5Prolog?5exception?5operator?3?5e@ 00435060     bpr:wam.obj
 0002:000090bc       ??_C@_05GHOHNOEI@catch?$AA@ 004350bc     bpr:wam.obj
 0002:000090c8       ??_C@_0EO@CPDBOPMC@ISO?5Prolog?5exception?5operator?3?5t@ 004350c8     bpr:wam.obj
 0002:00009118       ??_C@_05JFAPCGDM@throw?$AA@ 00435118     bpr:wam.obj
 0002:00009120       ??_C@_08DAKDLCDD@add_cont?$AA@ 00435120     bpr:wam.obj
 0002:0000912c       ??_C@_0L@LIJGNFNJ@strip_cont?$AA@ 0043512c     bpr:wam.obj
 0002:00009138       ??_C@_0BM@OMIMHIEP@defined?5as?5the?$CIG?$CJ?3?9the?$CIG?0G?$CJ?$AA@ 00435138     bpr:wam.obj
 0002:00009154       ??_C@_0CF@PIEGAHD@defined?5as?5the?$CIX?0G?$CJ?3?9the?$CIX?0G?0the@ 00435154     bpr:wam.obj
 0002:0000917c       ??_C@_0DM@HKLDOCNE@the?$CIX?0G?0R?$CJ?5first?5answer?5R?$DNthe?$CIX?$CJ@ 0043517c     bpr:wam.obj
 0002:000091b8       ??_C@_03GEKIBCFC@the?$AA@  004351b8     bpr:wam.obj
 0002:000091bc       ??_C@_0DK@MHJPDPNF@?$CIX?$CJ?3?5matches?5?$CL?$CIX?$CJ?5or?5?$CK?$CIX?$CJ?5assump@ 004351bc     bpr:wam.obj
 0002:000091f8       ??_C@_02GCGLPEGI@?$CD?$DP?$AA@ 004351f8     bpr:wam.obj
 0002:00009200       ??_C@_0EP@BKEEDHEL@?$CIX?$CJ?3?5consumes?5?$CL?$CIX?$CJ?5linear?5assump@ 00435200     bpr:wam.obj
 0002:00009250       ??_C@_02BKJPIELL@?$CD?9?$AA@ 00435250     bpr:wam.obj
 0002:00009258       ??_C@_0EM@LBMJNCJJ@?$CIX?$CJ?3?5unifies?5X?5with?5any?5matching@ 00435258     bpr:wam.obj
 0002:000092a4       ??_C@_02FAFNJGOK@?$CD?$DN?$AA@ 004352a4     bpr:wam.obj
 0002:000092a8       ??_C@_0FA@KBLOOOCE@?$CIX?$CJ?3?5adds?5intuitionisic?5assumpti@ 004352a8     bpr:wam.obj
 0002:000092f8       ??_C@_02FFNOBCHM@?$CD?$CK?$AA@ 004352f8     bpr:wam.obj
 0002:00009300       ??_C@_0FA@OADHCKPM@?$CIX?$CJ?3?5adds?5linear?5assumption?5?$CL?$CIX?$CJ@ 00435300     bpr:wam.obj
 0002:00009350       ??_C@_02EMMFCDDN@?$CD?$CL?$AA@ 00435350     bpr:wam.obj
 0002:00009354       ??_C@_0CJ@HPMJMMOJ@?$CIX?$CJ?3?5matches?5X?5against?5current?5d@ 00435354     bpr:wam.obj
 0002:00009380       ??_C@_02BPBMAACN@?$CD?3?$AA@ 00435380     bpr:wam.obj
 0002:00009384       ??_C@_0CN@GEBDJMN@?$CIXs?$CJ?3?5unifies?5current?5dcg?5token?5@ 00435384     bpr:wam.obj
 0002:000093b4       ??_C@_02HLHAMFCJ@?$CD?$DO?$AA@ 004353b4     bpr:wam.obj
 0002:000093b8       ??_C@_0CH@HBEIFHGG@?$CIXs?$CJ?3?5sets?5the?5dcg?5token?5list?5to@ 004353b8     bpr:wam.obj
 0002:000093e0       ??_C@_02EJEGKHKL@?$CD?$DM?$AA@ 004353e0     bpr:wam.obj
 0002:000093e8       ??_C@_0EP@MKLOHMJA@?$CIAnswer?0Goal?0Timeout?0Result?$CJ?5?9?5c@ 004353e8     bpr:wam.obj
 0002:00009438       ??_C@_0L@JFPKNBDE@timed_call?$AA@ 00435438     bpr:wam.obj
 0002:00009448       ??_C@_0ED@OKEMPOEL@checks?1generates?5predicates?5Pred@ 00435448     bpr:wam.obj
 0002:0000948c       ??_C@_08CDLAENKK@has_info?$AA@ 0043548c     bpr:wam.obj
 0002:00009498       ??_C@_0CG@IMLAPOBN@generates?5components?5of?5info?11?5o@ 00435498     bpr:wam.obj
 0002:000094c0       ??_C@_09NKIIDJMI@show_info?$AA@ 004354c0     bpr:wam.obj
 0002:000094cc       ??_C@_0DM@FBIMNDDD@generates?5info?5and?5examples?5of?5u@ 004354cc     bpr:wam.obj
 0002:00009508       ??_C@_0CL@OFEFLLND@generates?5info?5on?5predicates?5wit@ 00435508     bpr:wam.obj
 0002:00009534       ??_C@_04NIDJFNBE@info?$AA@ 00435534     bpr:wam.obj
 0002:0000953c       ??_C@_0L@IGDICMFK@extract_ex?$AA@ 0043553c     bpr:wam.obj
 0002:00009548       ??_C@_0CM@CPNCLGPP@keeps?5basic?5help?5info?5on?5BinProl@ 00435548     bpr:wam.obj
 0002:00009574       ??_C@_07PIEHLIKP@bp_info?$AA@ 00435574     bpr:wam.obj
 0002:00009580       ??_C@_0FD@GDDFCLIH@gets?5a?5predicate?5of?5form?5p_n_inf@ 00435580     bpr:wam.obj
 0002:000095d4       ??_C@_0O@BKEBDNHD@to_bp_comment?$AA@ 004355d4     bpr:wam.obj
 0002:000095e4       ??_C@_0BG@CPNBGFP@about_to_bp_comment_3?$AA@ 004355e4     bpr:wam.obj
 0002:000095fc       ??_C@_0DI@MMPMCCAL@returns?5the?5type?5of?5char?5code?3?5u@ 004355fc     bpr:wam.obj
 0002:00009634       ??_C@_09NGOIOOI@char_type?$AA@ 00435634     bpr:wam.obj
 0002:00009640       ??_C@_0CH@CKACAGO@converts?5a?5list?5of?5chars?5to?5uppe@ 00435640     bpr:wam.obj
 0002:00009668       ??_C@_0P@DOPODHIO@to_upper_chars?$AA@ 00435668     bpr:wam.obj
 0002:00009678       ??_C@_0CH@GFNPGNIM@converts?5a?5list?5of?5chars?5to?5lowe@ 00435678     bpr:wam.obj
 0002:000096a0       ??_C@_0P@HAJNMLJH@to_lower_chars?$AA@ 004356a0     bpr:wam.obj
 0002:000096b0       ??_C@_0CN@HMDDEDPN@?$CILower?0Upper?$CJ?3?5converts?5a?5char?5t@ 004356b0     bpr:wam.obj
 0002:000096e0       ??_C@_0O@FJEMHFGB@to_upper_char?$AA@ 004356e0     bpr:wam.obj
 0002:000096f0       ??_C@_0CN@NFGKDCG@?$CIUpper?0Lower?$CJ?3?5converts?5a?5char?5t@ 004356f0     bpr:wam.obj
 0002:00009720       ??_C@_0O@DODDDIID@to_lower_char?$AA@ 00435720     bpr:wam.obj
 0002:00009730       ??_C@_0BJ@PFGACEEO@matches?52?5lists?5of?5chars?$AA@ 00435730     bpr:wam.obj
 0002:0000974c       ??_C@_0L@MCDEEHCJ@near_match?$AA@ 0043574c     bpr:wam.obj
 0002:00009758       ??_C@_0CO@OLFBLBDK@write?5list?5of?5words?5to?5a?5space?5s@ 00435758     bpr:wam.obj
 0002:00009788       ??_C@_0M@DICCMMAA@write_words?$AA@ 00435788     bpr:wam.obj
 0002:00009794       ??_C@_0CC@MNODIFEN@reads?5a?5line?5into?5a?5list?5of?5word@ 00435794     bpr:wam.obj
 0002:000097b8       ??_C@_0L@EIGDDENG@read_words?$AA@ 004357b8     bpr:wam.obj
 0002:000097c4       ??_C@_0BN@GPBOGCDO@reads?5a?5line?5into?5a?5constant?$AA@ 004357c4     bpr:wam.obj
 0002:000097e4       ??_C@_09CGHCCPDL@read_line?$AA@ 004357e4     bpr:wam.obj
 0002:000097f0       ??_C@_0CK@INLOPNFF@synchronized?5printing?5of?5a?5term?5@ 004357f0     bpr:wam.obj
 0002:0000981c       ??_C@_0CO@DCJBGJAE@applies?5Op?5to?5arg?52?5and?5arg?53?5gi@ 0043581c     bpr:wam.obj
 0002:0000984c       ??_C@_07ODGMEIEJ@compute?$AA@ 0043584c     bpr:wam.obj
 0002:00009854       ??_C@_0BI@JNBFOFJJ@conjunction?0?5like?5comma?$AA@ 00435854     bpr:wam.obj
 0002:0000986c       ??_C@_03BOPJPIAM@and?$AA@  0043586c     bpr:wam.obj
 0002:00009870       ??_C@_0CA@JDENLHAH@unifies?5arg?51?5and?5arg?52?0?5like?5?$DN?$AA@ 00435870     bpr:wam.obj
 0002:00009890       ??_C@_0GA@NEJCOBLC@checks?5if?5toplevel?5is?5interactiv@ 00435890     bpr:wam.obj
 0002:000098f0       ??_C@_0P@LFMFAJCO@is_interactive?$AA@ 004358f0     bpr:wam.obj
 0002:00009900       ??_C@_0GC@MEGGNILM@?$CIPlain?0Encrypted?$CJ?3?5user?5provided@ 00435900     bpr:wam.obj
 0002:00009964       ??_C@_0N@CEFKCIMG@term_encoder?$AA@ 00435964     bpr:wam.obj
 0002:00009978       ??_C@_0GD@PHPMAOGE@?$CIEncrypted?0Plain?$CJ?3?5user?5provided@ 00435978     bpr:wam.obj
 0002:000099dc       ??_C@_0N@OKPHHMKC@term_decoder?$AA@ 004359dc     bpr:wam.obj
 0002:000099ec       ??_C@_0CK@MLBPALIK@handles?5a?5Jinni?5service?5S?5with?5p@ 004359ec     bpr:wam.obj
 0002:00009a18       ??_C@_0BB@NOBPOFJG@answer_one_query?$AA@ 00435a18     bpr:wam.obj
 0002:00009a2c       ??_C@_0DM@HGIIOGEK@handles?5a?5Jinni?5service?5S?5with?5p@ 00435a2c     bpr:wam.obj
 0002:00009a68       ??_C@_0P@HEPPMBFA@handle_service?$AA@ 00435a68     bpr:wam.obj
 0002:00009a78       ??_C@_0MH@CPFPPIND@?$CIHost?0Port?0Answer?0Goal?0Password?0@ 00435a78     bpr:wam.obj
 0002:00009b40       ??_C@_0FA@GEJAAHFK@?$CIHost?0Port?0Goal?$CJ?3?5runs?5Goal?5on?5r@ 00435b40     bpr:wam.obj
 0002:00009b90       ??_C@_0DC@MJEJFCHA@runs?5Goal?5on?5remote?5server?5using@ 00435b90     bpr:wam.obj
 0002:00009bc4       ??_C@_0L@DDDAAILP@remote_run?$AA@ 00435bc4     bpr:wam.obj
 0002:00009bd0       ??_C@_0FI@NBCHOILF@?$CIPort?0Password?0Heap?0Stack?0Trail?0@ 00435bd0     bpr:wam.obj
 0002:00009c28       ??_C@_0EF@BEBHFDFL@?$CIPort?0Password?$CJ?3?5runs?5server?5on?5@ 00435c28     bpr:wam.obj
 0002:00009c70       ??_C@_0EE@HOMEODHP@runs?5foreground?5server?5on?5Port?5t@ 00435c70     bpr:wam.obj
 0002:00009cb8       ??_C@_0EF@NCJHMCAL@runs?5foreground?5server?5on?5localh@ 00435cb8     bpr:wam.obj
 0002:00009d00       ??_C@_0L@CBBLFKKO@run_server?$AA@ 00435d00     bpr:wam.obj
 0002:00009d0c       ??_C@_0CO@EODIOLI@guesses?5the?5user?5from?5environmen@ 00435d0c     bpr:wam.obj
 0002:00009d3c       ??_C@_0M@MHJNCOKE@detect_user?$AA@ 00435d3c     bpr:wam.obj
 0002:00009d48       ??_C@_0EG@HONAHDJM@the?5ip?5address?5of?5current?5host?0?5@ 00435d48     bpr:wam.obj
 0002:00009d90       ??_C@_0P@CFAGPMBC@detect_ip_addr?$AA@ 00435d90     bpr:wam.obj
 0002:00009da0       ??_C@_0DI@IEOCBICH@the?5name?5of?5current?5host?0?5if?5det@ 00435da0     bpr:wam.obj
 0002:00009dd8       ??_C@_0CA@KKAMLFNC@makes?5available?5a?5default?5value?$AA@ 00435dd8     bpr:wam.obj
 0002:00009df8       ??_C@_0N@CBGGANI@show_default?$AA@ 00435df8     bpr:wam.obj
 0002:00009e08       ??_C@_0CC@EIKGONFA@makes?5unavailable?5a?5default?5valu@ 00435e08     bpr:wam.obj
 0002:00009e2c       ??_C@_0N@MKAHODFP@hide_default?$AA@ 00435e2c     bpr:wam.obj
 0002:00009e3c       ??_C@_0CN@OAEIAKEF@show?5default?5values?5of?5some?5syst@ 00435e3c     bpr:wam.obj
 0002:00009e6c       ??_C@_0O@IMBIGGLD@show_defaults?$AA@ 00435e6c     bpr:wam.obj
 0002:00009e7c       ??_C@_0DJ@EMGHPKBJ@stops?5server?5with?5socket?5reuse?5?9@ 00435e7c     bpr:wam.obj
 0002:00009eb8       ??_C@_0N@JHGLGEPL@stop_service?$AA@ 00435eb8     bpr:wam.obj
 0002:00009ec8       ??_C@_0IN@DGCPHNNK@ask?$CIClientSocket?0X?0G?0W?0R?$CJ?3?5calls@ 00435ec8     bpr:wam.obj
 0002:00009f58       ??_C@_03INJPNEOA@ask?$AA@  00435f58     bpr:wam.obj
 0002:00009f60       ??_C@_0GG@GDAEDHPN@?$CIAnswer?0Goal?0Result?$CJ?3?5calls?5serv@ 00435f60     bpr:wam.obj
 0002:00009fc8       ??_C@_0DH@GEJOCCLF@?$CIQuery?$CJ?3?5calls?5server?5on?5current@ 00435fc8     bpr:wam.obj
 0002:0000a000       ??_C@_03FKMBIMA@rpc?$AA@   00436000     bpr:wam.obj
 0002:0000a004       ??_C@_0CK@BFHPIHKI@stops?5rpc?5client?5on?5local?5reusab@ 00436004     bpr:wam.obj
 0002:0000a030       ??_C@_08OPEKNKNP@stop_rpc?$AA@ 00436030     bpr:wam.obj
 0002:0000a040       ??_C@_0EB@JFIDNHJE@?$CIHost?0Port?0Password?$CJ?3?5starts?5rpc@ 00436040     bpr:wam.obj
 0002:0000a084       ??_C@_0DM@LDELCPEN@starts?5rpc?5client?5on?5default?5loc@ 00436084     bpr:wam.obj
 0002:0000a0c0       ??_C@_09DKBFHFAC@start_rpc?$AA@ 004360c0     bpr:wam.obj
 0002:0000a0d0       ??_C@_0GK@FADDOOLD@ServiceSocket?0Password?3starts?5se@ 004360d0     bpr:wam.obj
 0002:0000a13c       ??_C@_0N@MDJMGNPH@service_loop?$AA@ 0043613c     bpr:wam.obj
 0002:0000a14c       ??_C@_0DP@DNBADHOF@runs?5Jinni?5compatible?5server?5wit@ 0043614c     bpr:wam.obj
 0002:0000a18c       ??_C@_0DO@POGFGBHB@Port?0Password?3?5runs?5Jinni?5compat@ 0043618c     bpr:wam.obj
 0002:0000a1d0       ??_C@_0EF@COOOBOND@Port?0Password?0Timout?3?5runs?5Jinni@ 004361d0     bpr:wam.obj
 0002:0000a218       ??_C@_0L@DGHNHGLN@rpc_server?$AA@ 00436218     bpr:wam.obj
 0002:0000a228       ??_C@_0EJ@HKDJCCLM@?$CIGoal?$CJ?3?5user?9defined?5rpc?5handler@ 00436228     bpr:wam.obj
 0002:0000a274       ??_C@_0M@HHCEFMCA@rpc_handler?$AA@ 00436274     bpr:wam.obj
 0002:0000a280       ??_C@_0EE@HOJBHIBJ@tests?5rpc?5client?5with?5socket?5reu@ 00436280     bpr:wam.obj
 0002:0000a2c4       ??_C@_0CO@HJMHEPAI@tests?5rpc?5server?5and?5client?5with@ 004362c4     bpr:wam.obj
 0002:0000a2f4       ??_C@_08DBDLFGAN@rpc_test?$AA@ 004362f4     bpr:wam.obj
 0002:0000a300       ??_C@_0DM@DOEABIPH@writes?5a?5string?5to?5a?5socket?5and?5@ 00436300     bpr:wam.obj
 0002:0000a33c       ??_C@_0DD@EDPGFKEK@writes?5a?5string?5to?5a?5socket?5pref@ 0043633c     bpr:wam.obj
 0002:0000a370       ??_C@_0HG@GHGCEPNL@reads?5from?5a?5socket?5until?5an?5end@ 00436370     bpr:wam.obj
 0002:0000a3e8       ??_C@_0FG@BLKALONA@reads?5from?5a?5socket?5when?5size?5of@ 004363e8     bpr:wam.obj
 0002:0000a440       ??_C@_0CJ@DIKAOEGN@M?3P?5calls?5predicate?5P?5hidden?5in?5@ 00436440     bpr:wam.obj
 0002:0000a46c       ??_C@_0BI@FONKGKCA@exits?5thread?5or?5process?$AA@ 0043646c     bpr:wam.obj
 0002:0000a484       ??_C@_04MKNBDEPB@exit?$AA@ 00436484     bpr:wam.obj
 0002:0000a48c       ??_C@_0N@IMBGFCAB@same?5as?5halt?$AA@ 0043648c     bpr:wam.obj
 0002:0000a49c       ??_C@_04KNNLNNGO@quit?$AA@ 0043649c     bpr:wam.obj
 0002:0000a4a4       ??_C@_0BA@BFELFJMK@stops?5BinProlog?$AA@ 004364a4     bpr:wam.obj
 0002:0000a4b4       ??_C@_0BG@FOKCEAGF@DCG?5connect?5predicate?$AA@ 004364b4     bpr:wam.obj
 0002:0000a4cc       ??_C@_01GFHCPBMG@C?$AA@    004364cc     bpr:wam.obj
 0002:0000a4d0       ??_C@_0M@ONONEDCI@set_c_trace?$AA@ 004364d0     bpr:wam.obj
 0002:0000a4e0       ??_C@_0JG@BJDKCJPL@?$CIMin?0Max?$CJ?3?5related?5to?5C?5generato@ 004364e0     bpr:wam.obj
 0002:0000a578       ??_C@_0HJ@INNDCDDD@related?5to?5C?5generator?3?5sets?5len@ 00436578     bpr:wam.obj
 0002:0000a5f4       ??_C@_0BA@NFOPMKIJ@set_c_threshold?$AA@ 004365f4     bpr:wam.obj
 0002:0000a604       ??_C@_0M@BIKPGFCK@c_threshold?$AA@ 00436604     bpr:wam.obj
 0002:0000a610       ??_C@_09HOKEHFHL@stat_dict?$AA@ 00436610     bpr:wam.obj
 0002:0000a61c       ??_C@_05GGAACHOG@saved?$AA@ 0043661c     bpr:wam.obj
 0002:0000a624       ??_C@_08MALHIJEA@member_i?$AA@ 00436624     bpr:wam.obj
 0002:0000a630       ??_C@_0CB@BKPOBPAG@retrieves?5N?9th?5element?5of?5a?5list@ 00436630     bpr:wam.obj
 0002:0000a654       ??_C@_0L@BDAFDJBO@nth_member?$AA@ 00436654     bpr:wam.obj
 0002:0000a660       ??_C@_0FJ@JJBAJJCC@?$CIAxiom?0?5?$DPInputChars?$CJ?3?5DCG?5evalua@ 00436660     bpr:wam.obj
 0002:0000a6c0       ??_C@_0EG@FEGALMAM@?$CIAxiom?0?5?$DPInputChars?0?5?$DPOutputChar@ 004366c0     bpr:wam.obj
 0002:0000a708       ??_C@_06CEOJBHLP@phrase?$AA@ 00436708     bpr:wam.obj
 0002:0000a710       ??_C@_0IE@CHMILJP@clone_term?$CIVs?0T?0CT?$CJ?5does?5copy_te@ 00436710     bpr:wam.obj
 0002:0000a794       ??_C@_0L@HDPEJHKC@clone_term?$AA@ 00436794     bpr:wam.obj
 0002:0000a7a0       ??_C@_0CN@LPDHECCL@returns?5a?5copy?5of?5arg?51?5with?5fre@ 004367a0     bpr:wam.obj
 0002:0000a7d0       ??_C@_0CC@JNFBCCJH@assumes?5default?5password?5for?5use@ 004367d0     bpr:wam.obj
 0002:0000a7f4       ??_C@_08NLHBPEGP@password?$AA@ 004367f4     bpr:wam.obj
 0002:0000a800       ??_C@_0CO@KGLOKHM@checks?5that?5password?5matches?5def@ 00436800     bpr:wam.obj
 0002:0000a830       ??_C@_0P@HBJGEGKP@check_password?$AA@ 00436830     bpr:wam.obj
 0002:0000a840       ??_C@_0BP@MCHDEBIL@gets?5default?5password?5for?5user?$AA@ 00436840     bpr:wam.obj
 0002:0000a860       ??_C@_0N@PHJJJNOJ@get_password?$AA@ 00436860     bpr:wam.obj
 0002:0000a870       ??_C@_0BP@BHJCGPNP@sets?5default?5password?5for?5user?$AA@ 00436870     bpr:wam.obj
 0002:0000a890       ??_C@_0N@IDCHFBKF@set_password?$AA@ 00436890     bpr:wam.obj
 0002:0000a8a0       ??_C@_0CC@PEHMJOJG@returns?5default?5password?5for?5use@ 004368a0     bpr:wam.obj
 0002:0000a8c4       ??_C@_0BB@EKBDNMMI@default_password?$AA@ 004368c4     bpr:wam.obj
 0002:0000a8d8       ??_C@_0CE@KOPLDOMH@assumes?5default?5?$CInick?$CJname?5for?5u@ 004368d8     bpr:wam.obj
 0002:0000a8fc       ??_C@_05DAOAAINN@login?$AA@ 004368fc     bpr:wam.obj
 0002:0000a904       ??_C@_0CE@NBHBBAJM@asserts?5default?5?$CInick?$CJname?5for?5u@ 00436904     bpr:wam.obj
 0002:0000a928       ??_C@_09JEKFDNEM@set_login?$AA@ 00436928     bpr:wam.obj
 0002:0000a934       ??_C@_0CE@HFDHJJAM@returns?5default?5?$CInick?$CJname?5for?5u@ 00436934     bpr:wam.obj
 0002:0000a958       ??_C@_0O@NHLBADIO@default_login?$AA@ 00436958     bpr:wam.obj
 0002:0000a968       ??_C@_0BI@MKGAOEGC@assumes?5default?5timeout?$AA@ 00436968     bpr:wam.obj
 0002:0000a980       ??_C@_07DDHNKDGP@timeout?$AA@ 00436980     bpr:wam.obj
 0002:0000a988       ??_C@_0BI@NJHNJGNI@asserts?5default?5timeout?$AA@ 00436988     bpr:wam.obj
 0002:0000a9a0       ??_C@_0M@NJEHIFC@set_timeout?$AA@ 004369a0     bpr:wam.obj
 0002:0000a9ac       ??_C@_0BI@FCNKLICJ@returns?5default?5timeout?$AA@ 004369ac     bpr:wam.obj
 0002:0000a9c4       ??_C@_0BA@DFDJJDCB@default_timeout?$AA@ 004369c4     bpr:wam.obj
 0002:0000a9d4       ??_C@_0DA@KPMPJBDC@asserts?5default?5port?5for?5to?5work@ 004369d4     bpr:wam.obj
 0002:0000aa04       ??_C@_0O@BGMICAIO@set_this_port?$AA@ 00436a04     bpr:wam.obj
 0002:0000aa14       ??_C@_0DA@OIPBFOCN@assumes?5default?5port?5for?5to?5work@ 00436a14     bpr:wam.obj
 0002:0000aa44       ??_C@_0CM@CLMFKBKH@returns?5default?5port?5to?5work?5as?5@ 00436a44     bpr:wam.obj
 0002:0000aa70       ??_C@_0BC@CFACAJOG@default_this_port?$AA@ 00436a70     bpr:wam.obj
 0002:0000aa84       ??_C@_0CG@KMDPLKED@assumes?5default?5port?5for?5Linda?5s@ 00436a84     bpr:wam.obj
 0002:0000aaac       ??_C@_04LPGMAPLE@port?$AA@ 00436aac     bpr:wam.obj
 0002:0000aab4       ??_C@_0DF@GFMIJOLL@asserts?5port?5number?5of?5the?5serve@ 00436ab4     bpr:wam.obj
 0002:0000aaec       ??_C@_08CLJNPDNC@set_port?$AA@ 00436aec     bpr:wam.obj
 0002:0000aaf8       ??_C@_0CN@KEAIENNC@returns?5default?5port?5for?5remote?5@ 00436af8     bpr:wam.obj
 0002:0000ab28       ??_C@_0N@FGEKFLLK@default_port?$AA@ 00436b28     bpr:wam.obj
 0002:0000ab38       ??_C@_0DA@PBALIPEP@assumes?5default?5IP?5adress?5or?5nam@ 00436b38     bpr:wam.obj
 0002:0000ab68       ??_C@_09DMHDOLPB@this_host?$AA@ 00436b68     bpr:wam.obj
 0002:0000ab74       ??_C@_0CK@NPICPBMI@asserts?5IP?5adress?5or?5name?5of?5thi@ 00436b74     bpr:wam.obj
 0002:0000aba0       ??_C@_0O@EHJKJGPK@set_this_host?$AA@ 00436ba0     bpr:wam.obj
 0002:0000abb0       ??_C@_0DE@BNCHEFNH@returns?5default?5IP?5address?5or?5ho@ 00436bb0     bpr:wam.obj
 0002:0000abe4       ??_C@_0BC@HEFALPJC@default_this_host?$AA@ 00436be4     bpr:wam.obj
 0002:0000abf8       ??_C@_0CG@NJOMONEE@assumes?5default?5host?5for?5Linda?5s@ 00436bf8     bpr:wam.obj
 0002:0000ac20       ??_C@_0DM@KGEPBLO@asserts?5IP?5adress?5or?5name?5of?5ser@ 00436c20     bpr:wam.obj
 0002:0000ac5c       ??_C@_08HKMPEFKG@set_host?$AA@ 00436c5c     bpr:wam.obj
 0002:0000ac68       ??_C@_0CN@OCJABODE@returns?5default?5host?5for?5remote?5@ 00436c68     bpr:wam.obj
 0002:0000ac98       ??_C@_0N@HBIONMO@default_host?$AA@ 00436c98     bpr:wam.obj
 0002:0000aca8       ??_C@_0DE@MJAEFKNJ@asserts?5arg?51?5as?5default?5state?5f@ 00436ca8     bpr:wam.obj
 0002:0000acdc       ??_C@_0M@FJLFKAK@set_default?$AA@ 00436cdc     bpr:wam.obj
 0002:0000ace8       ??_C@_04OODOLJMA@host?$AA@ 00436ce8     bpr:wam.obj
 0002:0000acf0       ??_C@_0CK@PLJMMKLN@default?5that?5can?5be?5overriden?5if@ 00436cf0     bpr:wam.obj
 0002:0000ad1c       ??_C@_07DLHCIBDH@default?$AA@ 00436d1c     bpr:wam.obj
 0002:0000ad24       ??_C@_0CP@KEBDKGEO@checks?5if?5predicate?5head?5is?5defi@ 00436d24     bpr:wam.obj
 0002:0000ad54       ??_C@_08DPEDNDHG@callable?$AA@ 00436d54     bpr:wam.obj
 0002:0000ad60       ??_C@_0DH@PBAPMPME@calls?5if?5predicate?5head?5is?5defin@ 00436d60     bpr:wam.obj
 0002:0000ad98       ??_C@_0L@HLJDPGLP@call_ifdef?$AA@ 00436d98     bpr:wam.obj
 0002:0000ada4       ??_C@_05LAPONLG@false?$AA@ 00436da4     bpr:wam.obj
 0002:0000adac       ??_C@_09EOFNODJG@otherwise?$AA@ 00436dac     bpr:wam.obj
 0002:0000adb8       ??_C@_0CJ@PBEHAIFE@do?5not?5trace?5predicates?5when?5int@ 00436db8     bpr:wam.obj
 0002:0000ade4       ??_C@_07OAGCCIJG@notrace?$AA@ 00436de4     bpr:wam.obj
 0002:0000adec       ??_C@_0CG@CKNACPBD@trace?5all?5predicates?5when?5interp@ 00436dec     bpr:wam.obj
 0002:0000ae14       ??_C@_0CB@MPPAMNLC@do?5not?5spy?5on?5Pred?1Arity?5anymore@ 00436e14     bpr:wam.obj
 0002:0000ae38       ??_C@_05LECHHFHH@nospy?$AA@ 00436e38     bpr:wam.obj
 0002:0000ae40       ??_C@_0BK@LFEOJKMI@checks?5what?5we?5are?5spying?$AA@ 00436e40     bpr:wam.obj
 0002:0000ae5c       ??_C@_06GOCIMGIL@spying?$AA@ 00436e5c     bpr:wam.obj
 0002:0000ae64       ??_C@_0DJ@KJEAFIPN@set?5spy?5point?5on?5goal?0?5triggerin@ 00436e64     bpr:wam.obj
 0002:0000aea0       ??_C@_03NDNIFHO@spy?$AA@   00436ea0     bpr:wam.obj
 0002:0000aea4       ??_C@_08DAKKGDLP@spy_goal?$AA@ 00436ea4     bpr:wam.obj
 0002:0000aeb0       ??_C@_0CH@BCOKDONG@resets?5gensym?5for?5names?5based?5on@ 00436eb0     bpr:wam.obj
 0002:0000aed8       ??_C@_0M@PNBLOCNH@init_gensym?$AA@ 00436ed8     bpr:wam.obj
 0002:0000aee4       ??_C@_0CG@ONNHMBAC@generates?5a?5new?5number?5based?5on?5@ 00436ee4     bpr:wam.obj
 0002:0000af0c       ??_C@_09FPJGFFBH@gensym_no?$AA@ 00436f0c     bpr:wam.obj
 0002:0000af18       ??_C@_0CE@FDIPMKBI@generates?5a?5new?5name?5based?5on?5ar@ 00436f18     bpr:wam.obj
 0002:0000af3c       ??_C@_06KAEAEMGI@gensym?$AA@ 00436f3c     bpr:wam.obj
 0002:0000af44       ??_C@_0CK@NCHKMEL@checks?5predicate?5head?5if?5globall@ 00436f44     bpr:wam.obj
 0002:0000af70       ??_C@_09FIPMEOEN@is_public?$AA@ 00436f70     bpr:wam.obj
 0002:0000af7c       ??_C@_0CP@EKHFLDGH@declares?5globally?5visible?5predic@ 00436f7c     bpr:wam.obj
 0002:0000afac       ??_C@_06EOMAMIIF@public?$AA@ 00436fac     bpr:wam.obj
 0002:0000afb4       ??_C@_0M@MNMMOGFH@module_name?$AA@ 00436fb4     bpr:wam.obj
 0002:0000afc0       ??_C@_0BB@HPPPIIPB@module_predicate?$AA@ 00436fc0     bpr:wam.obj
 0002:0000afd4       ??_C@_0BM@JDPGCFI@gets?5name?5of?5current?5module?$AA@ 00436fd4     bpr:wam.obj
 0002:0000aff0       ??_C@_0P@LCEJBJCL@current_module?$AA@ 00436ff0     bpr:wam.obj
 0002:0000b000       ??_C@_0CD@NINGDBKF@returns?5a?5list?5of?5existing?5modul@ 00437000     bpr:wam.obj
 0002:0000b024       ??_C@_07DFGEOAEG@modules?$AA@ 00437024     bpr:wam.obj
 0002:0000b02c       ??_C@_0CD@IBGLKEPF@recognizes?1generates?5a?5module?5na@ 0043702c     bpr:wam.obj
 0002:0000b050       ??_C@_09OHIBKGG@is_module?$AA@ 00437050     bpr:wam.obj
 0002:0000b05c       ??_C@_0DI@PNNMJPC@starts?5a?5module?5specifying?5a?5lis@ 0043705c     bpr:wam.obj
 0002:0000b094       ??_C@_0CM@MIBGHPLB@ends?5module?5if?5current?0?5signals?5@ 00437094     bpr:wam.obj
 0002:0000b0c0       ??_C@_0BE@CIDCFPAJ@ends?5current?5module?$AA@ 004370c0     bpr:wam.obj
 0002:0000b0d4       ??_C@_0L@INILMNEH@end_module?$AA@ 004370d4     bpr:wam.obj
 0002:0000b0e0       ??_C@_0N@BILIGGAC@begin_module?$AA@ 004370e0     bpr:wam.obj
 0002:0000b0f0       ??_C@_0BA@GFNIGNCJ@starts?5a?5module?$AA@ 004370f0     bpr:wam.obj
 0002:0000b100       ??_C@_06BIEEJMKO@module?$AA@ 00437100     bpr:wam.obj
 0002:0000b108       ??_C@_0M@OFFMPDJI@module_call?$AA@ 00437108     bpr:wam.obj
 0002:0000b118       ??_C@_0ED@KPNMNLBE@accepts?5mode?5declarations?5althou@ 00437118     bpr:wam.obj
 0002:0000b15c       ??_C@_04GMGOKAFF@mode?$AA@ 0043715c     bpr:wam.obj
 0002:0000b164       ??_C@_0CL@IDNKBAMI@recognizes?5and?5integer?5as?5an?5eng@ 00437164     bpr:wam.obj
 0002:0000b190       ??_C@_09KICAMBDN@is_engine?$AA@ 00437190     bpr:wam.obj
 0002:0000b19c       ??_C@_06LGOMGPCB@lwrite?$AA@ 0043719c     bpr:wam.obj
 0002:0000b1a4       ??_C@_08FFCKGOEI@patch_it?$AA@ 004371a4     bpr:wam.obj
 0002:0000b1b0       ??_C@_0L@HBEGLDMD@show_code0?$AA@ 004371b0     bpr:wam.obj
 0002:0000b1bc       ??_C@_0M@KDBJAEFJ@char_in_cmd?$AA@ 004371bc     bpr:wam.obj
 0002:0000b1c8       ??_C@_07FHMKGOH@tr_body?$AA@ 004371c8     bpr:wam.obj
 0002:0000b1d0       ??_C@_0BB@EIHBOEPG@expand_call_body?$AA@ 004371d0     bpr:wam.obj
 0002:0000b1e4       ??_C@_09GKKDPGGB@call_body?$AA@ 004371e4     bpr:wam.obj
 0002:0000b1f0       ??_C@_0P@GONFLCL@gc_read_clause?$AA@ 004371f0     bpr:wam.obj
 0002:0000b200       ??_C@_07MABLNOEE@gc_read?$AA@ 00437200     bpr:wam.obj
 0002:0000b208       ??_C@_08DLKBJGC@add_true?$AA@ 00437208     bpr:wam.obj
 0002:0000b214       ??_C@_0DD@MOCBIKC@regenerates?5file?5wam?4bp?5in?5BinPr@ 00437214     bpr:wam.obj
 0002:0000b248       ??_C@_04LBLCPLHF@boot?$AA@ 00437248     bpr:wam.obj
 0002:0000b250       ??_C@_05EIDCNADP@cboot?$AA@ 00437250     bpr:wam.obj
 0002:0000b258       ??_C@_05GALOIJDC@tmake?$AA@ 00437258     bpr:wam.obj
 0002:0000b260       ??_C@_05FGOBOCBM@tboot?$AA@ 00437260     bpr:wam.obj
 0002:0000b268       ??_C@_06CABHECIK@crmake?$AA@ 00437268     bpr:wam.obj
 0002:0000b270       ??_C@_05LGOHGKCP@rmake?$AA@ 00437270     bpr:wam.obj
 0002:0000b278       ??_C@_06NLHCNNND@kcmake?$AA@ 00437278     bpr:wam.obj
 0002:0000b280       ??_C@_05JCDODJHM@kmake?$AA@ 00437280     bpr:wam.obj
 0002:0000b288       ??_C@_0EP@LJNBDOGO@?$CIProject?0Module?$CJ?3?5compiles?5to?5C?5@ 00437288     bpr:wam.obj
 0002:0000b2d8       ??_C@_0EO@EGFANIFH@compiles?5a?5Project?5to?5compact?5C?5@ 004372d8     bpr:wam.obj
 0002:0000b328       ??_C@_0GC@ICNOKNIA@compiles?5BinProlog?8s?5Prolog?5comp@ 00437328     bpr:wam.obj
 0002:0000b38c       ??_C@_05HOGNLLBB@cmake?$AA@ 0043738c     bpr:wam.obj
 0002:0000b398       ??_C@_0JC@GGALIHGG@?$CIProject?0Module?$CJ?3?5compiles?5to?5fa@ 00437398     bpr:wam.obj
 0002:0000b430       ??_C@_0EJ@FDCCMKPE@compiles?5Project?5to?5fast?5C?5code?5@ 00437430     bpr:wam.obj
 0002:0000b47c       ??_C@_05DAHDBIIB@qmake?$AA@ 0043747c     bpr:wam.obj
 0002:0000b484       ??_C@_05CDHIFDBP@make0?$AA@ 00437484     bpr:wam.obj
 0002:0000b48c       ??_C@_04IHONJAFL@make?$AA@ 0043748c     bpr:wam.obj
 0002:0000b494       ??_C@_06PPGNOHND@remake?$AA@ 00437494     bpr:wam.obj
 0002:0000b49c       ??_C@_0CH@HHOBGJJK@regenerates?5BinProlog?5from?5its?5s@ 0043749c     bpr:wam.obj
 0002:0000b4c4       ??_C@_06MJDCIMPN@reboot?$AA@ 004374c4     bpr:wam.obj
 0002:0000b4cc       ??_C@_0BG@JLKHCFHO@lists?5files?5under?5DOS?$AA@ 004374cc     bpr:wam.obj
 0002:0000b4e4       ??_C@_03DAPAKLGM@dir?$AA@  004374e4     bpr:wam.obj
 0002:0000b4e8       ??_C@_0BG@ILFALMIJ@list?5files?5under?5Unix?$AA@ 004374e8     bpr:wam.obj
 0002:0000b500       ??_C@_02EFGBDOJM@ls?$AA@   00437500     bpr:wam.obj
 0002:0000b504       ??_C@_0BN@KCIIEMFG@reconsults?5using?5fast?5reader?$AA@ 00437504     bpr:wam.obj
 0002:0000b524       ??_C@_0CA@FGLJNMI@reconsults?1recompiles?5last?5file?$AA@ 00437524     bpr:wam.obj
 0002:0000b544       ??_C@_02KIEKCEPM@co?$AA@   00437544     bpr:wam.obj
 0002:0000b548       ??_C@_0DH@FJDGLBLD@spawns?$CIGoal?0Includes?0TempFile?$CJ?3?5@ 00437548     bpr:wam.obj
 0002:0000b580       ??_C@_0DH@DINMGLCE@spawns?5Goal?5in?5a?5new?5bp?5window?5o@ 00437580     bpr:wam.obj
 0002:0000b5b8       ??_C@_05BDADGJGG@spawn?$AA@ 004375b8     bpr:wam.obj
 0002:0000b5c0       ??_C@_0CG@NCLPAFMD@calls?5vi?5editor?5on?5last?5compiled@ 004375c0     bpr:wam.obj
 0002:0000b5e8       ??_C@_02OEPNOCOB@vi?$AA@   004375e8     bpr:wam.obj
 0002:0000b5ec       ??_C@_0CL@JOLGAKBK@calls?5notepad?5editor?5on?5last?5com@ 004375ec     bpr:wam.obj
 0002:0000b618       ??_C@_07MAJILGNB@notepad?$AA@ 00437618     bpr:wam.obj
 0002:0000b620       ??_C@_0CI@JMMFOFFD@calls?5pico?5editor?5on?5last?5compil@ 00437620     bpr:wam.obj
 0002:0000b648       ??_C@_04CONFFCLF@pico?$AA@ 00437648     bpr:wam.obj
 0002:0000b650       ??_C@_0CJ@PDFCBCAB@calls?5emacs?5editor?5on?5last?5compi@ 00437650     bpr:wam.obj
 0002:0000b67c       ??_C@_05LKLPLMGD@emacs?$AA@ 0043767c     bpr:wam.obj
 0002:0000b684       ??_C@_0CL@DGDJMGHO@calls?5texedit?5editor?5on?5last?5com@ 00437684     bpr:wam.obj
 0002:0000b6b0       ??_C@_08IKEFNCPI@textedit?$AA@ 004376b0     bpr:wam.obj
 0002:0000b6c0       ??_C@_0FC@DKCIFHPF@edits?5last?5compiled?1consulted?5fi@ 004376c0     bpr:wam.obj
 0002:0000b714       ??_C@_02EPDDIBIF@ed?$AA@   00437714     bpr:wam.obj
 0002:0000b718       ??_C@_0CM@BBHMPPPC@calls?5DOS?5editor?5edit?5on?5last?5co@ 00437718     bpr:wam.obj
 0002:0000b744       ??_C@_07LMNIGOBC@my_edit?$AA@ 00437744     bpr:wam.obj
 0002:0000b74c       ??_C@_0CG@EKIKJGBC@edit?$CIE?0F?$CJ?5edits?5with?5editor?5E?0?5f@ 0043774c     bpr:wam.obj
 0002:0000b774       ??_C@_04NABONMNG@edit?$AA@ 00437774     bpr:wam.obj
 0002:0000b77c       ??_C@_0CJ@KCCFLMFD@recognizes?5a?5predicate?5head?5as?5a@ 0043777c     bpr:wam.obj
 0002:0000b7a8       ??_C@_0L@IPGELEL@is_builtin?$AA@ 004377a8     bpr:wam.obj
 0002:0000b7b8       ??_C@_0EI@DOMEPFCC@op?$CIPri?0A?0Op?$CJ?5defines?5an?5operator@ 004377b8     bpr:wam.obj
 0002:0000b800       ??_C@_02GMAKNDAG@op?$AA@   00437800     bpr:wam.obj
 0002:0000b804       ??_C@_0DE@IIALHDKO@generates?1check?5current?5op?13?5ope@ 00437804     bpr:wam.obj
 0002:0000b838       ??_C@_0L@GFPGCMDA@current_op?$AA@ 00437838     bpr:wam.obj
 0002:0000b844       ??_C@_0DD@KFBJMMDG@unifies?5with?52?5key?5indexed?5globa@ 00437844     bpr:wam.obj
 0002:0000b878       ??_C@_06BNCFCGK@bp_val?$AA@ 00437878     bpr:wam.obj
 0002:0000b880       ??_C@_0CB@NCHMOLGI@writes?5a?5term?5to?5a?5string?5?$CIatom?$CJ@ 00437880     bpr:wam.obj
 0002:0000b8a4       ??_C@_0DG@DGAADBNA@writes?5a?5term?5with?5a?5liste?5of?5va@ 004378a4     bpr:wam.obj
 0002:0000b8dc       ??_C@_06CHHKIDAG@swrite?$AA@ 004378dc     bpr:wam.obj
 0002:0000b8e4       ??_C@_0CC@BHEGLLOH@reads?5a?5term?5from?5a?5string?5?$CIatom@ 004378e4     bpr:wam.obj
 0002:0000b908       ??_C@_06KEKGMAFN@f?$CIX?0Y?$CJ?$AA@ 00437908     bpr:wam.obj
 0002:0000b910       ??_C@_0DF@PGNHEBGO@reads?5a?5term?5and?5a?5list?5of?5vars?5@ 00437910     bpr:wam.obj
 0002:0000b948       ??_C@_05EOFJKBJ@sread?$AA@ 00437948     bpr:wam.obj
 0002:0000b950       ??_C@_05GLCAEPFP@flush?$AA@ 00437950     bpr:wam.obj
 0002:0000b958       ??_C@_0CL@KBBEEONA@opens?5a?5file?5if?5it?5exists?0?5other@ 00437958     bpr:wam.obj
 0002:0000b984       ??_C@_0M@PIBKBOMF@see_or_fail?$AA@ 00437984     bpr:wam.obj
 0002:0000b990       ??_C@_0BE@HPKGKEGN@true?5if?5file?5exists?$AA@ 00437990     bpr:wam.obj
 0002:0000b9a4       ??_C@_0M@JFLPDJKI@exists_file?$AA@ 004379a4     bpr:wam.obj
 0002:0000b9b0       ??_C@_0CB@KFEKMNKM@finds?5a?5file?5name?5on?5search?5path@ 004379b0     bpr:wam.obj
 0002:0000b9d4       ??_C@_09HOBHCDNO@find_file?$AA@ 004379d4     bpr:wam.obj
 0002:0000b9e0       ??_C@_0P@EHHFEDCI@make_file_name?$AA@ 004379e0     bpr:wam.obj
 0002:0000b9f0       ??_C@_0N@FONLOANA@file_library?$AA@ 004379f0     bpr:wam.obj
 0002:0000ba00       ??_C@_0CO@BPAEJIGO@defines?5default?5file?5extensions?5@ 00437a00     bpr:wam.obj
 0002:0000ba30       ??_C@_0BE@HBLFDDCF@file_extension_list?$AA@ 00437a30     bpr:wam.obj
 0002:0000ba48       ??_C@_0GB@LOIJKHJL@defines?5search?5path?5relative?5to?5@ 00437a48     bpr:wam.obj
 0002:0000baac       ??_C@_0BB@CKOCCBAL@file_search_path?$AA@ 00437aac     bpr:wam.obj
 0002:0000bac0       ??_C@_0CK@HMNKFJGF@retrieves?5output?5file?5position?5?$CI@ 00437ac0     bpr:wam.obj
 0002:0000baec       ??_C@_0L@EGLEKJEC@telling_at?$AA@ 00437aec     bpr:wam.obj
 0002:0000baf8       ??_C@_0DH@NFOANAKL@moves?5output?5file?5pointer?5to?5a?5g@ 00437af8     bpr:wam.obj
 0002:0000bb30       ??_C@_07NJJFILMC@tell_at?$AA@ 00437b30     bpr:wam.obj
 0002:0000bb38       ??_C@_0DD@JNKPPAJI@retrieves?5position?5in?5current?5fi@ 00437b38     bpr:wam.obj
 0002:0000bb6c       ??_C@_09BJBOANHG@seeing_at?$AA@ 00437b6c     bpr:wam.obj
 0002:0000bb78       ??_C@_0DC@PACAMKBK@seeks?5a?5seekable?5file?5at?5a?5give?5@ 00437b78     bpr:wam.obj
 0002:0000bbac       ??_C@_06CHNAIOPC@see_at?$AA@ 00437bac     bpr:wam.obj
 0002:0000bbb4       ??_C@_0CN@NOPKKMBI@focuses?5output?5on?5file?5opened?5in@ 00437bb4     bpr:wam.obj
 0002:0000bbe4       ??_C@_0M@DHHONBGB@tell_at_end?$AA@ 00437be4     bpr:wam.obj
 0002:0000bbf0       ??_C@_0BN@DEPAHFB@closes?5file?5opened?5by?5tell?11?$AA@ 00437bf0     bpr:wam.obj
 0002:0000bc10       ??_C@_04BGJGDFFP@told?$AA@ 00437c10     bpr:wam.obj
 0002:0000bc18       ??_C@_0CI@LMINCNBL@gets?5file?5name?5opened?5and?5set?5by@ 00437c18     bpr:wam.obj
 0002:0000bc40       ??_C@_07GGGGCKBA@telling?$AA@ 00437c40     bpr:wam.obj
 0002:0000bc48       ??_C@_0BJ@FDEAGOMD@focuses?5output?5on?5a?5file?$AA@ 00437c48     bpr:wam.obj
 0002:0000bc64       ??_C@_04LBPCFPDD@tell?$AA@ 00437c64     bpr:wam.obj
 0002:0000bc6c       ??_C@_0BL@ODPALCNM@close?5file?5opened?5by?5see?11?$AA@ 00437c6c     bpr:wam.obj
 0002:0000bc88       ??_C@_04DODFNKCO@seen?$AA@ 00437c88     bpr:wam.obj
 0002:0000bc90       ??_C@_0CH@HMOAHCPP@gets?5file?5name?5opened?5and?5set?5by@ 00437c90     bpr:wam.obj
 0002:0000bcb8       ??_C@_06JICDCPCA@seeing?$AA@ 00437cb8     bpr:wam.obj
 0002:0000bcc0       ??_C@_0BI@GKBPBDBJ@focuses?5input?5on?5a?5file?$AA@ 00437cc0     bpr:wam.obj
 0002:0000bcd8       ??_C@_03PBKHLJLI@see?$AA@  00437cd8     bpr:wam.obj
 0002:0000bcdc       ??_C@_0BL@CEMGBMMF@gets?5current?5output?5stream?$AA@ 00437cdc     bpr:wam.obj
 0002:0000bcf8       ??_C@_0P@JAILPFKA@current_output?$AA@ 00437cf8     bpr:wam.obj
 0002:0000bd08       ??_C@_0BK@OKDOAHEE@gets?5current?5input?5stream?$AA@ 00437d08     bpr:wam.obj
 0002:0000bd24       ??_C@_0O@DCFLKFFJ@current_input?$AA@ 00437d24     bpr:wam.obj
 0002:0000bd34       ??_C@_0BL@BLPDNMNF@sets?5current?5output?5stream?$AA@ 00437d34     bpr:wam.obj
 0002:0000bd50       ??_C@_0L@LNCKJGMC@set_output?$AA@ 00437d50     bpr:wam.obj
 0002:0000bd5c       ??_C@_0BK@GKPIMKOC@sets?5current?5input?5stream?$AA@ 00437d5c     bpr:wam.obj
 0002:0000bd78       ??_C@_09JBNHEKKG@set_input?$AA@ 00437d78     bpr:wam.obj
 0002:0000bd84       ??_C@_0CB@GGJDHPBM@closes?5a?5stream?5opened?5by?5open?13@ 00437d84     bpr:wam.obj
 0002:0000bda8       ??_C@_05LBOHBHFK@close?$AA@ 00437da8     bpr:wam.obj
 0002:0000bdb0       ??_C@_0EN@OKFGDPPG@returns?5a?5stream?5?$CIarg?53?$CJ?5on?5a?5fi@ 00437db0     bpr:wam.obj
 0002:0000be00       ??_C@_04PMOCAHAA@open?$AA@ 00437e00     bpr:wam.obj
 0002:0000be08       ??_C@_0DE@LDFLIFNL@closes?5the?5C?9stream?5specifiend?5a@ 00437e08     bpr:wam.obj
 0002:0000be3c       ??_C@_06HFCPBAFI@fclose?$AA@ 00437e3c     bpr:wam.obj
 0002:0000be48       ??_C@_0GE@NOBAFEFJ@Prolog?5equivalent?5of?5C?9function?3@ 00437e48     bpr:wam.obj
 0002:0000beac       ??_C@_05FFKPLNPJ@fopen?$AA@ 00437eac     bpr:wam.obj
 0002:0000beb8       ??_C@_0FM@FHIJKINB@?$CIDir?0Files?$CJ?3?5converts?5dir?5cmd?5ou@ 00437eb8     bpr:wam.obj
 0002:0000bf14       ??_C@_09JEEBLENE@dir2files?$AA@ 00437f14     bpr:wam.obj
 0002:0000bf20       ??_C@_0EG@CLIKJJMC@?$CIDir?0Dirs?$CJ?3?5converts?5dir?5cmd?5out@ 00437f20     bpr:wam.obj
 0002:0000bf68       ??_C@_08JMGDBIMC@dir2dirs?$AA@ 00437f68     bpr:wam.obj
 0002:0000bf78       ??_C@_0GI@IJBJAEBE@?$CIDirListerCmd?0DirName?0Files?$CJ?3?5co@ 00437f78     bpr:wam.obj
 0002:0000bfe0       ??_C@_08OCJAKPPD@dir2list?$AA@ 00437fe0     bpr:wam.obj
 0002:0000bfec       ??_C@_0DO@FKDMOGFC@?$CIDir?0Files?$CJ?3?5converts?5ls?5cmd?5out@ 00437fec     bpr:wam.obj
 0002:0000c02c       ??_C@_07IOKDLBEM@ls2list?$AA@ 0043802c     bpr:wam.obj
 0002:0000c034       ??_C@_0DH@IPHEAIP@collects?5output?5from?5a?5command?5t@ 00438034     bpr:wam.obj
 0002:0000c06c       ??_C@_08OEABCIAH@pcollect?$AA@ 0043806c     bpr:wam.obj
 0002:0000c078       ??_C@_0BP@BLJAFLHP@closes?5a?5pipe?5generated?5stream?$AA@ 00438078     bpr:wam.obj
 0002:0000c098       ??_C@_06HBCBLJKM@pclose?$AA@ 00438098     bpr:wam.obj
 0002:0000c0a0       ??_C@_0FF@IPLEGMEE@popen?$CICmd?0read?1write?0Stream?$CJ?5ope@ 004380a0     bpr:wam.obj
 0002:0000c0f8       ??_C@_05IACAFMHP@popen?$AA@ 004380f8     bpr:wam.obj
 0002:0000c100       ??_C@_0M@MKKPIDBD@ttycwriteln?$AA@ 00438100     bpr:wam.obj
 0002:0000c10c       ??_C@_09NPLAJFEA@ttycwrite?$AA@ 0043810c     bpr:wam.obj
 0002:0000c118       ??_C@_0CD@BFOFGMB@writes?5to?5terminal?5with?5a?5new?5li@ 00438118     bpr:wam.obj
 0002:0000c13c       ??_C@_08CCFHCPCF@ttyprint?$AA@ 0043813c     bpr:wam.obj
 0002:0000c148       ??_C@_0BD@IBEMDPN@writes?5to?5terminal?$AA@ 00438148     bpr:wam.obj
 0002:0000c15c       ??_C@_07CFBCJJD@ttyprin?$AA@ 0043815c     bpr:wam.obj
 0002:0000c164       ??_C@_05EPOKHKBD@ttynl?$AA@ 00438164     bpr:wam.obj
 0002:0000c16c       ??_C@_06GMJDKPAF@ttyput?$AA@ 0043816c     bpr:wam.obj
 0002:0000c174       ??_C@_06GEOJOIMM@ttyout?$AA@ 00438174     bpr:wam.obj
 0002:0000c17c       ??_C@_05HIJDAOBE@ttyin?$AA@ 0043817c     bpr:wam.obj
 0002:0000c184       ??_C@_0CF@HMEGHPN@returns?5the?5size?5of?5a?5file?0?5in?5b@ 00438184     bpr:wam.obj
 0002:0000c1ac       ??_C@_09CKOOOICH@file_size?$AA@ 004381ac     bpr:wam.obj
 0002:0000c1b8       ??_C@_0BB@PKBKBFAI@flushes?5a?5stream?$AA@ 004381b8     bpr:wam.obj
 0002:0000c1cc       ??_C@_0BO@KPEGHIN@flushes?5current?5output?5stream?$AA@ 004381cc     bpr:wam.obj
 0002:0000c1ec       ??_C@_0N@NCGGMPCP@flush_output?$AA@ 004381ec     bpr:wam.obj
 0002:0000c200       ??_C@_0EJ@PNKKPOMK@?$CIStream?0CharAsOneLetterConstant?$CJ@ 00438200     bpr:wam.obj
 0002:0000c24c       ??_C@_08JMAGJBHI@put_char?$AA@ 0043824c     bpr:wam.obj
 0002:0000c258       ??_C@_0EK@KOFGIKCM@?$CIStream?0CharAsOneLetterConstant?$CJ@ 00438258     bpr:wam.obj
 0002:0000c2a4       ??_C@_08CIBMIPOL@get_char?$AA@ 004382a4     bpr:wam.obj
 0002:0000c2b0       ??_C@_0CG@GOONKJDK@outputs?5a?5char?5code?5to?5a?5stream?5@ 004382b0     bpr:wam.obj
 0002:0000c2d8       ??_C@_0CH@KHIKJCJA@inputs?5a?5char?5code?5from?5a?5stream@ 004382d8     bpr:wam.obj
 0002:0000c300       ??_C@_0BN@LOICIAAG@writes?5a?5list?5of?5ascii?5codes?$AA@ 00438300     bpr:wam.obj
 0002:0000c320       ??_C@_0M@EIECHHCO@write_chars?$AA@ 00438320     bpr:wam.obj
 0002:0000c32c       ??_C@_0BP@CGEEHJIC@reads?5to?5a?5list?5of?5ascii?5codes?$AA@ 0043832c     bpr:wam.obj
 0002:0000c34c       ??_C@_0L@DIADIPPI@read_chars?$AA@ 0043834c     bpr:wam.obj
 0002:0000c358       ??_C@_0BF@HMBNNACM@pretty?5prints?5a?5term?$AA@ 00438358     bpr:wam.obj
 0002:0000c370       ??_C@_07KALBDDOF@pp_term?$AA@ 00438370     bpr:wam.obj
 0002:0000c378       ??_C@_0DD@JDKIFIAN@prints?5out?5a?5clause?5with?5some?5ca@ 00438378     bpr:wam.obj
 0002:0000c3ac       ??_C@_09OFHPOOEP@pp_clause?$AA@ 004383ac     bpr:wam.obj
 0002:0000c3b8       ??_C@_0BH@MGEEONCG@pretty?5prints?5a?5clause?$AA@ 004383b8     bpr:wam.obj
 0002:0000c3d0       ??_C@_0DH@MGEAFKPM@writes?5to?5terminal?5while?5ignorin@ 004383d0     bpr:wam.obj
 0002:0000c408       ??_C@_07GCCODDFC@display?$AA@ 00438408     bpr:wam.obj
 0002:0000c410       ??_C@_0BB@JHACNKAL@portable_display?$AA@ 00438410     bpr:wam.obj
 0002:0000c428       ??_C@_0EP@FJBEFCLH@variant?5of?5write?5which?5quotes?5if@ 00438428     bpr:wam.obj
 0002:0000c478       ??_C@_06FPBABGF@writeq?$AA@ 00438478     bpr:wam.obj
 0002:0000c480       ??_C@_0BD@NIGKGCID@variant?5of?5write?11?$AA@ 00438480     bpr:wam.obj
 0002:0000c494       ??_C@_05IJDJACGD@print?$AA@ 00438494     bpr:wam.obj
 0002:0000c4a0       ??_C@_0FF@LFNGIOIF@writes?5to?5current?5output?5stream?5@ 004384a0     bpr:wam.obj
 0002:0000c4f8       ??_C@_0FI@KFFJEOFB@overridable?5write?11?0?5style?5?$CIwrit@ 004384f8     bpr:wam.obj
 0002:0000c550       ??_C@_0O@CFIEHKJN@generic_write?$AA@ 00438550     bpr:wam.obj
 0002:0000c560       ??_C@_0M@FMPBLMIA@write_float?$AA@ 00438560     bpr:wam.obj
 0002:0000c56c       ??_C@_0L@LOPMONDD@fast_write?$AA@ 0043856c     bpr:wam.obj
 0002:0000c578       ??_C@_0BM@IBOCINOM@writes?5a?5new?5line?5character?$AA@ 00438578     bpr:wam.obj
 0002:0000c594       ??_C@_0BF@BHMCGJIA@ISO?5char?5code?5writer?$AA@ 00438594     bpr:wam.obj
 0002:0000c5ac       ??_C@_08CJJOPLM@put_code?$AA@ 004385ac     bpr:wam.obj
 0002:0000c5b8       ??_C@_0BF@DLEAGIFK@ISO?5char?5code?5reader?$AA@ 004385b8     bpr:wam.obj
 0002:0000c5d0       ??_C@_08LGIDPBCP@get_code?$AA@ 004385d0     bpr:wam.obj
 0002:0000c5dc       ??_C@_0M@JLLAIGMI@read_tokens?$AA@ 004385dc     bpr:wam.obj
 0002:0000c5e8       ??_C@_0M@KNJCJMOM@read_clause?$AA@ 004385e8     bpr:wam.obj
 0002:0000c5f4       ??_C@_0BF@GMDFHPLB@read_with_singletons?$AA@ 004385f4     bpr:wam.obj
 0002:0000c60c       ??_C@_0BA@ECDLDIFH@warn_singletons?$AA@ 0043860c     bpr:wam.obj
 0002:0000c61c       ??_C@_0O@MGKMBGEO@top_read_term?$AA@ 0043861c     bpr:wam.obj
 0002:0000c62c       ??_C@_0DL@EJOFOAJD@reads?5a?5term?5and?5also?5a?5list?5of?5@ 0043862c     bpr:wam.obj
 0002:0000c668       ??_C@_09OBNBJMNM@read_term?$AA@ 00438668     bpr:wam.obj
 0002:0000c674       ??_C@_0N@EODNLBJD@reads?5a?5term?$AA@ 00438674     bpr:wam.obj
 0002:0000c684       ??_C@_04POLDLDMI@read?$AA@ 00438684     bpr:wam.obj
 0002:0000c690       ??_C@_0FO@BKFAHCJL@?$CIGoal?0Alternative?$CJ?3?5runs?5goal?5on@ 00438690     bpr:wam.obj
 0002:0000c6f0       ??_C@_0CP@CLBKMLI@runs?5goal?5only?5if?5is_prolog?$CIbinp@ 004386f0     bpr:wam.obj
 0002:0000c720       ??_C@_07GGAIHNAO@bp_only?$AA@ 00438720     bpr:wam.obj
 0002:0000c728       ??_C@_0CO@MANPHALH@recognizes?5binprolog?5?9?5useful?5fo@ 00438728     bpr:wam.obj
 0002:0000c758       ??_C@_09NNIIADPC@is_prolog?$AA@ 00438758     bpr:wam.obj
 0002:0000c764       ??_C@_0CB@MJPOCBNG@interactive?5toplevel?5Prolog?5step@ 00438764     bpr:wam.obj
 0002:0000c788       ??_C@_07PPBHFDNI@topstep?$AA@ 00438788     bpr:wam.obj
 0002:0000c790       ??_C@_0CB@KBMBHEMN@interactive?5toplevel?5Prolog?5loop@ 00438790     bpr:wam.obj
 0002:0000c7b4       ??_C@_08LGPOPOII@toplevel?$AA@ 004387b4     bpr:wam.obj
 0002:0000c7c0       ??_C@_0CP@LPONLNFA@starts?5main?10?5if?5defined?0?5otherw@ 004387c0     bpr:wam.obj
 0002:0000c7f0       ??_C@_0DG@DLCHKNB@runs?5more?5command?5line?5args?5repr@ 004387f0     bpr:wam.obj
 0002:0000c828       ??_C@_0DC@MGEHMEEJ@loads?5code?5and?1or?5executes?5first@ 00438828     bpr:wam.obj
 0002:0000c860       ??_C@_0EC@DCOKHJDA@default?5entry?5predicate?0?5does?5bo@ 00438860     bpr:wam.obj
 0002:0000c8a4       ??_C@_0CI@BBCNPOMO@user?5defined?5optional?5startup?5pr@ 004388a4     bpr:wam.obj
 0002:0000c8cc       ??_C@_04GHJNJNPO@main?$AA@ 004388cc     bpr:wam.obj
 0002:0000c8d4       ??_C@_0CN@EMANPEKK@writes?5message?5in?5debug?5mode?5?$CIlo@ 004388d4     bpr:wam.obj
 0002:0000c904       ??_C@_08GPOEPDOF@debugmes?$AA@ 00438904     bpr:wam.obj
 0002:0000c910       ??_C@_0DB@IMHIDMNJ@writes?5message?5if?5quietness?5is?5l@ 00438910     bpr:wam.obj
 0002:0000c944       ??_C@_0CI@OJJIDNHO@writes?5message?5if?5in?5low?5quietne@ 00438944     bpr:wam.obj
 0002:0000c96c       ??_C@_08NDJJHOMD@quietmes?$AA@ 0043896c     bpr:wam.obj
 0002:0000c978       ??_C@_0CA@BHBEFGIL@writes?5error?5message?5and?5aborts?$AA@ 00438978     bpr:wam.obj
 0002:0000c998       ??_C@_0M@HAODPHBH@fatal_error?$AA@ 00438998     bpr:wam.obj
 0002:0000c9a4       ??_C@_0BP@EMNDOFBB@writes?5error?5message?5and?5fails?$AA@ 004389a4     bpr:wam.obj
 0002:0000c9c4       ??_C@_06PNKHFAIG@errmes?$AA@ 004389c4     bpr:wam.obj
 0002:0000c9cc       ??_C@_0CE@NKFKOKKG@writes?5basic?5error?5message?5and?5f@ 004389cc     bpr:wam.obj
 0002:0000c9f0       ??_C@_0L@GPPAJHFJ@user_error?$AA@ 004389f0     bpr:wam.obj
 0002:0000ca00       ??_C@_0EM@DGKPIDLJ@trim_term?$CID?0Filler?0T?0NewT?$CJ?5repla@ 00438a00     bpr:wam.obj
 0002:0000ca4c       ??_C@_09GCBDJNEF@trim_term?$AA@ 00438a4c     bpr:wam.obj
 0002:0000ca58       ??_C@_0BF@BEGONOIN@write_term_to_chars1?$AA@ 00438a58     bpr:wam.obj
 0002:0000ca70       ??_C@_01MMEEDKFM@X?$AA@    00438a70     bpr:wam.obj
 0002:0000ca74       ??_C@_01NFFPALBN@Y?$AA@    00438a74     bpr:wam.obj
 0002:0000ca78       ??_C@_0DL@MLMOGJKC@writes?5a?5term?5with?5variables?5nam@ 00438a78     bpr:wam.obj
 0002:0000cab4       ??_C@_0DL@DMFNLFID@reads?5a?5term?5with?5variable?5names@ 00438ab4     bpr:wam.obj
 0002:0000caf0       ??_C@_0CG@FKAFLLLK@writes?5a?5term?5to?5a?5list?5of?5char?5@ 00438af0     bpr:wam.obj
 0002:0000cb18       ??_C@_0BE@DOFMMCCG@write_term_to_chars?$AA@ 00438b18     bpr:wam.obj
 0002:0000cb30       ??_C@_0FA@NEMJMIDC@generates?5a?5code?5ready?5to?5print?0@ 00438b30     bpr:wam.obj
 0002:0000cb80       ??_C@_0L@CDKCHFMO@words_code?$AA@ 00438b80     bpr:wam.obj
 0002:0000cb8c       ??_C@_0DP@DKMJEMCO@converts?5a?5list?5of?5character?5cod@ 00438b8c     bpr:wam.obj
 0002:0000cbcc       ??_C@_0M@KGMPHGGB@codes_words?$AA@ 00438bcc     bpr:wam.obj
 0002:0000cbd8       ??_C@_0FH@OHLEOKNM@match_before?$CI?$CLStop?0?9Word?0I?0O?$CJ?3?5m@ 00438bd8     bpr:wam.obj
 0002:0000cc30       ??_C@_0IB@KLBMMBML@match_before?$CI?$CLStops?0?9Word?0?9Stop?0@ 00438c30     bpr:wam.obj
 0002:0000ccb4       ??_C@_0N@GLONPKKP@match_before?$AA@ 00438cb4     bpr:wam.obj
 0002:0000ccc8       ??_C@_0EG@ENKEGNHH@match_word?$CI?$CLWord?0I?0O?$CJ?3?5matches?1c@ 00438cc8     bpr:wam.obj
 0002:0000cd10       ??_C@_0L@PJOELOFE@match_word?$AA@ 00438d10     bpr:wam.obj
 0002:0000cd1c       ??_C@_09EDPENDGM@disj_term?$AA@ 00438d1c     bpr:wam.obj
 0002:0000cd28       ??_C@_04LOFBOAAI@term?$AA@ 00438d28     bpr:wam.obj
 0002:0000cd30       ??_C@_0CF@LMIIALEP@to_word_codes?$CICodes?0ListOfWordCo@ 00438d30     bpr:wam.obj
 0002:0000cd58       ??_C@_0O@HJDPGKHD@to_word_codes?$AA@ 00438d58     bpr:wam.obj
 0002:0000cd68       ??_C@_0CE@PLAEEFJE@to_words?$CICodes?0NaturalLanguageWo@ 00438d68     bpr:wam.obj
 0002:0000cd8c       ??_C@_08OPFAKOPK@to_words?$AA@ 00438d8c     bpr:wam.obj
 0002:0000cd98       ??_C@_0BO@BKEEONGK@to_tokens?$CICodes?0PrologTokens?$CJ?$AA@ 00438d98     bpr:wam.obj
 0002:0000cdb8       ??_C@_09KJMPNJLB@to_tokens?$AA@ 00438db8     bpr:wam.obj
 0002:0000cdc4       ??_C@_05CJAPJGB@nword?$AA@ 00438dc4     bpr:wam.obj
 0002:0000cdcc       ??_C@_04EHIOMBPF@word?$AA@ 00438dcc     bpr:wam.obj
 0002:0000cdd4       ??_C@_08LDJHAIBE@is_digit?$AA@ 00438dd4     bpr:wam.obj
 0002:0000cde0       ??_C@_08POFPPIEG@is_punct?$AA@ 00438de0     bpr:wam.obj
 0002:0000cdec       ??_C@_09NLJKHNEK@is_letter?$AA@ 00438dec     bpr:wam.obj
 0002:0000cdf8       ??_C@_08LLJBDGNO@is_space?$AA@ 00438df8     bpr:wam.obj
 0002:0000ce04       ??_C@_0CM@LENNMPJE@?$CIF?0X?0Y?0I?0O?$CJ?3?5DCG?5metacall?5for?5st@ 00438e04     bpr:wam.obj
 0002:0000ce30       ??_C@_0CK@FNIOFGCG@?$CIF?0X?0I?0O?$CJ?3?5DCG?5metacall?5for?5star@ 00438e30     bpr:wam.obj
 0002:0000ce5c       ??_C@_08CAFJNPPM@dcg_call?$AA@ 00438e5c     bpr:wam.obj
 0002:0000ce68       ??_C@_0EO@LBFALIAH@one?$CIRecognizer?0Result?$CJ?3?5DCG?5base@ 00438e68     bpr:wam.obj
 0002:0000ceb8       ??_C@_03OHDNLOHO@one?$AA@  00438eb8     bpr:wam.obj
 0002:0000cec0       ??_C@_0EL@EPMIICGD@plus?$CIRecognizer?0Result?$CJ?3?5DCG?5bas@ 00438ec0     bpr:wam.obj
 0002:0000cf0c       ??_C@_04OHNHCABI@plus?$AA@ 00438f0c     bpr:wam.obj
 0002:0000cf18       ??_C@_0EL@KEELEDAL@star?$CIRecognizer?0Result?$CJ?3?5DCG?5bas@ 00438f18     bpr:wam.obj
 0002:0000cf64       ??_C@_04DHOOBPFF@star?$AA@ 00438f64     bpr:wam.obj
 0002:0000cf6c       ??_C@_0CO@MHFMDLOO@alternative?5form?5for?5C?13?5DCG?5con@ 00438f6c     bpr:wam.obj
 0002:0000cf9c       ??_C@_01EOFPKCAF@?$EA?$AA@ 00438f9c     bpr:wam.obj
 0002:0000cfa0       ??_C@_0CH@DNMPNABG@reads?5a?5term?5from?5a?5list?5of?5char@ 00438fa0     bpr:wam.obj
 0002:0000cfc8       ??_C@_0BF@HMJAILGJ@read_term_from_chars?$AA@ 00438fc8     bpr:wam.obj
 0002:0000cfe0       ??_C@_0FB@CLNPNOBA@converts?5a?5term?5to?5a?5string?5cons@ 00438fe0     bpr:wam.obj
 0002:0000d034       ??_C@_09MPBIIHJ@to_string?$AA@ 00439034     bpr:wam.obj
 0002:0000d040       ??_C@_0FI@JCJLMCCC@?$CINumber?0CharAtoms?$CJ?3?5converts?5bet@ 00439040     bpr:wam.obj
 0002:0000d098       ??_C@_0N@CMOGBKEI@number_chars?$AA@ 00439098     bpr:wam.obj
 0002:0000d0a8       ??_C@_0FF@OJMLGMAK@?$CIAtom?0CharAtoms?$CJ?3?5converts?5betwe@ 004390a8     bpr:wam.obj
 0002:0000d100       ??_C@_0L@BAPGAHFN@atom_chars?$AA@ 00439100     bpr:wam.obj
 0002:0000d10c       ??_C@_04NIBHNFK@1999?$AA@  0043910c     bpr:wam.obj
 0002:0000d118       ??_C@_0FH@OLKLKKFE@?$CINumber?0CharCodes?$CJ?3?5converts?5bet@ 00439118     bpr:wam.obj
 0002:0000d170       ??_C@_0N@LAHBIDJP@number_codes?$AA@ 00439170     bpr:wam.obj
 0002:0000d180       ??_C@_0FE@EELJOIL@?$CIAtom?0CharCodes?$CJ?3?5converts?5betwe@ 00439180     bpr:wam.obj
 0002:0000d1d4       ??_C@_0L@IMGBJOIK@atom_codes?$AA@ 004391d4     bpr:wam.obj
 0002:0000d1e0       ??_C@_0L@FKLECACE@term_chars?$AA@ 004391e0     bpr:wam.obj
 0002:0000d1f0       ??_C@_0EP@FNLLAFNG@?$CITerm?0Chars?$CJ?3?5converts?5between?5a@ 004391f0     bpr:wam.obj
 0002:0000d240       ??_C@_0L@MGCDLJPD@term_codes?$AA@ 00439240     bpr:wam.obj
 0002:0000d24c       ??_C@_0CH@CKKDAGEC@?$CITerm?0Vars?$CJ?3?5lists?5free?5vars?5of?5@ 0043924c     bpr:wam.obj
 0002:0000d274       ??_C@_07MGPJJGMN@vars_of?$AA@ 00439274     bpr:wam.obj
 0002:0000d27c       ??_C@_0P@FPDGIPDG@sound?5negation?$AA@ 0043927c     bpr:wam.obj
 0002:0000d28c       ??_C@_03NJKJADM@not?$AA@   0043928c     bpr:wam.obj
 0002:0000d290       ??_C@_0P@FADCCNCC@free_variables?$AA@ 00439290     bpr:wam.obj
 0002:0000d2a0       ??_C@_02HIIGGHJB@eq?$AA@   004392a0     bpr:wam.obj
 0002:0000d2a4       ??_C@_0BM@KAGPPKBC@calls?5arg?52?5and?5binds?5arg?51?$AA@ 004392a4     bpr:wam.obj
 0002:0000d2c0       ??_C@_01JKBOJNNK@?$FO?$AA@ 004392c0     bpr:wam.obj
 0002:0000d2c8       ??_C@_0EH@EMGPFHNE@all?5solutions?5predicate?5generati@ 004392c8     bpr:wam.obj
 0002:0000d310       ??_C@_05GCIKOPJ@setof?$AA@ 00439310     bpr:wam.obj
 0002:0000d318       ??_C@_0FB@GDJEJIKJ@all?5solutions?5predicate?5generati@ 00439318     bpr:wam.obj
 0002:0000d36c       ??_C@_05HJIOCBHG@bagof?$AA@ 0043936c     bpr:wam.obj
 0002:0000d374       ??_C@_0CC@BGOCFMOL@sorts?5while?5grouping?5similar?5key@ 00439374     bpr:wam.obj
 0002:0000d398       ??_C@_08KOJIHHFK@keygroup?$AA@ 00439398     bpr:wam.obj
 0002:0000d3a4       ??_C@_0DP@CGFFOEJP@sorts?5while?5putting?5similar?5keys@ 004393a4     bpr:wam.obj
 0002:0000d3e4       ??_C@_07CDOONOLG@keysort?$AA@ 004393e4     bpr:wam.obj
 0002:0000d3ec       ??_C@_0BL@CMDOFCLI@sorts?5and?5keeps?5duplicates?$AA@ 004393ec     bpr:wam.obj
 0002:0000d408       ??_C@_05DLEGDPFO@msort?$AA@ 00439408     bpr:wam.obj
 0002:0000d410       ??_C@_0BE@DKHMACNK@?$CIOrder?0List?0Sorted?$CJ?$AA@ 00439410     bpr:wam.obj
 0002:0000d424       ??_C@_0L@NJMKLMAP@merge_sort?$AA@ 00439424     bpr:wam.obj
 0002:0000d430       ??_C@_0BN@GCCGBIBM@sorts?5and?5removes?5duplicates?$AA@ 00439430     bpr:wam.obj
 0002:0000d450       ??_C@_04PIMMHFGE@sort?$AA@ 00439450     bpr:wam.obj
 0002:0000d458       ??_C@_0L@MFNMDLC@bb_element?$AA@ 00439458     bpr:wam.obj
 0002:0000d464       ??_C@_07OOOKCIIA@bb_list?$AA@ 00439464     bpr:wam.obj
 0002:0000d46c       ??_C@_03NLIBDGNG@bb0?$AA@  0043946c     bpr:wam.obj
 0002:0000d470       ??_C@_0CL@JPOGIAMI@lists?5?$CIbp_long?$CB?$CJ?5content?5of?5the?5@ 00439470     bpr:wam.obj
 0002:0000d49c       ??_C@_02BMCGDAIG@bb?$AA@   0043949c     bpr:wam.obj
 0002:0000d4a0       ??_C@_0CG@EKKNKGHC@checks?5if?5dynamic?5in?5a?5given?5dat@ 004394a0     bpr:wam.obj
 0002:0000d4c8       ??_C@_0O@HLBONIJI@db_is_dynamic?$AA@ 004394c8     bpr:wam.obj
 0002:0000d4d8       ??_C@_0BC@MCBLIPDP@checks?5if?5dynamic?$AA@ 004394d8     bpr:wam.obj
 0002:0000d4ec       ??_C@_0L@HEBDLKOJ@is_dynamic?$AA@ 004394ec     bpr:wam.obj
 0002:0000d4f8       ??_C@_0BN@OBANAEJM@checks?5if?5currently?5asserted?$AA@ 004394f8     bpr:wam.obj
 0002:0000d518       ??_C@_0M@NKLCPCPJ@is_asserted?$AA@ 00439518     bpr:wam.obj
 0002:0000d524       ??_C@_0DP@JIJBCIAE@calls?5arg?51?5as?5if?5it?5were?5entere@ 00439524     bpr:wam.obj
 0002:0000d564       ??_C@_07BBJGAFCF@topcall?$AA@ 00439564     bpr:wam.obj
 0002:0000d56c       ??_C@_0BN@MCIAHLLJ@lists?5caluses?5given?5database?$AA@ 0043956c     bpr:wam.obj
 0002:0000d58c       ??_C@_0CG@KEJNECHC@lists?5predicate?5F?1N?5in?5given?5dat@ 0043958c     bpr:wam.obj
 0002:0000d5b4       ??_C@_0L@DKNJNHCC@db_listing?$AA@ 004395b4     bpr:wam.obj
 0002:0000d5c0       ??_C@_0CN@BOGAIDHN@lists?5given?5predicate?5if?5in?5curr@ 004395c0     bpr:wam.obj
 0002:0000d5f0       ??_C@_0BH@CJJLCHMK@lists?5current?5database?$AA@ 004395f0     bpr:wam.obj
 0002:0000d608       ??_C@_07KMIIAGPH@listing?$AA@ 00439608     bpr:wam.obj
 0002:0000d610       ??_C@_0GA@DDDLNPPP@stat2dyn?$CIDb?0H?$CJ?3?5reverts?5to?5uncom@ 00439610     bpr:wam.obj
 0002:0000d670       ??_C@_0EO@JHFJFFP@stat2dyn?$CIH?$CJ?3?5reverts?5to?5uncompil@ 00439670     bpr:wam.obj
 0002:0000d6c0       ??_C@_08IKELBNOJ@stat2dyn?$AA@ 004396c0     bpr:wam.obj
 0002:0000d6d0       ??_C@_0EF@ODCONGMP@dyn2stat?$CIDb?0H?$CJ?3?5compiles?5at?5a?5pr@ 004396d0     bpr:wam.obj
 0002:0000d718       ??_C@_0DJ@EODPABAE@dyn2stat?$CIH?$CJ?3?5compiles?5at?5runtime@ 00439718     bpr:wam.obj
 0002:0000d754       ??_C@_08GBDEJAGN@dyn2stat?$AA@ 00439754     bpr:wam.obj
 0002:0000d760       ??_C@_0N@JIBEJPKO@make_dynamic?$AA@ 00439760     bpr:wam.obj
 0002:0000d770       ??_C@_0M@BEJCODBE@make_static?$AA@ 00439770     bpr:wam.obj
 0002:0000d77c       ??_C@_0BB@IOECKEOP@make_all_dynamic?$AA@ 0043977c     bpr:wam.obj
 0002:0000d790       ??_C@_0BA@COGGOHML@make_all_static?$AA@ 00439790     bpr:wam.obj
 0002:0000d7a0       ??_C@_0EB@MOIFCDAG@sets?1gets?5call?1assert?5ratio?5whic@ 004397a0     bpr:wam.obj
 0002:0000d7e4       ??_C@_0DF@OIBOAJED@yes?1no?3?5activates?1desactivates?5d@ 004397e4     bpr:wam.obj
 0002:0000d81c       ??_C@_05FKJHBDIP@dynco?$AA@ 0043981c     bpr:wam.obj
 0002:0000d828       ??_C@_0GP@PMEMAEFO@make_compilable?$CIFiles?0File?$CJ?5rewr@ 00439828     bpr:wam.obj
 0002:0000d898       ??_C@_0BB@IFMHFJHN@make_compileable?$AA@ 00439898     bpr:wam.obj
 0002:0000d8b0       ??_C@_0EG@EKEKGEOO@xload?$CIFile?$CJ?5loads?5clauses?5to?5the@ 004398b0     bpr:wam.obj
 0002:0000d8f8       ??_C@_05NOEPKDFN@xload?$AA@ 004398f8     bpr:wam.obj
 0002:0000d900       ??_C@_0EL@LINGLONL@xsave?$CIFile?$CJ?5saves?5all?5the?5clause@ 00439900     bpr:wam.obj
 0002:0000d94c       ??_C@_05NMFCFAIJ@xsave?$AA@ 0043994c     bpr:wam.obj
 0002:0000d958       ??_C@_0EE@OFBFCLAA@db_save?$CIFile?$CJ?5saves?5all?5the?5clau@ 00439958     bpr:wam.obj
 0002:0000d9a0       ??_C@_0EE@DBMLCBMO@db_save?$CIDb?0File?$CJ?5saves?5using?5qpr@ 004399a0     bpr:wam.obj
 0002:0000d9e4       ??_C@_07FKJDOIEA@db_save?$AA@ 004399e4     bpr:wam.obj
 0002:0000d9ec       ??_C@_0DF@LBEBDLNJ@db_consult?$CIFile?0Db?$CJ?5consults?5a?5f@ 004399ec     bpr:wam.obj
 0002:0000da24       ??_C@_0L@PFOFEADK@db_consult?$AA@ 00439a24     bpr:wam.obj
 0002:0000da30       ??_C@_0DB@JNOCPKBB@same?5as?5current_db?0?5returns?5the?5@ 00439a30     bpr:wam.obj
 0002:0000da64       ??_C@_07BAGMAMNO@this_db?$AA@ 00439a64     bpr:wam.obj
 0002:0000da70       ??_C@_0HA@JHBHPNMO@db_move?$CIFromDB?0ToDB?$CJ?5moves?5the?5c@ 00439a70     bpr:wam.obj
 0002:0000dae0       ??_C@_07GFJMLGJA@db_move?$AA@ 00439ae0     bpr:wam.obj
 0002:0000dae8       ??_C@_0DG@IMMMNHNK@abolishes?5all?5predicates?5in?5curr@ 00439ae8     bpr:wam.obj
 0002:0000db20       ??_C@_0CM@NKOJLJMG@db_clean?$CIDB?$CJ?5abolishes?5all?5predi@ 00439b20     bpr:wam.obj
 0002:0000db4c       ??_C@_08DDBLACNG@db_clean?$AA@ 00439b4c     bpr:wam.obj
 0002:0000db58       ??_C@_0DB@KMDINKCF@db_abolish?$CIDB?0F?1N?$CJ?5removes?5predi@ 00439b58     bpr:wam.obj
 0002:0000db8c       ??_C@_0L@BEDJKEEG@db_abolish?$AA@ 00439b8c     bpr:wam.obj
 0002:0000db98       ??_C@_0FH@KMCHPPHH@clause?$CIDB?0H?0B?$CJ?5generates?5a?5claus@ 00439b98     bpr:wam.obj
 0002:0000dbf0       ??_C@_09EJAMKFCK@db_clause?$AA@ 00439bf0     bpr:wam.obj
 0002:0000dbfc       ??_C@_0DG@HOACBPLA@generates?1checks?5a?5predicate?5hea@ 00439bfc     bpr:wam.obj
 0002:0000dc34       ??_C@_07MCLDFNDA@db_head?$AA@ 00439c34     bpr:wam.obj
 0002:0000dc40       ??_C@_0EP@HHNKMKK@removes?5from?5database?5given?5as?5a@ 00439c40     bpr:wam.obj
 0002:0000dc90       ??_C@_0DL@IHJLMEAN@removes?5from?5database?5given?5as?5a@ 00439c90     bpr:wam.obj
 0002:0000dccc       ??_C@_0O@ONCDPGHD@db_retractall?$AA@ 00439ccc     bpr:wam.obj
 0002:0000dcdc       ??_C@_0DH@MAKDNAGA@deletes?5from?5database?5given?5as?5a@ 00439cdc     bpr:wam.obj
 0002:0000dd14       ??_C@_0M@OPCOEAIL@db_retract1?$AA@ 00439d14     bpr:wam.obj
 0002:0000dd20       ??_C@_0EL@JODPHNLM@db_retract?$CIDb?0H?0B?$CJ?5retracts?5clau@ 00439d20     bpr:wam.obj
 0002:0000dd6c       ??_C@_0DC@KCFCCFOM@does?5retract?11?5arg?52?5from?5databa@ 00439d6c     bpr:wam.obj
 0002:0000dda0       ??_C@_0L@KKIOKBHJ@db_retract?$AA@ 00439da0     bpr:wam.obj
 0002:0000ddac       ??_C@_0DB@BKCFDGND@does?5assert?11?5arg?52?5into?5databas@ 00439dac     bpr:wam.obj
 0002:0000dde0       ??_C@_09DEDBNOBH@db_assert?$AA@ 00439de0     bpr:wam.obj
 0002:0000ddec       ??_C@_0DC@PPIMNFFB@does?5assertz?11?5arg?52?5into?5databa@ 00439dec     bpr:wam.obj
 0002:0000de20       ??_C@_0L@FGDHCFGF@db_assertz?$AA@ 00439e20     bpr:wam.obj
 0002:0000de2c       ??_C@_0DC@GHKDBDH@does?5asserta?11?5arg?52?5into?5databa@ 00439e2c     bpr:wam.obj
 0002:0000de60       ??_C@_0L@PPABOOPP@db_asserta?$AA@ 00439e60     bpr:wam.obj
 0002:0000de6c       ??_C@_0DD@PPHOIOID@runs?5predicate?5arg?52?5if?5asserted@ 00439e6c     bpr:wam.obj
 0002:0000dea0       ??_C@_0M@CLGFOIBM@db_asserted?$AA@ 00439ea0     bpr:wam.obj
 0002:0000deac       ??_C@_0BB@FEFEICL@disable_builtins?$AA@ 00439eac     bpr:wam.obj
 0002:0000dec0       ??_C@_0P@CLFHFGMG@disable_static?$AA@ 00439ec0     bpr:wam.obj
 0002:0000ded0       ??_C@_0CO@PCOHEBGA@db?5hook?0?5recovers?5memory?5used?5by@ 00439ed0     bpr:wam.obj
 0002:0000df00       ??_C@_04GAFJFJNJ@x_gc?$AA@ 00439f00     bpr:wam.obj
 0002:0000df08       ??_C@_0DE@BPBDKGAF@lists?5predicate?5F?5of?5arity?5N?5if?5@ 00439f08     bpr:wam.obj
 0002:0000df3c       ??_C@_0DG@KGMCHNKB@db?5hook?0?5lists?5given?5predicate?5i@ 00439f3c     bpr:wam.obj
 0002:0000df74       ??_C@_09GCFFPKCD@x_listing?$AA@ 00439f74     bpr:wam.obj
 0002:0000df80       ??_C@_0DH@KDOEMIOD@db?5hook?0?5consults?5with?5possible?5@ 00439f80     bpr:wam.obj
 0002:0000dfb8       ??_C@_09KNGJGNDL@x_consult?$AA@ 00439fb8     bpr:wam.obj
 0002:0000dfc8       ??_C@_0EI@LCCMALLI@db?5hook?0?5clause?$CIH?0B?$CJ?5generates?5a@ 00439fc8     bpr:wam.obj
 0002:0000e010       ??_C@_08KNGNLFBH@x_clause?$AA@ 0043a010     bpr:wam.obj
 0002:0000e020       ??_C@_0EI@CJLKJKAD@db?5hook?0?5deletes?5all?5matching?5cl@ 0043a020     bpr:wam.obj
 0002:0000e068       ??_C@_09EMLFIJEH@x_abolish?$AA@ 0043a068     bpr:wam.obj
 0002:0000e074       ??_C@_0CG@LIDOJMOK@db?5hook?0?5deletes?5all?5matching?5cl@ 0043a074     bpr:wam.obj
 0002:0000e09c       ??_C@_0N@CIMFAJPI@x_retractall?$AA@ 0043a09c     bpr:wam.obj
 0002:0000e0ac       ??_C@_0DD@OGDKPJFA@db?5hook?0?5backtracks?5over?5deletin@ 0043a0ac     bpr:wam.obj
 0002:0000e0e0       ??_C@_09PCACIMHI@x_retract?$AA@ 0043a0e0     bpr:wam.obj
 0002:0000e0ec       ??_C@_0DM@DHJPHEAI@db?5hook?0?5adds?5a?5clause?5to?5be?5las@ 0043a0ec     bpr:wam.obj
 0002:0000e128       ??_C@_09OLLAIGE@x_assertz?$AA@ 0043a128     bpr:wam.obj
 0002:0000e134       ??_C@_0DN@MFAINKKE@db?5hook?0?5adds?5a?5clause?5to?5be?5fir@ 0043a134     bpr:wam.obj
 0002:0000e174       ??_C@_09KHINMDPO@x_asserta?$AA@ 0043a174     bpr:wam.obj
 0002:0000e180       ??_C@_0BL@BJPCPBEH@db?5hook?0?5checks?5if?5dynamic?$AA@ 0043a180     bpr:wam.obj
 0002:0000e19c       ??_C@_0N@LOPICHBD@x_is_dynamic?$AA@ 0043a19c     bpr:wam.obj
 0002:0000e1ac       ??_C@_0DA@HLFOIMED@db?5hook?0?5states?5that?5a?5predicate@ 0043a1ac     bpr:wam.obj
 0002:0000e1dc       ??_C@_09CPGHDADJ@x_dynamic?$AA@ 0043a1dc     bpr:wam.obj
 0002:0000e1e8       ??_C@_0DL@DABIOHLJ@db?5hook?0?5shows?5the?5result?5of?5pro@ 0043a1e8     bpr:wam.obj
 0002:0000e224       ??_C@_09HDBOKGJN@x_profile?$AA@ 0043a224     bpr:wam.obj
 0002:0000e230       ??_C@_0BC@INAOKBMC@db?5hook?0?5internal?$AA@ 0043a230     bpr:wam.obj
 0002:0000e244       ??_C@_0DO@JGNPHAIA@traces?5and?5profiles?5predicates?0?5@ 0043a244     bpr:wam.obj
 0002:0000e284       ??_C@_07PCNFLFGI@x_trace?$AA@ 0043a284     bpr:wam.obj
 0002:0000e28c       ??_C@_0DB@EDIKOFJK@traces?5calls?5if?5compile?9time?5x_t@ 0043a28c     bpr:wam.obj
 0002:0000e2c0       ??_C@_0O@MMOGLNIG@x_traced_call?$AA@ 0043a2c0     bpr:wam.obj
 0002:0000e2d0       ??_C@_0M@LIJPAKBJ@db_hook_off?$AA@ 0043a2d0     bpr:wam.obj
 0002:0000e2dc       ??_C@_0L@EOKHFIFC@db_hook_on?$AA@ 0043a2dc     bpr:wam.obj
 0002:0000e2e8       ??_C@_07CAAIIMJB@db_hook?$AA@ 0043a2e8     bpr:wam.obj
 0002:0000e2f0       ??_C@_0CD@KMDIMAPO@abolish?$CIF?1N?$CJ?5deletes?5predicate?5F@ 0043a2f0     bpr:wam.obj
 0002:0000e314       ??_C@_07ICGIHFJD@abolish?$AA@ 0043a314     bpr:wam.obj
 0002:0000e31c       ??_C@_0DP@IKEHGLEB@clause?$CIH?0B?$CJ?5generates?5a?5clause?5w@ 0043a31c     bpr:wam.obj
 0002:0000e35c       ??_C@_06BBHFPOGA@clause?$AA@ 0043a35c     bpr:wam.obj
 0002:0000e364       ??_C@_0BN@NJLNMHIN@deletes?5all?5matching?5clauses?$AA@ 0043a364     bpr:wam.obj
 0002:0000e384       ??_C@_0L@OCCOJEAC@retractall?$AA@ 0043a384     bpr:wam.obj
 0002:0000e390       ??_C@_0DG@FIDHMOOO@deletes?5first?5matching?5clause?5in@ 0043a390     bpr:wam.obj
 0002:0000e3c8       ??_C@_08BJABDHAB@retract1?$AA@ 0043a3c8     bpr:wam.obj
 0002:0000e3d4       ??_C@_0CK@IHFOHIE@backtracks?5over?5deleting?5matchin@ 0043a3d4     bpr:wam.obj
 0002:0000e400       ??_C@_0O@DDJNBBKK@adds?5a?5clause?$AA@ 0043a400     bpr:wam.obj
 0002:0000e410       ??_C@_0DD@IJEIDIEG@adds?5a?5clause?5to?5be?5last?5in?5a?5pr@ 0043a410     bpr:wam.obj
 0002:0000e444       ??_C@_07MAGGPELA@assertz?$AA@ 0043a444     bpr:wam.obj
 0002:0000e44c       ??_C@_0DE@FENCGBHP@adds?5a?5clause?5to?5be?5first?5in?5a?5p@ 0043a44c     bpr:wam.obj
 0002:0000e480       ??_C@_07GJFADPCK@asserta?$AA@ 0043a480     bpr:wam.obj
 0002:0000e488       ??_C@_0BO@LJFODKMF@runs?5a?5predicated?5if?5asserted?$AA@ 0043a488     bpr:wam.obj
 0002:0000e4a8       ??_C@_08NNEKJPJG@asserted?$AA@ 0043a4a8     bpr:wam.obj
 0002:0000e4b4       ??_C@_0CL@JGFAOOPH@gets?5the?5name?5of?5currently?5activ@ 0043a4b4     bpr:wam.obj
 0002:0000e4e0       ??_C@_0DC@HNKKAALF@sets?5the?5name?5of?5active?5database@ 0043a4e0     bpr:wam.obj
 0002:0000e514       ??_C@_06GAADEHPM@set_db?$AA@ 0043a514     bpr:wam.obj
 0002:0000e51c       ??_C@_05BPLOMCMC@membq?$AA@ 0043a51c     bpr:wam.obj
 0002:0000e524       ??_C@_0CK@PJKKFEDL@deletes?5any?5matching?5element?5fro@ 0043a524     bpr:wam.obj
 0002:0000e550       ??_C@_09LGCEECJB@cdelq_any?$AA@ 0043a550     bpr:wam.obj
 0002:0000e55c       ??_C@_0CM@MBBNEBLF@deletes?5first?5matching?5element?5f@ 0043a55c     bpr:wam.obj
 0002:0000e588       ??_C@_05NHPOIPOH@cdelq?$AA@ 0043a588     bpr:wam.obj
 0002:0000e590       ??_C@_0CJ@KJAIELEO@generates?5?$CIcopies?5of?$CJ?5members?5of@ 0043a590     bpr:wam.obj
 0002:0000e5bc       ??_C@_06IJEOOKGH@cmembq?$AA@ 0043a5bc     bpr:wam.obj
 0002:0000e5c4       ??_C@_0DB@FPOMIIPI@pops?5?$CIcopy?5of?$CJ?5first?5element?5of?5@ 0043a5c4     bpr:wam.obj
 0002:0000e5f8       ??_C@_05DIBPAENF@cpopq?$AA@ 0043a5f8     bpr:wam.obj
 0002:0000e600       ??_C@_0CH@LNEELADL@adds?5to?5beginning?5of?5persistent?5@ 0043a600     bpr:wam.obj
 0002:0000e628       ??_C@_05HNEHOBHP@pushq?$AA@ 0043a628     bpr:wam.obj
 0002:0000e630       ??_C@_04GNJHEOCB@key2?$AA@ 0043a630     bpr:wam.obj
 0002:0000e638       ??_C@_04EGLKBNOC@key1?$AA@ 0043a638     bpr:wam.obj
 0002:0000e640       ??_C@_0CB@KGIFCFJO@adds?5to?5end?5of?5persistent?5queeue@ 0043a640     bpr:wam.obj
 0002:0000e664       ??_C@_04FADBBNAA@addq?$AA@ 0043a664     bpr:wam.obj
 0002:0000e66c       ??_C@_0CA@JLFBMDEO@?$CID?$CJ?3?5lists?5the?5content?5of?5a?5map?$AA@ 0043a66c     bpr:wam.obj
 0002:0000e68c       ??_C@_08NKDOGBFB@map_show?$AA@ 0043a68c     bpr:wam.obj
 0002:0000e698       ??_C@_07BBFFDMAA@map_key?$AA@ 0043a698     bpr:wam.obj
 0002:0000e6a0       ??_C@_09IAPPNPIK@map_clear?$AA@ 0043a6a0     bpr:wam.obj
 0002:0000e6ac       ??_C@_06CCKOMLKB@map_gc?$AA@ 0043a6ac     bpr:wam.obj
 0002:0000e6b4       ??_C@_0CA@FLKBFAMI@?$CID?0K?$CJ?3?5removes?5key?5K?5from?5map?5D?$AA@ 0043a6b4     bpr:wam.obj
 0002:0000e6d4       ??_C@_06KGMAIHLE@map_rm?$AA@ 0043a6d4     bpr:wam.obj
 0002:0000e6e0       ??_C@_0EC@BNPOFNNG@?$CID?0K?0V?$CJ?3?5gets?5V?0?5given?5K?5in?5map?5@ 0043a6e0     bpr:wam.obj
 0002:0000e724       ??_C@_07OOCNPNPF@map_get?$AA@ 0043a724     bpr:wam.obj
 0002:0000e72c       ??_C@_0BL@BAPKOHNA@?$CID?0K?0V?$CJ?3?5adds?5K?0V?5to?5map?5D?$AA@ 0043a72c     bpr:wam.obj
 0002:0000e748       ??_C@_07DPMFDBKD@map_put?$AA@ 0043a748     bpr:wam.obj
 0002:0000e750       ??_C@_0DE@NNOOOOOP@lists?5the?5content?5of?5all?5maps?5cr@ 0043a750     bpr:wam.obj
 0002:0000e784       ??_C@_09JMGJEKHF@maps_show?$AA@ 0043a784     bpr:wam.obj
 0002:0000e790       ??_C@_0DF@BKIIIEGM@empties?5and?5cleans?5up?5all?5maps?5c@ 0043a790     bpr:wam.obj
 0002:0000e7c8       ??_C@_0L@FKMNDBCN@maps_clean?$AA@ 0043a7c8     bpr:wam.obj
 0002:0000e7d4       ??_C@_0DA@JCMDHEHP@frees?5memory?5for?5all?5maps?5create@ 0043a7d4     bpr:wam.obj
 0002:0000e804       ??_C@_07NJIELPEG@maps_gc?$AA@ 0043a804     bpr:wam.obj
 0002:0000e80c       ??_C@_0DJ@JIPHFHKB@?$CID?$CJ?3?5backtracks?5over?5map?5handles@ 0043a80c     bpr:wam.obj
 0002:0000e848       ??_C@_0N@IAFEGMBD@maps_iterate?$AA@ 0043a848     bpr:wam.obj
 0002:0000e858       ??_C@_0CA@PDHJBBNA@?$CID?$CJ?3?5returns?5a?5new?5map?5handle?5D?$AA@ 0043a858     bpr:wam.obj
 0002:0000e878       ??_C@_07LIAIOBLM@map_new?$AA@ 0043a878     bpr:wam.obj
 0002:0000e880       ??_C@_0CB@OJPCDCFN@?$CID?$CJ?3?5lists?5the?5content?5of?5a?5mmap@ 0043a880     bpr:wam.obj
 0002:0000e8a4       ??_C@_09PLKEJCEJ@mmap_show?$AA@ 0043a8a4     bpr:wam.obj
 0002:0000e8b0       ??_C@_0FA@JEKCKHD@?$CID?0K?$CJ?3?5succeds?5if?5K?5is?5known?0?5ot@ 0043a8b0     bpr:wam.obj
 0002:0000e900       ??_C@_08DPFCJBDE@mmap_key?$AA@ 0043a900     bpr:wam.obj
 0002:0000e90c       ??_C@_0BN@FOMEIKAB@?$CID?$CJ?3?5empties?5and?5cleans?5up?5D?$AA@ 0043a90c     bpr:wam.obj
 0002:0000e92c       ??_C@_0L@JDLCNNCP@mmap_clear?$AA@ 0043a92c     bpr:wam.obj
 0002:0000e938       ??_C@_0BO@EHLPPECL@?$CID?$CJ?3?5frees?5unused?5memory?5in?5D?$AA@ 0043a938     bpr:wam.obj
 0002:0000e958       ??_C@_07JBAOHONM@mmap_gc?$AA@ 0043a958     bpr:wam.obj
 0002:0000e960       ??_C@_0DJ@BGGEACPO@?$CID?0K?$CJ?3?5removes?5all?5terms?5X?5attac@ 0043a960     bpr:wam.obj
 0002:0000e99c       ??_C@_0M@JFNGMBKN@mmap_rm_all?$AA@ 0043a99c     bpr:wam.obj
 0002:0000e9a8       ??_C@_0FJ@MKANGBDP@?$CID?0K?0X?$CJ?3?5removes?5a?5term?5X?5attach@ 0043a9a8     bpr:wam.obj
 0002:0000ea04       ??_C@_07BFGADCMJ@mmap_rm?$AA@ 0043aa04     bpr:wam.obj
 0002:0000ea0c       ??_C@_0DM@NCDLGMAN@?$CID?0K?0X?$CJ?3?5removes?5first?5term?5X?5at@ 0043aa0c     bpr:wam.obj
 0002:0000ea48       ??_C@_0M@KHEPNJLJ@mmap_rm_one?$AA@ 0043aa48     bpr:wam.obj
 0002:0000ea58       ??_C@_0EE@OEIOPNMP@?$CID?0K?0V?$CJ?3?5gets?5V?0?5given?5K?5in?5mmap@ 0043aa58     bpr:wam.obj
 0002:0000ea9c       ??_C@_08MACKFAMB@mmap_get?$AA@ 0043aa9c     bpr:wam.obj
 0002:0000eaa8       ??_C@_0DA@DACLBCIJ@?$CID?0K?0V?$CJ?3?5adds?5K?0V?5as?5the?5last?5el@ 0043aaa8     bpr:wam.obj
 0002:0000ead8       ??_C@_08BBMCJMJH@mmap_put?$AA@ 0043aad8     bpr:wam.obj
 0002:0000eae4       ??_C@_0DB@EOEGGGLP@?$CID?0K?0V?$CJ?3?5adds?5K?0V?5as?5the?5first?5e@ 0043aae4     bpr:wam.obj
 0002:0000eb18       ??_C@_09MGBBDDFB@mmap_push?$AA@ 0043ab18     bpr:wam.obj
 0002:0000eb24       ??_C@_0DF@MLEJLMKL@lists?5the?5content?5of?5all?5mmaps?5c@ 0043ab24     bpr:wam.obj
 0002:0000eb5c       ??_C@_0L@IPCEEINA@mmaps_show?$AA@ 0043ab5c     bpr:wam.obj
 0002:0000eb68       ??_C@_0DG@LPDPAIFL@empties?5and?5cleans?5up?5all?5mmaps?5@ 0043ab68     bpr:wam.obj
 0002:0000eba0       ??_C@_0M@PMGCCLEI@mmaps_clean?$AA@ 0043aba0     bpr:wam.obj
 0002:0000ebac       ??_C@_0DB@DLAJACHF@frees?5memory?5for?5all?5mmaps?5creat@ 0043abac     bpr:wam.obj
 0002:0000ebe0       ??_C@_08PHIDBCHC@mmaps_gc?$AA@ 0043abe0     bpr:wam.obj
 0002:0000ebec       ??_C@_0DK@KLGCAGBF@?$CID?$CJ?3?5backtracks?5over?5mmap?5handle@ 0043abec     bpr:wam.obj
 0002:0000ec28       ??_C@_0O@GFLMKMCE@mmaps_iterate?$AA@ 0043ac28     bpr:wam.obj
 0002:0000ec38       ??_C@_0EP@HCNGDHFH@?$CID?$CJ?3?5returns?5a?5new?5mmap?5handle?5D@ 0043ac38     bpr:wam.obj
 0002:0000ec88       ??_C@_08JGAPEMII@mmap_new?$AA@ 0043ac88     bpr:wam.obj
 0002:0000ec98       ??_C@_0FC@KFDDDOBI@?$CIOpCode?0Input?0Output?$CJ?3?5applies?5v@ 0043ac98     bpr:wam.obj
 0002:0000ecec       ??_C@_0N@OIANMNPJ@process_term?$AA@ 0043acec     bpr:wam.obj
 0002:0000ecfc       ??_C@_0DE@DJCLLDNE@?$CIK?0V?0R?$CJ?3?5performs?5various?5tests?5@ 0043acfc     bpr:wam.obj
 0002:0000ed30       ??_C@_06OKEMIABD@tstest?$AA@ 0043ad30     bpr:wam.obj
 0002:0000ed38       ??_C@_0DO@PCEAEIC@?$CIIterator?$CJ?3?5returns?5an?5iterator?5@ 0043ad38     bpr:wam.obj
 0002:0000ed78       ??_C@_0BB@GGIDANIC@new_key_iterator?$AA@ 0043ad78     bpr:wam.obj
 0002:0000ed8c       ??_C@_0DA@KCBKKDEN@?$CIHandle?$CJ?3?5frees?5external?5term?5gi@ 0043ad8c     bpr:wam.obj
 0002:0000edbc       ??_C@_09CFAIJHLI@free_term?$AA@ 0043adbc     bpr:wam.obj
 0002:0000edc8       ??_C@_0FC@IEPBDPFF@?$CIHandle?0Term?$CJ?3?5creates?5an?5intern@ 0043adc8     bpr:wam.obj
 0002:0000ee1c       ??_C@_0M@HIHKDDOJ@instance_of?$AA@ 0043ae1c     bpr:wam.obj
 0002:0000ee28       ??_C@_0EP@PHKDPGCC@?$CITerm?0Handle?$CJ?3?5creates?5a?5new?5ext@ 0043ae28     bpr:wam.obj
 0002:0000ee78       ??_C@_08EGMHKDNF@new_term?$AA@ 0043ae78     bpr:wam.obj
 0002:0000ee84       ??_C@_0DN@HBJGPGLI@?$CIGroundKey?0Ts?$CJ?5collects?5to?5alist@ 0043ae84     bpr:wam.obj
 0002:0000eec4       ??_C@_0O@IKGDMFBK@get_all_terms?$AA@ 0043aec4     bpr:wam.obj
 0002:0000eed4       ??_C@_0DL@GAHOGGLK@?$CIIterator?0Term?$CJ?3?5backtracks?5over@ 0043aed4     bpr:wam.obj
 0002:0000ef10       ??_C@_08NLIMAPBD@get_term?$AA@ 0043af10     bpr:wam.obj
 0002:0000ef1c       ??_C@_0CO@MMAOKIBM@returns?5the?5number?5of?5terms?5atta@ 0043af1c     bpr:wam.obj
 0002:0000ef4c       ??_C@_0M@CFMGFKPD@count_terms?$AA@ 0043af4c     bpr:wam.obj
 0002:0000ef58       ??_C@_0BB@MJELJLFG@delete_all_terms?$AA@ 0043af58     bpr:wam.obj
 0002:0000ef6c       ??_C@_0DJ@BCCAFJCI@?$CIIterator?0NewTerm?$CJ?3?5replaces?5cur@ 0043af6c     bpr:wam.obj
 0002:0000efa8       ??_C@_0BE@JFDJJIJE@update_current_term?$AA@ 0043afa8     bpr:wam.obj
 0002:0000efbc       ??_C@_0DI@OLNFCPDN@?$CIIterator?$CJ?5removes?5current?5term?5@ 0043afbc     bpr:wam.obj
 0002:0000eff4       ??_C@_0BE@GHDCENKP@remove_current_term?$AA@ 0043aff4     bpr:wam.obj
 0002:0000f008       ??_C@_0FF@FCIHLNHI@?$CIIterator?0Term?$CJ?5returns?5the?5next@ 0043b008     bpr:wam.obj
 0002:0000f060       ??_C@_0O@NMJOIFAI@get_next_term?$AA@ 0043b060     bpr:wam.obj
 0002:0000f070       ??_C@_0EB@NMOKDBEO@?$CIGroundKey?$CJ?5succeds?5if?5at?5least?5@ 0043b070     bpr:wam.obj
 0002:0000f0b4       ??_C@_09CGFFOEHM@has_terms?$AA@ 0043b0b4     bpr:wam.obj
 0002:0000f0c0       ??_C@_0BO@FOJOECAL@?$CIIterator?$CJ?5closes?5an?5iterator?$AA@ 0043b0c0     bpr:wam.obj
 0002:0000f0e0       ??_C@_0P@JHLPOPBE@close_iterator?$AA@ 0043b0e0     bpr:wam.obj
 0002:0000f0f0       ??_C@_0EG@DJBAHEJE@?$CIGroundKey?0Iterator?$CJ?5gets?5an?5ite@ 0043b0f0     bpr:wam.obj
 0002:0000f138       ??_C@_0N@HCFKHHHM@new_iterator?$AA@ 0043b138     bpr:wam.obj
 0002:0000f148       ??_C@_08GPJGBBIA@put_term?$AA@ 0043b148     bpr:wam.obj
 0002:0000f154       ??_C@_09LANKFCLC@push_term?$AA@ 0043b154     bpr:wam.obj
 0002:0000f160       ??_C@_0FB@BFFPIPPN@like?5findall?$CIX?0G?0Xs?$CJ?5but?5uses?5ha@ 0043b160     bpr:wam.obj
 0002:0000f1b4       ??_C@_0BB@JNHNNLCE@hash_find_unique?$AA@ 0043b1b4     bpr:wam.obj
 0002:0000f1c8       ??_C@_0CC@EEBJDDCP@?$CIIntKey?$CJ?5backtrack?5over?5hash?5key@ 0043b1c8     bpr:wam.obj
 0002:0000f1ec       ??_C@_08DNKOMMCF@hash_key?$AA@ 0043b1ec     bpr:wam.obj
 0002:0000f1f8       ??_C@_0CK@PBGDKGKH@?$CIFile?$CJ?5loads?5the?5hashed?5map?5to?5a@ 0043b1f8     bpr:wam.obj
 0002:0000f224       ??_C@_09IFAABKJE@hash_load?$AA@ 0043b224     bpr:wam.obj
 0002:0000f230       ??_C@_0CK@CDEJNFCH@hidden?5compiled?5hashed?5database?5@ 0043b230     bpr:wam.obj
 0002:0000f25c       ??_C@_03FAMJHBOM@$hx?$AA@  0043b25c     bpr:wam.obj
 0002:0000f260       ??_C@_0EG@IAKDFAMH@compiles?5the?5hashed?5map?5to?5a?5pre@ 0043b260     bpr:wam.obj
 0002:0000f2a8       ??_C@_0N@GONMBMMI@hash_compile?$AA@ 0043b2a8     bpr:wam.obj
 0002:0000f2b8       ??_C@_0EP@NDILAPHB@?$CIFile?$CJ?5saves?5the?5hashed?5map?5to?5a@ 0043b2b8     bpr:wam.obj
 0002:0000f308       ??_C@_0GP@OEMPBHPO@?$CIFile?0PredNMame?$CJ?5saves?5the?5hashe@ 0043b308     bpr:wam.obj
 0002:0000f378       ??_C@_09IHBNOJEA@hash_save?$AA@ 0043b378     bpr:wam.obj
 0002:0000f384       ??_C@_0CJ@DEDGLCCM@frees?5space?5used?5by?5hash?5keys?5an@ 0043b384     bpr:wam.obj
 0002:0000f3b0       ??_C@_07MAGFBP@hash_gc?$AA@ 0043b3b0     bpr:wam.obj
 0002:0000f3b8       ??_C@_0CF@MOJHAKGJ@removes?5all?5terms?5from?5all?5hash?5@ 0043b3b8     bpr:wam.obj
 0002:0000f3e0       ??_C@_0DA@CKNJGHBD@?$CIGroundKey?$CJ?5removes?5all?5terms?5at@ 0043b3e0     bpr:wam.obj
 0002:0000f410       ??_C@_0DO@GOADOKGE@?$CIGroundKey?0Term?$CJ?5removes?5all?5mat@ 0043b410     bpr:wam.obj
 0002:0000f450       ??_C@_0L@NFLBNBIK@hash_clear?$AA@ 0043b450     bpr:wam.obj
 0002:0000f460       ??_C@_0EJ@CAEIBLLO@?$CIGroundKey?$CJ?5removes?5a?5term?5attac@ 0043b460     bpr:wam.obj
 0002:0000f4ac       ??_C@_07IEKOCJAK@hash_rm?$AA@ 0043b4ac     bpr:wam.obj
 0002:0000f4b4       ??_C@_0DM@DBGNLEMK@?$CIGroundKey?$CJ?5removes?5a?5term?5attac@ 0043b4b4     bpr:wam.obj
 0002:0000f4f0       ??_C@_0M@BLFINNC@hash_rm_one?$AA@ 0043b4f0     bpr:wam.obj
 0002:0000f500       ??_C@_0EM@JPCJAOCE@?$CIGroundKey?0Term?$CJ?5retrieves?5in?5co@ 0043b500     bpr:wam.obj
 0002:0000f54c       ??_C@_08MCNGANNA@hash_get?$AA@ 0043b54c     bpr:wam.obj
 0002:0000f558       ??_C@_0FH@KPAPMLBI@?$CIGroundKey?0Term?$CJ?3?5attaches?5a?5ter@ 0043b558     bpr:wam.obj
 0002:0000f5b0       ??_C@_08BDDOMBIG@hash_put?$AA@ 0043b5b0     bpr:wam.obj
 0002:0000f5c0       ??_C@_0FK@JCFANKGJ@?$CIGroundKey?0Term?$CJ?3?5attaches?5a?5ter@ 0043b5c0     bpr:wam.obj
 0002:0000f61c       ??_C@_09KMKDOPPO@hash_push?$AA@ 0043b61c     bpr:wam.obj
 0002:0000f628       ??_C@_0BF@NCAAAPJN@tracer?5for?5hash?5maps?$AA@ 0043b628     bpr:wam.obj
 0002:0000f640       ??_C@_0L@JNNHANOF@hash_trace?$AA@ 0043b640     bpr:wam.obj
 0002:0000f650       ??_C@_0FJ@LENMGGHA@Set?5the?5range?5of?5values?5from?5?91?5@ 0043b650     bpr:wam.obj
 0002:0000f6ac       ??_C@_0N@FOIBKPKO@set_hash_max?$AA@ 0043b6ac     bpr:wam.obj
 0002:0000f6bc       ??_C@_0DD@MFPLNDFB@?$CIA?0B?$CJ?3?5removes?5value?5associated?5@ 0043b6bc     bpr:wam.obj
 0002:0000f6f0       ??_C@_09LNJOFHI@global_rm?$AA@ 0043b6f0     bpr:wam.obj
 0002:0000f6fc       ??_C@_0DD@BMBHHGCM@?$CIA?0B?0X?$CJ?3?5retrieves?5X?5associated?5@ 0043b6fc     bpr:wam.obj
 0002:0000f730       ??_C@_0L@HMFCGKAM@global_get?$AA@ 0043b730     bpr:wam.obj
 0002:0000f73c       ??_C@_0CJ@HABLPMFJ@?$CIA?0B?0X?$CJ?3?5associates?5X?5to?5ground?5@ 0043b73c     bpr:wam.obj
 0002:0000f768       ??_C@_0L@KDCJKKME@global_set?$AA@ 0043b768     bpr:wam.obj
 0002:0000f778       ??_C@_0GJ@IMANOIC@computes?5hash?5code?5on?5terms?5grou@ 0043b778     bpr:wam.obj
 0002:0000f7e4       ??_C@_01PFHFFBPC@t?$AA@    0043b7e4     bpr:wam.obj
 0002:0000f7e8       ??_C@_09NNKEOMCG@term_hash?$AA@ 0043b7e8     bpr:wam.obj
 0002:0000f7f8       ??_C@_0EN@FCNPJPDK@computes?5hash?5code?5on?5atomic?5arg@ 0043b7f8     bpr:wam.obj
 0002:0000f848       ??_C@_04MMFJIPBI@hkey?$AA@ 0043b848     bpr:wam.obj
 0002:0000f850       ??_C@_0DJ@BAJGKDJL@checks?5if?5a?5predicate?5has?5been?5d@ 0043b850     bpr:wam.obj
 0002:0000f88c       ??_C@_0BB@BNNOCKHN@is_discontiguous?$AA@ 0043b88c     bpr:wam.obj
 0002:0000f8a0       ??_C@_0DO@MAHMBBLA@states?5that?5clauses?5of?5a?5predica@ 0043b8a0     bpr:wam.obj
 0002:0000f8e0       ??_C@_0O@DLGGFBJA@discontiguous?$AA@ 0043b8e0     bpr:wam.obj
 0002:0000f8f0       ??_C@_0N@OGNBJCOL@is_multifile?$AA@ 0043b8f0     bpr:wam.obj
 0002:0000f900       ??_C@_0DN@PIGBECLH@states?5that?5clauses?5of?5a?5predica@ 0043b900     bpr:wam.obj
 0002:0000f940       ??_C@_09DLNLBGEP@multifile?$AA@ 0043b940     bpr:wam.obj
 0002:0000f94c       ??_C@_0CH@EIBHIJIJ@states?5that?5a?5predicate?5can?5be?5u@ 0043b94c     bpr:wam.obj
 0002:0000f974       ??_C@_07OBLKMMON@dynamic?$AA@ 0043b974     bpr:wam.obj
 0002:0000f97c       ??_C@_0BL@OACEHLEB@traces?5execution?5of?5a?5goal?$AA@ 0043b97c     bpr:wam.obj
 0002:0000f998       ??_C@_05IMBNNINJ@trace?$AA@ 0043b998     bpr:wam.obj
 0002:0000f9a0       ??_C@_0CH@JPFENOD@returns?5current?5dir?5as?5a?5list?5of@ 0043b9a0     bpr:wam.obj
 0002:0000f9c8       ??_C@_0BC@CBJCAPOM@shows?5current?5dir?$AA@ 0043b9c8     bpr:wam.obj
 0002:0000f9dc       ??_C@_03OFKLFAAJ@pwd?$AA@  0043b9dc     bpr:wam.obj
 0002:0000f9e0       ??_C@_0DM@IGBEJCKK@changes?5local?5dir?5to?5HOME?5direct@ 0043b9e0     bpr:wam.obj
 0002:0000fa1c       ??_C@_02ELLOPNDH@cd?$AA@   0043ba1c     bpr:wam.obj
 0002:0000fa20       ??_C@_0DF@CJEHEHBH@passes?5a?5command?5to?5the?5OS?5and?5g@ 0043ba20     bpr:wam.obj
 0002:0000fa58       ??_C@_0BL@DJHOIGHC@passes?5a?5command?5to?5the?5OS?$AA@ 0043ba58     bpr:wam.obj
 0002:0000fa74       ??_C@_05OOLEAMGB@shell?$AA@ 0043ba74     bpr:wam.obj
 0002:0000fa7c       ??_C@_0DK@FLAGGLCP@reads?5a?5Prolog?5file?5to?5a?5set?5of?5@ 0043ba7c     bpr:wam.obj
 0002:0000fab8       ??_C@_09BMFNNHJ@clause_of?$AA@ 0043bab8     bpr:wam.obj
 0002:0000fac4       ??_C@_0DJ@IIOOJDJM@reads?5a?5Prolog?5file?5to?5a?5set?5of?5@ 0043bac4     bpr:wam.obj
 0002:0000fb00       ??_C@_08KJLKNLIN@token_of?$AA@ 0043bb00     bpr:wam.obj
 0002:0000fb0c       ??_C@_0CJ@CHALEDAP@reads?5a?5Prolog?5file?5to?5a?5slist?5o@ 0043bb0c     bpr:wam.obj
 0002:0000fb38       ??_C@_09FLMMIIEM@tokens_of?$AA@ 0043bb38     bpr:wam.obj
 0002:0000fb44       ??_C@_0DI@CCGFOFGE@reads?5a?5Prolog?5file?5to?5a?5set?5of?5@ 0043bb44     bpr:wam.obj
 0002:0000fb7c       ??_C@_07KPEDJMEA@term_of?$AA@ 0043bb7c     bpr:wam.obj
 0002:0000fb88       ??_C@_0EE@POOACJCM@?$CIFile?0Line?$CJ?5reads?5a?5file?5to?5line@ 0043bb88     bpr:wam.obj
 0002:0000fbcc       ??_C@_07IDNJFFIL@line_of?$AA@ 0043bbcc     bpr:wam.obj
 0002:0000fbd8       ??_C@_0FA@KOPBFIPA@?$CIFile?0Ends?0Sent?$CJ?5reads?5a?5file?5to@ 0043bbd8     bpr:wam.obj
 0002:0000fc28       ??_C@_0FH@IKJBPGHN@reads?5a?5natural?5language?5file?5to@ 0043bc28     bpr:wam.obj
 0002:0000fc80       ??_C@_0M@OLGOLFJC@sentence_of?$AA@ 0043bc80     bpr:wam.obj
 0002:0000fc8c       ??_C@_0DO@MNPNGDJI@reads?5a?5Prolog?5file?5to?5a?5set?5of?5@ 0043bc8c     bpr:wam.obj
 0002:0000fccc       ??_C@_07NPBILFNE@char_of?$AA@ 0043bccc     bpr:wam.obj
 0002:0000fcd4       ??_C@_0CG@CGNLPDFH@reads?5a?5file?5to?5a?5list?5of?5ascii?5@ 0043bcd4     bpr:wam.obj
 0002:0000fcfc       ??_C@_0L@OLJEBCND@file2chars?$AA@ 0043bcfc     bpr:wam.obj
 0002:0000fd08       ??_C@_0BP@FGCOFENM@prints?5a?5file?5to?5user?5terminal?$AA@ 0043bd08     bpr:wam.obj
 0002:0000fd28       ??_C@_08OGKEEMK@unix_cat?$AA@ 0043bd28     bpr:wam.obj
 0002:0000fd34       ??_C@_0CO@KCKEAN@gets?5the?5list?5of?5cmd?5line?5args?5f@ 0043bd34     bpr:wam.obj
 0002:0000fd64       ??_C@_0BP@DOLLCMHG@executes?5various?5Unix?5commands?$AA@ 0043bd64     bpr:wam.obj
 0002:0000fd84       ??_C@_04HDPGOEDM@unix?$AA@ 0043bd84     bpr:wam.obj
 0002:0000fd8c       ??_C@_07DMNPHAKM@retract?$AA@ 0043bd8c     bpr:wam.obj
 0002:0000fd94       ??_C@_0DC@LDCCMFBG@returns?5names?5of?5predicates?5defi@ 0043bd94     bpr:wam.obj
 0002:0000fdc8       ??_C@_07BOKCJEKD@garbage?$AA@ 0043bdc8     bpr:wam.obj
 0002:0000fdd0       ??_C@_0DB@MLBNNFJN@prints?5names?5of?5predicates?5defin@ 0043bdd0     bpr:wam.obj
 0002:0000fe04       ??_C@_07BLNKBKHK@apropos?$AA@ 0043be04     bpr:wam.obj
 0002:0000fe0c       ??_C@_06GMEIIFFN@assert?$AA@ 0043be0c     bpr:wam.obj
 0002:0000fe14       ??_C@_0BC@EDJJEIJ@same?5as?5apropos?11?$AA@ 0043be14     bpr:wam.obj
 0002:0000fe28       ??_C@_0CP@JJNNBIOF@generates?5file?5help?4txt?5with?5inf@ 0043be28     bpr:wam.obj
 0002:0000fe58       ??_C@_04PCJFHION@help?$AA@ 0043be58     bpr:wam.obj
 0002:0000fe60       ??_C@_0CJ@OODPHBJP@gets?5time?5in?5secs?5since?5arbitrar@ 0043be60     bpr:wam.obj
 0002:0000fe8c       ??_C@_07FPKJLAH@abstime?$AA@ 0043be8c     bpr:wam.obj
 0002:0000fe94       ??_C@_0DB@PCLLDJDD@gets?5time?5in?5secs?5from?5arbitrary@ 0043be94     bpr:wam.obj
 0002:0000fec8       ??_C@_05KFGGNKME@otime?$AA@ 0043bec8     bpr:wam.obj
 0002:0000fed0       ??_C@_0BP@GLDIDJHD@gets?5elapsed?5real?5time?5in?5secs?$AA@ 0043bed0     bpr:wam.obj
 0002:0000fef0       ??_C@_05BKCOMLIB@rtime?$AA@ 0043bef0     bpr:wam.obj
 0002:0000fef8       ??_C@_0BM@NHNNOALF@gets?5elapsed?5cpu?5time?5in?5ms?$AA@ 0043bef8     bpr:wam.obj
 0002:0000ff14       ??_C@_05NCKEBKLP@ctime?$AA@ 0043bf14     bpr:wam.obj
 0002:0000ff1c       ??_C@_0DD@INBNFML@generates?1checks?5the?5head?5of?5an?5@ 0043bf1c     bpr:wam.obj
 0002:0000ff50       ??_C@_0EA@NIHHMONL@generates?1checks?5name?5and?5head?5o@ 0043bf50     bpr:wam.obj
 0002:0000ff90       ??_C@_0BC@DFKBGKBO@current_predicate?$AA@ 0043bf90     bpr:wam.obj
 0002:0000ffa4       ??_C@_0CC@BHLFMKOI@returns?5a?5property?5of?5a?5predicat@ 0043bfa4     bpr:wam.obj
 0002:0000ffc8       ??_C@_0BD@PHBAECJC@predicate_property?$AA@ 0043bfc8     bpr:wam.obj
 0002:0000ffdc       ??_C@_0BO@KFEGHGLA@returns?5info?5about?5data?5areas?$AA@ 0043bfdc     bpr:wam.obj
 0002:0000fffc       ??_C@_0BF@MIMFJGFA@bitwise?5exclusive?5or?$AA@ 0043bffc     bpr:wam.obj
 0002:00010014       ??_C@_03COLCDPPJ@xor?$AA@  0043c014     bpr:wam.obj
 0002:00010018       ??_C@_05MIMAKCN@round?$AA@ 0043c018     bpr:wam.obj
 0002:00010020       ??_C@_09IDPBDHGP@268307005?$AA@ 0043c020     bpr:wam.obj
 0002:0001002c       ??_C@_0L@OGNGCLOG@?9257698038?$AA@ 0043c02c     bpr:wam.obj
 0002:00010038       ??_C@_08MABILMFG@truncate?$AA@ 0043c038     bpr:wam.obj
 0002:00010044       ??_C@_07EANFIDJB@ceiling?$AA@ 0043c044     bpr:wam.obj
 0002:0001004c       ??_C@_09IBMINFKJ@268251955?$AA@ 0043c04c     bpr:wam.obj
 0002:00010058       ??_C@_0L@IOIMHGCL@?9214748365?$AA@ 0043c058     bpr:wam.obj
 0002:00010064       ??_C@_0BG@MFMNHOIO@float?5to?5int?5function?$AA@ 0043c064     bpr:wam.obj
 0002:0001007c       ??_C@_05PBJFFIGL@floor?$AA@ 0043c07c     bpr:wam.obj
 0002:00010084       ??_C@_03BCGAIFPO@abs?$AA@  0043c084     bpr:wam.obj
 0002:00010088       ??_C@_0N@NFIBONFI@int?5function?$AA@ 0043c088     bpr:wam.obj
 0002:00010098       ??_C@_04HHGHLBPI@sign?$AA@ 0043c098     bpr:wam.obj
 0002:000100a0       ??_C@_0BC@FKIGCAPI@float?5to?5int?5cast?$AA@ 0043c0a0     bpr:wam.obj
 0002:000100b4       ??_C@_04MLLJIGOK@atan?$AA@ 0043c0b4     bpr:wam.obj
 0002:000100bc       ??_C@_04PDIFKINK@acos?$AA@ 0043c0bc     bpr:wam.obj
 0002:000100c4       ??_C@_04FIHNOPOL@asin?$AA@ 0043c0c4     bpr:wam.obj
 0002:000100cc       ??_C@_03IIINPABG@tan?$AA@  0043c0cc     bpr:wam.obj
 0002:000100d0       ??_C@_03LALBNOCG@cos?$AA@  0043c0d0     bpr:wam.obj
 0002:000100d4       ??_C@_03BLEJJJBH@sin?$AA@  0043c0d4     bpr:wam.obj
 0002:000100d8       ??_C@_03KHJOGHMM@exp?$AA@  0043c0d8     bpr:wam.obj
 0002:000100dc       ??_C@_0CG@PEHFANMB@returns?5square?5root?5of?5arg?51?0?5a?5@ 0043c0dc     bpr:wam.obj
 0002:00010104       ??_C@_04EIAKFFMI@sqrt?$AA@ 0043c104     bpr:wam.obj
 0002:0001010c       ??_C@_05DNLPMBKG@hypot?$AA@ 0043c10c     bpr:wam.obj
 0002:00010114       ??_C@_0P@BJLLGHIE@float?5function?$AA@ 0043c114     bpr:wam.obj
 0002:00010124       ??_C@_05KNGEOGJB@atan2?$AA@ 0043c124     bpr:wam.obj
 0002:0001012c       ??_C@_0CM@ONAMBFHF@returns?5log?5in?5base?5arg?51?5of?5arg@ 0043c12c     bpr:wam.obj
 0002:00010158       ??_C@_03MGHMBJCF@log?$AA@  0043c158     bpr:wam.obj
 0002:0001015c       ??_C@_0CG@CMDFPGHD@returns?5arg?51?5at?5power?5arg?52?0?5a?5@ 0043c15c     bpr:wam.obj
 0002:00010184       ??_C@_02FKAPCJPD@?$CK?$CK?$AA@ 0043c184     bpr:wam.obj
 0002:00010188       ??_C@_0CI@GFFDODBL@?$CIBase?0Expo?0Val?$CJ?5computes?5power?5f@ 0043c188     bpr:wam.obj
 0002:000101b0       ??_C@_03JGHBODFD@pow?$AA@  0043c1b0     bpr:wam.obj
 0002:000101b4       ??_C@_0CI@DHNJEEGC@clears?5errors?5set?5by?5various?5con@ 0043c1b4     bpr:wam.obj
 0002:000101dc       ??_C@_0P@NMPKMBIP@clear_bp_error?$AA@ 0043c1dc     bpr:wam.obj
 0002:000101ec       ??_C@_0DC@IBHGFHDB@?$CIId?0Mes?0Arg1?0Arg2?$CJ?3?5gets?5error?5s@ 0043c1ec     bpr:wam.obj
 0002:00010220       ??_C@_0N@HKNJPBAD@get_bp_error?$AA@ 0043c220     bpr:wam.obj
 0002:00010230       ??_C@_0DM@NMNPJGI@?$CIId?0Mes?0Arg1?0Arg2?$CJ?3?5notifies?5emu@ 0043c230     bpr:wam.obj
 0002:0001026c       ??_C@_0N@OGHDNEP@set_bp_error?$AA@ 0043c26c     bpr:wam.obj
 0002:0001027c       ??_C@_05IOOAAOFC@gvget?$AA@ 0043c27c     bpr:wam.obj
 0002:00010284       ??_C@_05FBJLMOJK@gvset?$AA@ 0043c284     bpr:wam.obj
 0002:00010290       ??_C@_0EJ@IMAFIPBC@sets?5a?5VSHARE?5declared?5C?5data?5ob@ 0043c290     bpr:wam.obj
 0002:000102dc       ??_C@_04DDIKKHMG@vset?$AA@ 0043c2dc     bpr:wam.obj
 0002:000102e8       ??_C@_0EJ@JJOKAHAB@gets?5a?5VSHARE?5declared?5C?5data?5ob@ 0043c2e8     bpr:wam.obj
 0002:00010334       ??_C@_04OMPBGHAO@vget?$AA@ 0043c334     bpr:wam.obj
 0002:0001033c       ??_C@_0CE@ILIPANPI@gets?5the?5type?5and?5value?5of?5a?5C?5w@ 0043c33c     bpr:wam.obj
 0002:00010360       ??_C@_05DIBCOKJD@vget0?$AA@ 0043c360     bpr:wam.obj
 0002:00010368       ??_C@_0DF@EHIBBCAJ@sets?5a?5VSHARE?5defined?5int?5C?5vari@ 0043c368     bpr:wam.obj
 0002:000103a0       ??_C@_08ENKFBKD@vset_int?$AA@ 0043c3a0     bpr:wam.obj
 0002:000103ac       ??_C@_0DF@OHNNMIFI@gets?5a?5VSHARE?5defined?5int?5C?5vari@ 0043c3ac     bpr:wam.obj
 0002:000103e4       ??_C@_08PMCLGOHC@vget_int?$AA@ 0043c3e4     bpr:wam.obj
 0002:000103f0       ??_C@_0EG@IJHOMCGB@reads?5HDEFI?5or?5HDEFS?5defined?5C?5c@ 0043c3f0     bpr:wam.obj
 0002:00010438       ??_C@_05FECIALKK@vread?$AA@ 0043c438     bpr:wam.obj
 0002:00010440       ??_C@_0CG@JKNMKBCJ@contains?5read?9only?5Prolog?5flag?5v@ 0043c440     bpr:wam.obj
 0002:00010468       ??_C@_0BD@IPCHIAFM@static_prolog_flag?$AA@ 0043c468     bpr:wam.obj
 0002:0001047c       ??_C@_0CO@DKOIBOOH@?$CIFlag?0Value?$CJ?3?5sets?5the?5value?5of?5@ 0043c47c     bpr:wam.obj
 0002:000104ac       ??_C@_0BA@OPPMDNMH@set_prolog_flag?$AA@ 0043c4ac     bpr:wam.obj
 0002:000104bc       ??_C@_0DD@DPDIPAJG@?$CIFlag?0Value?$CJ?3?5retrieves?5the?5valu@ 0043c4bc     bpr:wam.obj
 0002:000104f0       ??_C@_0M@CCLMJCGE@prolog_flag?$AA@ 0043c4f0     bpr:wam.obj
 0002:000104fc       ??_C@_09PJLLDLHD@nb_getval?$AA@ 0043c4fc     bpr:wam.obj
 0002:00010508       ??_C@_09GKCKIDKO@nb_setval?$AA@ 0043c508     bpr:wam.obj
 0002:00010514       ??_C@_09BBEANPAO@nb_delete?$AA@ 0043c514     bpr:wam.obj
 0002:00010520       ??_C@_03KKAENNGB@let?$AA@  0043c520     bpr:wam.obj
 0002:00010524       ??_C@_0DP@OFJFIAOJ@removes?5the?5term?5associated?5with@ 0043c524     bpr:wam.obj
 0002:00010564       ??_C@_05PMLLGCAA@bb_rm?$AA@ 0043c564     bpr:wam.obj
 0002:00010570       ??_C@_0EJ@DMFGDFKL@bb_val?$CIK1?0K2?0T?$CJ?5T?5is?5?$CIa?5copy?5of?$CJ@ 0043c570     bpr:wam.obj
 0002:000105bc       ??_C@_06EPMMPBPK@bb_val?$AA@ 0043c5bc     bpr:wam.obj
 0002:000105c4       ??_C@_0DO@EJBEMDJL@bb_get?$CIK1?0K2?0T?$CJ?5consumes?5the?5ter@ 0043c5c4     bpr:wam.obj
 0002:00010604       ??_C@_06CCHLPBIF@bb_get?$AA@ 0043c604     bpr:wam.obj
 0002:00010610       ??_C@_0EO@PEKPMFKJ@bb_let?$CIK1?0K2?0T?$CJ?5updates?5or?5defin@ 0043c610     bpr:wam.obj
 0002:00010660       ??_C@_06PFHKHGIE@bb_let?$AA@ 0043c660     bpr:wam.obj
 0002:00010668       ??_C@_0EN@DAHCGHL@bb_set?$CIK1?0K2?0T?$CJ?5updates?5the?5term@ 0043c668     bpr:wam.obj
 0002:000106b8       ??_C@_06PNAADBEN@bb_set?$AA@ 0043c6b8     bpr:wam.obj
 0002:000106c0       ??_C@_0EI@CMBDGCND@bb_def?$CIK1?0K2?0T?$CJ?5associates?5to?5K1@ 0043c6c0     bpr:wam.obj
 0002:00010708       ??_C@_06EIDKCOLI@bb_def?$AA@ 0043c708     bpr:wam.obj
 0002:00010710       ??_C@_0CM@MINKGCJN@?$CIX?0Y?0Min?$CJ?3?5Min?5is?5the?5min?5of?52?5n@ 0043c710     bpr:wam.obj
 0002:0001073c       ??_C@_03KLIPLJLL@min?$AA@  0043c73c     bpr:wam.obj
 0002:00010740       ??_C@_0CM@MDGIEOFC@?$CIX?0Y?0Max?$CJ?3?5Max?5is?5the?5max?5of?52?5n@ 0043c740     bpr:wam.obj
 0002:0001076c       ??_C@_03LJAEFNNE@max?$AA@  0043c76c     bpr:wam.obj
 0002:00010770       ??_C@_0L@MLBEANJ@complement?$AA@ 0043c770     bpr:wam.obj
 0002:0001077c       ??_C@_0BC@JIFEDNKP@returns?50?5?9?5arg?51?$AA@ 0043c77c     bpr:wam.obj
 0002:00010790       ??_C@_0BC@FODLDECI@returns?50?5?$CL?5arg?51?$AA@ 0043c790     bpr:wam.obj
 0002:000107a4       ??_C@_03NDLEJPPF@?$DN?2?$DN?$AA@ 0043c7a4     bpr:wam.obj
 0002:000107a8       ??_C@_03JPOOCIGH@?$DN?3?$DN?$AA@ 0043c7a8     bpr:wam.obj
 0002:000107ac       ??_C@_02EEKDKGMJ@?$DO?$DN?$AA@ 0043c7ac     bpr:wam.obj
 0002:000107b0       ??_C@_02FPPOCJNB@?$DN?$DM?$AA@ 0043c7b0     bpr:wam.obj
 0002:000107b4       ??_C@_0BD@CEFOPOGC@numeric?5comparison?$AA@ 0043c7b4     bpr:wam.obj
 0002:000107c8       ??_C@_0CJ@LCBMIGIC@instance?5of?5compare?13?5with?5arg?51@ 0043c7c8     bpr:wam.obj
 0002:000107f4       ??_C@_03BLCPIPK@?$EA?$DO?$DN?$AA@ 0043c7f4     bpr:wam.obj
 0002:000107f8       ??_C@_0CJ@JKOPKNFO@instance?5of?5compare?13?5with?5arg?51@ 0043c7f8     bpr:wam.obj
 0002:00010824       ??_C@_03BKOPHHOC@?$EA?$DN?$DM?$AA@ 0043c824     bpr:wam.obj
 0002:00010828       ??_C@_0CE@LNEIMJJF@instance?5of?5compare?13?5with?5arg?51@ 0043c828     bpr:wam.obj
 0002:0001084c       ??_C@_02DBOBLAFA@?$EA?$DO?$AA@ 0043c84c     bpr:wam.obj
 0002:00010850       ??_C@_0CE@IPHOKLBH@instance?5of?5compare?13?5with?5arg?51@ 0043c850     bpr:wam.obj
 0002:00010874       ??_C@_02DNHNCNC@?$EA?$DM?$AA@ 0043c874     bpr:wam.obj
 0002:00010878       ??_C@_0CI@CEDJEKCP@true?5if?5arg?51?5is?5not?5identical?5t@ 0043c878     bpr:wam.obj
 0002:000108a0       ??_C@_03BJDLKOIE@?2?$DN?$DN?$AA@ 0043c8a0     bpr:wam.obj
 0002:000108a4       ??_C@_0CB@DBJAALOD@true?5if?5args?5are?5identical?5terms@ 0043c8a4     bpr:wam.obj
 0002:000108c8       ??_C@_02EGOFBIJA@?$DN?$DN?$AA@ 0043c8c8     bpr:wam.obj
 0002:000108cc       ??_C@_0DI@OKNFNJPM@returns?5?$DM?0?$DN?0?$DO?5in?5arg?51?5after?5com@ 0043c8cc     bpr:wam.obj
 0002:00010904       ??_C@_07DIJKPEDD@compare?$AA@ 0043c904     bpr:wam.obj
 0002:0001090c       ??_C@_04IPHMALII@expr?$AA@ 0043c90c     bpr:wam.obj
 0002:00010914       ??_C@_0DF@FLFDPBDK@calls?5the?5function?5evaluator?0?5mo@ 0043c914     bpr:wam.obj
 0002:0001094c       ??_C@_02EDKKPMHH@is?$AA@   0043c94c     bpr:wam.obj
 0002:00010950       ??_C@_0DJ@HNMOOLGJ@inputs?5the?5next?5char?5code?5after?5@ 0043c950     bpr:wam.obj
 0002:0001098c       ??_C@_0BB@FLAPLCDF@outputs?5N?5blanks?$AA@ 0043c98c     bpr:wam.obj
 0002:000109a0       ??_C@_03CEDILPBK@tab?$AA@  0043c9a0     bpr:wam.obj
 0002:000109a4       ??_C@_0DF@KJEFDHBE@checks?5if?5args?5are?5the?5same?5up?5t@ 0043c9a4     bpr:wam.obj
 0002:000109dc       ??_C@_0L@FNBENJJC@variant_of?$AA@ 0043c9dc     bpr:wam.obj
 0002:000109e8       ??_C@_0DK@DLIHJAGI@checks?5if?5arg?51?5is?5subsumed?5by?5a@ 0043c9e8     bpr:wam.obj
 0002:00010a24       ??_C@_0N@KIGFEJGP@subsumes_chk?$AA@ 0043ca24     bpr:wam.obj
 0002:00010a34       ??_C@_0BM@LOJKCOLD@concatenates?52?5disjunctions?$AA@ 0043ca34     bpr:wam.obj
 0002:00010a50       ??_C@_0M@INDLFGAK@append_disj?$AA@ 0043ca50     bpr:wam.obj
 0002:00010a5c       ??_C@_0BM@EJLGAEMH@concatenates?52?5conjunctions?$AA@ 0043ca5c     bpr:wam.obj
 0002:00010a78       ??_C@_0M@OIOOFOF@append_conj?$AA@ 0043ca78     bpr:wam.obj
 0002:00010a84       ??_C@_0BA@LOAIDLLE@reverses?5a?5list?$AA@ 0043ca84     bpr:wam.obj
 0002:00010a94       ??_C@_07KOIEOCCE@reverse?$AA@ 0043ca94     bpr:wam.obj
 0002:00010a9c       ??_C@_0BF@LCPLGCIP@concatenates?5N?5lists?$AA@ 0043ca9c     bpr:wam.obj
 0002:00010ab4       ??_C@_07MKNJCECD@appendN?$AA@ 0043cab4     bpr:wam.obj
 0002:00010abc       ??_C@_0BJ@LKAHGKIJ@true?5if?5it?5has?5arity?5?$DO?50?$AA@ 0043cabc     bpr:wam.obj
 0002:00010ad8       ??_C@_08JAMLDMHI@compound?$AA@ 0043cad8     bpr:wam.obj
 0002:00010ae4       ??_C@_0BJ@FLFNMFED@true?5if?5integer?5or?5float?$AA@ 0043cae4     bpr:wam.obj
 0002:00010b00       ??_C@_06EBGNBFIA@number?$AA@ 0043cb00     bpr:wam.obj
 0002:00010b08       ??_C@_09DOIHLKMP@268584878?$AA@ 0043cb08     bpr:wam.obj
 0002:00010b14       ??_C@_09BBIMFFKD@343597383?$AA@ 0043cb14     bpr:wam.obj
 0002:00010b20       ??_C@_0DI@KGJKOBDI@true?5if?5represented?5as?5a?564?5bit?5@ 0043cb20     bpr:wam.obj
 0002:00010b58       ??_C@_05KNFBNCOH@float?$AA@ 0043cb58     bpr:wam.obj
 0002:00010b60       ??_C@_0CE@CFDCHODF@true?5if?5symbol?5?$CIfunctor?5of?5arity@ 0043cb60     bpr:wam.obj
 0002:00010b84       ??_C@_04OKAKPICD@atom?$AA@ 0043cb84     bpr:wam.obj
 0002:00010b8c       ??_C@_0CC@NEBEAMHK@true?5if?5arg?5has?5no?5free?5variable@ 0043cb8c     bpr:wam.obj
 0002:00010bb0       ??_C@_06GODDAGJL@ground?$AA@ 0043cbb0     bpr:wam.obj
 0002:00010bb8       ??_C@_0HB@PEHMOGOA@G?3?5executes?5G?5and?5ensures?5that?5n@ 0043cbb8     bpr:wam.obj
 0002:00010c2c       ??_C@_07NCPIOOHK@gc_call?$AA@ 0043cc2c     bpr:wam.obj
 0002:00010c38       ??_C@_0FA@JHABNBLG@?$CIGX?0Xs?$CJ?3?5adds?5?$CIlast?$CJ?5output?5arg?5@ 0043cc38     bpr:wam.obj
 0002:00010c88       ??_C@_09JKEKNMLO@solutions?$AA@ 0043cc88     bpr:wam.obj
 0002:00010c98       ??_C@_0FA@MMMOPCLP@?$CIX?0G?$CJ?3?5X?5is?5an?5answer?5for?5G?0?5aft@ 0043cc98     bpr:wam.obj
 0002:00010ce8       ??_C@_09IFIIKIKJ@answer_of?$AA@ 0043cce8     bpr:wam.obj
 0002:00010cf4       ??_C@_0P@FDOOKEEP@numbervar_name?$AA@ 0043ccf4     bpr:wam.obj
 0002:00010d08       ??_C@_0ED@KPIHFHEJ@binds?5to?5$VAR?$CII?$CJ?5with?5I?5over?5dis@ 0043cd08     bpr:wam.obj
 0002:00010d4c       ??_C@_0L@IAFDKAEO@numbervars?$AA@ 0043cd4c     bpr:wam.obj
 0002:00010d58       ??_C@_0BK@DOIFMLJI@true?5if?5a?5digit?5char?5code?$AA@ 0043cd58     bpr:wam.obj
 0002:00010d74       ??_C@_06BCNIDBKD@is_num?$AA@ 0043cd74     bpr:wam.obj
 0002:00010d7c       ??_C@_0CE@MIDIBBOI@true?5if?5an?5alphanumerical?5char?5c@ 0043cd7c     bpr:wam.obj
 0002:00010da0       ??_C@_05POLBGCBL@is_an?$AA@ 0043cda0     bpr:wam.obj
 0002:00010da8       ??_C@_0BP@IOAFJMME@true?5if?5a?5lower?5case?5char?5code?$AA@ 0043cda8     bpr:wam.obj
 0002:00010dc8       ??_C@_06DOHMJHJK@is_min?$AA@ 0043cdc8     bpr:wam.obj
 0002:00010dd0       ??_C@_0CD@PMIEDCPG@true?5if?5is?5an?5upper?5case?5char?5co@ 0043cdd0     bpr:wam.obj
 0002:00010df4       ??_C@_06FEADADCG@is_maj?$AA@ 0043cdf4     bpr:wam.obj
 0002:00010dfc       ??_C@_0CE@LFJGDHLM@true?5if?5a?5terminator?5character?5c@ 0043cdfc     bpr:wam.obj
 0002:00010e20       ??_C@_0O@JLMNAKFJ@is_terminator?$AA@ 0043ce20     bpr:wam.obj
 0002:00010e30       ??_C@_0CB@BLLLEGLI@true?5if?5a?5spacial?5character?5code@ 0043ce30     bpr:wam.obj
 0002:00010e54       ??_C@_07KAKAOALO@is_spec?$AA@ 0043ce54     bpr:wam.obj
 0002:00010e60       ??_C@_0EC@GOBCODDE@?$CIT?0Cs?$CJ?3?5transforms?5T?0?5unless?5it?5@ 0043ce60     bpr:wam.obj
 0002:00010ea4       ??_C@_07HGNKGIJA@listify?$AA@ 0043cea4     bpr:wam.obj
 0002:00010eb0       ??_C@_0EL@KHJBNHCA@concatenates?5a?5list?5of?5elements?5@ 0043ceb0     bpr:wam.obj
 0002:00010efc       ??_C@_0BA@FKAMKGHH@make_spaced_cmd?$AA@ 0043cefc     bpr:wam.obj
 0002:00010f10       ??_C@_0EA@OMMEJBJE@concatenates?5a?5list?5of?5strings?5a@ 0043cf10     bpr:wam.obj
 0002:00010f50       ??_C@_08KLFNFNFG@make_cmd?$AA@ 0043cf50     bpr:wam.obj
 0002:00010f60       ??_C@_0EB@IGOMKFE@concatenates?5a?5list?5of?5strings?5a@ 0043cf60     bpr:wam.obj
 0002:00010fa4       ??_C@_09FNOFJPGP@make_cmd0?$AA@ 0043cfa4     bpr:wam.obj
 0002:00010fb0       ??_C@_0CD@JGANHBJG@generates?1mesures?5length?5of?5a?5li@ 0043cfb0     bpr:wam.obj
 0002:00010fd4       ??_C@_0CF@OCAMJDC@concatenates?5N?5lists?0?5usable?5in?5@ 0043cfd4     bpr:wam.obj
 0002:00010ffc       ??_C@_02ECNGHCIF@?$CL?$CL?$AA@ 0043cffc     bpr:wam.obj
 0002:00011000       ??_C@_0CJ@JBGBEFNN@?$CIHead?0Tail?0List?$CJ?5builds?5List?$DN?$FLHe@ 0043d000     bpr:wam.obj
 0002:0001102c       ??_C@_0L@PCODPCMJ@det_append?$AA@ 0043d02c     bpr:wam.obj
 0002:00011038       ??_C@_0ED@IOOKGMJN@like?5member?12?0?5for?5a?5comma?5separ@ 0043d038     bpr:wam.obj
 0002:0001107c       ??_C@_0M@DLHABCNO@member_conj?$AA@ 0043d07c     bpr:wam.obj
 0002:00011088       ??_C@_0CH@LOHEJKJE@?$CIX?0Xs?$CJ?5checks?5if?5an?5X?5is?5a?5the?5l@ 0043d088     bpr:wam.obj
 0002:000110b0       ??_C@_09ELCKGJFL@memberchk?$AA@ 0043d0b0     bpr:wam.obj
 0002:000110c0       ??_C@_0IJ@BMGPLEN@?$CIX?0Xs?$CJ?3?5checks?5if?5an?5element?5X?5u@ 0043d0c0     bpr:wam.obj
 0002:0001114c       ??_C@_0BO@MCFDPDFJ@concatenates?1decomposes?5lists?$AA@ 0043d14c     bpr:wam.obj
 0002:0001116c       ??_C@_06PCICMFGG@append?$AA@ 0043d16c     bpr:wam.obj
 0002:00011174       ??_C@_0BN@IIEMMLEN@generates?5all?5n?5args?5of?5term?$AA@ 0043d174     bpr:wam.obj
 0002:00011194       ??_C@_04OKFPKFIE@argn?$AA@ 0043d194     bpr:wam.obj
 0002:0001119c       ??_C@_0CJ@GCLDNHNK@generates?5an?5integer?5between?5Min@ 0043d19c     bpr:wam.obj
 0002:000111c8       ??_C@_07LDEGNPMJ@between?$AA@ 0043d1c8     bpr:wam.obj
 0002:000111d0       ??_C@_0CA@IKEFJLCN@generates?5an?5integer?5in?5a?5range?$AA@ 0043d1d0     bpr:wam.obj
 0002:000111f0       ??_C@_03JOHEBPFF@for?$AA@  0043d1f0     bpr:wam.obj
 0002:000111f4       ??_C@_0DD@NPNFPGCD@calls?5a?5Goal?5and?5warns?5if?5it?5was@ 0043d1f4     bpr:wam.obj
 0002:00011228       ??_C@_08LAAAFACI@det_call?$AA@ 0043d228     bpr:wam.obj
 0002:00011238       ??_C@_0EJ@BCFGLKPN@?$CIN?0X?0G?0Xs?$CJ?5findall?5variant?0?5comp@ 0043d238     bpr:wam.obj
 0002:00011284       ??_C@_0BB@PIMDGEDL@all_but_at_least?$AA@ 0043d284     bpr:wam.obj
 0002:00011298       ??_C@_0DP@IAFEOEO@?$CIN?0X?0G?0Xs?$CJ?5findall?5variant?0?5comp@ 0043d298     bpr:wam.obj
 0002:000112d8       ??_C@_0N@HKJOKNJJ@find_at_most?$AA@ 0043d2d8     bpr:wam.obj
 0002:000112e8       ??_C@_08PJDOHHP@has_fuel?$AA@ 0043d2e8     bpr:wam.obj
 0002:000112f4       ??_C@_0CM@DPDNFPPI@?$CIN?0Goal?$CJ?5drops?5at?5least?5N?5answer@ 0043d2f4     bpr:wam.obj
 0002:00011320       ??_C@_0O@ILGDGNNI@drop_at_least?$AA@ 0043d320     bpr:wam.obj
 0002:00011330       ??_C@_0CM@LHHBCENG@?$CIN?0Goal?$CJ?5computes?5at?5most?5N?5answ@ 0043d330     bpr:wam.obj
 0002:0001135c       ??_C@_0N@DGFMAPIK@take_at_most?$AA@ 0043d35c     bpr:wam.obj
 0002:00011370       ??_C@_0EG@BFGGFBHL@?$CIN?0Goal?$CJ?5returns?5only?5the?5nth?5an@ 0043d370     bpr:wam.obj
 0002:000113b8       ??_C@_0L@GHFCNOH@nth_answer?$AA@ 0043d3b8     bpr:wam.obj
 0002:000113c4       ??_C@_0L@LEHKEECB@find_while?$AA@ 0043d3c4     bpr:wam.obj
 0002:000113d0       ??_C@_09BCLMLCD@skip_when?$AA@ 0043d3d0     bpr:wam.obj
 0002:000113dc       ??_C@_0BA@HLHBIGOP@findall?5variant?$AA@ 0043d3dc     bpr:wam.obj
 0002:000113ec       ??_C@_0L@EEEMAMMG@skip_until?$AA@ 0043d3ec     bpr:wam.obj
 0002:000113f8       ??_C@_0FN@IKIPNNLI@?$CICond?0Goal?$CJ?3?5findall?5variant?5whi@ 0043d3f8     bpr:wam.obj
 0002:00011458       ??_C@_05OODBEKIG@while?$AA@ 0043d458     bpr:wam.obj
 0002:00011460       ??_C@_0GP@HEBFDHBF@?$CIX?0G?0Xs?$CJ?3?5like?5findall?13?0?5but?5su@ 0043d460     bpr:wam.obj
 0002:000114d0       ??_C@_0M@FFDADCEG@all_answers?$AA@ 0043d4d0     bpr:wam.obj
 0002:000114e0       ??_C@_0EK@GMMCHOB@qfindall?$CIX?0G?0Xs?0Ys?$CJ?3?5queues?5base@ 0043d4e0     bpr:wam.obj
 0002:0001152c       ??_C@_08KDNHKFOD@qfindall?$AA@ 0043d52c     bpr:wam.obj
 0002:00011538       ??_C@_0EJ@JDFIFNAF@findall?$CIX?0G?0Xs?0Ys?$CJ?5appends?5the?5l@ 0043d538     bpr:wam.obj
 0002:00011584       ??_C@_06HDFDANIG@member?$AA@ 0043d584     bpr:wam.obj
 0002:00011590       ??_C@_0IK@MCHJGMMP@findall?$CIX?0G?0Xs?$CJ?5collects?5copies?5@ 0043d590     bpr:wam.obj
 0002:0001161c       ??_C@_07MHCELJLC@findall?$AA@ 0043d61c     bpr:wam.obj
 0002:00011624       ??_C@_0BL@NENAKCBC@true?5if?5args?5fail?5to?5unify?$AA@ 0043d624     bpr:wam.obj
 0002:00011640       ??_C@_02PPALJIH@?2?$DN?$AA@ 0043d640     bpr:wam.obj
 0002:00011644       ??_C@_0CP@PCBGNDDJ@succeeds?5if?5its?5argument?5is?5exec@ 0043d644     bpr:wam.obj
 0002:00011674       ??_C@_02BDGIAMFA@?2?$CL?$AA@ 0043d674     bpr:wam.obj
 0002:00011678       ??_C@_0DN@NHIKLJLE@foreach?$CIA?0B?$CJ?5fails?5for?5all?5cases@ 0043d678     bpr:wam.obj
 0002:000116b8       ??_C@_07GBBMHPP@for_all?$AA@ 0043d6b8     bpr:wam.obj
 0002:000116c0       ??_C@_0DL@ECFBINIF@forall?$CIG?0D?$CJ?5executes?5D?5once?5for?5@ 0043d6c0     bpr:wam.obj
 0002:000116fc       ??_C@_0DI@OLLONPGM@forall?$CIG?$CJ?5backtracks?5over?5all?5an@ 0043d6fc     bpr:wam.obj
 0002:00011734       ??_C@_06PLFKNBPH@forall?$AA@ 0043d734     bpr:wam.obj
 0002:0001173c       ??_C@_0DM@FDNFBBIK@foreach?$CIG?0D?$CJ?5executes?5D?5once?5for@ 0043d73c     bpr:wam.obj
 0002:00011778       ??_C@_0DJ@OKLNMDDP@foreach?$CIG?$CJ?5backtracks?5over?5all?5a@ 0043d778     bpr:wam.obj
 0002:000117b4       ??_C@_07ICLAOFOB@foreach?$AA@ 0043d7b4     bpr:wam.obj
 0002:000117c0       ??_C@_0FA@PNBBGIMA@backtracks?5until?5its?5continuatio@ 0043d7c0     bpr:wam.obj
 0002:00011810       ??_C@_06LGDBIFHB@repeat?$AA@ 0043d810     bpr:wam.obj
 0002:00011818       ??_C@_0DK@JNOFFJEI@A?0B?5succeeds?5if?5A?5suceeds?5and?5B?0@ 0043d818     bpr:wam.obj
 0002:00011854       ??_C@_01IHBHIGKO@?0?$AA@   0043d854     bpr:wam.obj
 0002:00011858       ??_C@_0DK@GOMBBFM@A?$DLB?5succeeds?5if?5A?5succeeds?5or?5B?0@ 0043d858     bpr:wam.obj
 0002:00011894       ??_C@_01ICJEACDI@?$DL?$AA@ 0043d894     bpr:wam.obj
 0002:00011898       ??_C@_0HM@DOEPKNLA@?$CICond?0Then?0Else?$CJ?3?5executes?5Cond?$DL@ 0043d898     bpr:wam.obj
 0002:00011914       ??_C@_06CHHNCJBJ@if_any?$AA@ 0043d914     bpr:wam.obj
 0002:00011920       ??_C@_0EE@CJKIMDEE@Cond?9?$DOThen?5executes?5Cond?5once?$DL?5i@ 0043d920     bpr:wam.obj
 0002:00011964       ??_C@_02HBOOOICD@?9?$DO?$AA@ 0043d964     bpr:wam.obj
 0002:00011968       ??_C@_0HI@JAHOCDIN@?$CIX?0Y?$CJ?5true?5if?5?$CIpossibly?5cyclic?$CJ?5@ 0043d968     bpr:wam.obj
 0002:000119e0       ??_C@_0EG@JIPMNMBF@can?5be?5used?5to?5define?5a?5hook?5int@ 0043d9e0     bpr:wam.obj
 0002:00011a28       ??_C@_0DA@DJFKBNNE@expands?5a?5term?5according?5to?5DCG?5@ 0043da28     bpr:wam.obj
 0002:00011a58       ??_C@_0M@NKHAJPG@expand_term?$AA@ 0043da58     bpr:wam.obj
 0002:00011a64       ??_C@_0CD@BOALDCNH@?$CIList?0?5?$DPResult?$CJ?3?5product?5of?5a?5li@ 0043da64     bpr:wam.obj
 0002:00011a88       ??_C@_04EDCDKCIE@prod?$AA@ 0043da88     bpr:wam.obj
 0002:00011a90       ??_C@_0BO@MFPOAACK@?$CIList?0?$DPResult?$CJ?3?5sum?5of?5a?5list?$AA@ 0043da90     bpr:wam.obj
 0002:00011ab0       ??_C@_03CFFIJAMA@sum?$AA@  0043dab0     bpr:wam.obj
 0002:00011ab4       ??_C@_05KINFGCLE@foldr?$AA@ 0043dab4     bpr:wam.obj
 0002:00011ac0       ??_C@_0FG@OMHEBPMJ@?$CIOp?0InitialValue?0List?0?$DPResult?$CJ?5a@ 0043dac0     bpr:wam.obj
 0002:00011b18       ??_C@_05HMJEFNGL@foldl?$AA@ 0043db18     bpr:wam.obj
 0002:00011b20       ??_C@_07PANIJHFC@maplist?$AA@ 0043db20     bpr:wam.obj
 0002:00011b28       ??_C@_0CH@PJBMMNBM@maps?5a?5predicate?5with?52?5args?5to?5@ 0043db28     bpr:wam.obj
 0002:00011b50       ??_C@_07BKGNKEBM@println?$AA@ 0043db50     bpr:wam.obj
 0002:00011b58       ??_C@_0CG@IGGMLBKO@maps?5a?5predicate?5with?51?5arg?5to?5a@ 0043db58     bpr:wam.obj
 0002:00011b80       ??_C@_03HBNNNHNM@map?$AA@  0043db80     bpr:wam.obj
 0002:00011b84       ??_C@_0CE@EGLKDIFN@executes?5once?0?5with?5no?5backtrack@ 0043db84     bpr:wam.obj
 0002:00011ba8       ??_C@_04KLFNICNF@once?$AA@ 0043dba8     bpr:wam.obj
 0002:00011bb0       ??_C@_0BD@MKMPAOEF@safe_override_call?$AA@ 0043dbb0     bpr:wam.obj
 0002:00011bc4       ??_C@_0O@FPKFHAPL@override_call?$AA@ 0043dbc4     bpr:wam.obj
 0002:00011bd4       ??_C@_0BJ@LKFBPFNC@efficient?5call?1N?5variant?$AA@ 0043dbd4     bpr:wam.obj
 0002:00011bf0       ??_C@_0CO@ODEPHOFC@calls?5the?5interpreter?5on?5current@ 0043dbf0     bpr:wam.obj
 0002:00011c20       ??_C@_0DP@LHIPCIDM@?$CIGoal?$CJ?3?5defines?5handler?5for?5unde@ 0043dc20     bpr:wam.obj
 0002:00011c60       ??_C@_0N@CEDICHCI@on_undefined?$AA@ 0043dc60     bpr:wam.obj
 0002:00011c70       ??_C@_0BG@GLDEGEDB@calls?5the?5interpreter?$AA@ 0043dc70     bpr:wam.obj
 0002:00011c88       ??_C@_0CO@PONCFMKD@call?5binary?5predicate?5with?5given@ 0043dc88     bpr:wam.obj
 0002:00011cb8       ??_C@_07PBEOGLFI@bincall?$AA@ 0043dcb8     bpr:wam.obj
 0002:00011cc0       ??_C@_0M@BLCGINLL@def_to_mbin?$AA@ 0043dcc0     bpr:wam.obj
 0002:00011cd0       ??_C@_0ED@FNMEAHKL@toggles?5interactive?5query?5answer@ 0043dcd0     bpr:wam.obj
 0002:00011d14       ??_C@_0M@JFHLOKPA@interactive?$AA@ 0043dd14     bpr:wam.obj
 0002:00011d20       ??_C@_0BK@GHBMPNIC@short?5hand?5for?5statistics?$AA@ 0043dd20     bpr:wam.obj
 0002:00011d3c       ??_C@_04GBLELIND@stat?$AA@ 0043dd3c     bpr:wam.obj
 0002:00011d44       ??_C@_0BM@DEGJEOAI@shows?5info?5about?5data?5areas?$AA@ 0043dd44     bpr:wam.obj
 0002:00011d60       ??_C@_07PAMDBACI@member3?$AA@ 0043dd60     bpr:wam.obj
 0002:00011d68       ??_C@_0N@KAJMBPJG@proto_member?$AA@ 0043dd68     bpr:wam.obj
 0002:00011d78       ??_C@_0N@CBENNHHG@proto_append?$AA@ 0043dd78     bpr:wam.obj
 0002:00011d88       ??_C@_0EI@PPFJLGNA@executes?5arg?51?5at?5compile?5time?5?9@ 0043dd88     bpr:wam.obj
 0002:00011dd0       ??_C@_02IEBMKJDF@?$CD?$CD?$AA@ 0043ddd0     bpr:wam.obj
 0002:00011dd8       ??_C@_0EC@MEFEMOPL@variant?5of?5?3?9?5for?5hand?5transform@ 0043ddd8     bpr:wam.obj
 0002:00011e1c       ??_C@_03EIPLACIP@?3?3?9?$AA@ 0043de1c     bpr:wam.obj
 0002:00011e20       ??_C@_0GF@ODKOFBFD@called?5univ?5?9this?5is?5bidirection@ 0043de20     bpr:wam.obj
 0002:00011e88       ??_C@_03OFCOGCFJ@?$DN?4?4?$AA@ 0043de88     bpr:wam.obj
 0002:00011e90       ??_C@_0EB@DFMCAIJD@generates?5readable?5binarized?5for@ 0043de90     bpr:wam.obj
 0002:00011ed8       ??_C@_0FI@LHDPCPGC@shows?5transformations?5and?5readab@ 0043ded8     bpr:wam.obj
 0002:00011f30       ??_C@_03NLMFHDGG@asm?$AA@  0043df30     bpr:wam.obj
 0002:00011f34       ??_C@_07GHNEIGIA@termcat?$AA@ 0043df34     bpr:wam.obj
 0002:00011f3c       ??_C@_02HEBPBKGD@if?$AA@   0043df3c     bpr:wam.obj
 0002:00011f40       ??_C@_02FODMLBIE@or?$AA@   0043df40     bpr:wam.obj
 0002:00011f44       ??_C@_0BA@NFKCNJEK@get_a_predicate?$AA@ 0043df44     bpr:wam.obj
 0002:00011f54       ??_C@_0O@PMFALGLM@translate_all?$AA@ 0043df54     bpr:wam.obj
 0002:00011f64       ??_C@_0O@MLFMKOKN@mcompile_file?$AA@ 0043df64     bpr:wam.obj
 0002:00011f74       ??_C@_0O@GGHFMHEB@scompile_file?$AA@ 0043df74     bpr:wam.obj
 0002:00011f84       ??_C@_0O@IEGEJFEA@fcompile_file?$AA@ 0043df84     bpr:wam.obj
 0002:00011f94       ??_C@_09MDAPNIDB@load_file?$AA@ 0043df94     bpr:wam.obj
 0002:00011fa0       ??_C@_0P@GKNPNOOL@terminate_file?$AA@ 0043dfa0     bpr:wam.obj
 0002:00011fb0       ??_C@_0P@BEMHDLIE@terminate_load?$AA@ 0043dfb0     bpr:wam.obj
 0002:00011fc0       ??_C@_08OPJAHNIL@consult0?$AA@ 0043dfc0     bpr:wam.obj
 0002:00011fcc       ??_C@_0BB@CONCIFHL@consult_included?$AA@ 0043dfcc     bpr:wam.obj
 0002:00011fe0       ??_C@_0FA@JIALMJCB@file_cmd_hook?$CICmd?0Db?$CJ?3?5allows?5de@ 0043dfe0     bpr:wam.obj
 0002:00012030       ??_C@_0O@DEFNGLFA@file_cmd_hook?$AA@ 0043e030     bpr:wam.obj
 0002:00012040       ??_C@_0M@PEJBCONA@consult_cmd?$AA@ 0043e040     bpr:wam.obj
 0002:0001204c       ??_C@_0DJ@ILKDHOPB@sets?5line?5number?5counter?5in?5curr@ 0043e04c     bpr:wam.obj
 0002:00012088       ??_C@_0L@MAEOBDK@set_lineno?$AA@ 0043e088     bpr:wam.obj
 0002:00012094       ??_C@_0CJ@GLKINPCD@gets?5line?5number?5counter?5in?5curr@ 0043e094     bpr:wam.obj
 0002:000120c0       ??_C@_0L@BCCLFGHD@get_lineno?$AA@ 0043e0c0     bpr:wam.obj
 0002:000120d0       ??_C@_0FI@FNDFDEOJ@?$CIChars?0Clause?0VarsInClause?$CJ?3?5bac@ 0043e0d0     bpr:wam.obj
 0002:00012128       ??_C@_0EL@JMMMIKCK@?$CIChars?0Clause?$CJ?3?5backtracks?5over?5@ 0043e128     bpr:wam.obj
 0002:00012174       ??_C@_0BG@POFPJDJM@read_terms_from_chars?$AA@ 0043e174     bpr:wam.obj
 0002:00012190       ??_C@_0FD@JGOHOKFC@?$CIDb?0Cs?$CJ?5asserts?5to?5database?5Db?0?5@ 0043e190     bpr:wam.obj
 0002:000121e4       ??_C@_0DA@FAHJMBMI@asserts?5a?5program?5from?5clauses?5i@ 0043e1e4     bpr:wam.obj
 0002:00012214       ??_C@_0BC@LPEMKPHK@assert_from_chars?$AA@ 0043e214     bpr:wam.obj
 0002:00012228       ??_C@_0BJ@NNMPINPI@short?5hand?5for?5reconsult?$AA@ 0043e228     bpr:wam.obj
 0002:00012244       ??_C@_01PJKLJHI@?$HO?$AA@  0043e244     bpr:wam.obj
 0002:00012248       ??_C@_0IM@CKHMEAGB@applies?5current?5consult?5method?5t@ 0043e248     bpr:wam.obj
 0002:000122d4       ??_C@_0CI@PPNJKJME@consult?$CIFile?0DB?$CJ?5consults?5File?5i@ 0043e2d4     bpr:wam.obj
 0002:00012300       ??_C@_0GK@MLFMJBN@consults?5with?5possible?5duplicati@ 0043e300     bpr:wam.obj
 0002:0001236c       ??_C@_07GDLEJBOP@consult?$AA@ 0043e36c     bpr:wam.obj
 0002:00012374       ??_C@_05GFCDIDHO@debug?$AA@ 0043e374     bpr:wam.obj
 0002:0001237c       ??_C@_0CO@EOHNHNDG@compiles?5a?5?$CK?4pl?5file?5to?5a?5?$CK?4wam?5@ 0043e37c     bpr:wam.obj
 0002:000123ac       ??_C@_08EHMEGBEP@fcompile?$AA@ 0043e3ac     bpr:wam.obj
 0002:000123b8       ??_C@_0CH@OJLHGNHE@clean?5loads?5from?5a?5bytecode?5?$CK?4wa@ 0043e3b8     bpr:wam.obj
 0002:000123e0       ??_C@_04EONOHKEP@load?$AA@ 0043e3e0     bpr:wam.obj
 0002:000123e8       ??_C@_0DF@LOCLBKGH@applies?5current?5compilation?5meth@ 0043e3e8     bpr:wam.obj
 0002:00012420       ??_C@_0HE@HLFPFKDH@compile?11?5variant?3?5compiles?5a?5fi@ 0043e420     bpr:wam.obj
 0002:00012494       ??_C@_08IPGFEOPH@qcompile?$AA@ 0043e494     bpr:wam.obj
 0002:000124a0       ??_C@_0DP@GFIEKDJP@compile?11?5variant?3?5cleans?5up?5dat@ 0043e4a0     bpr:wam.obj
 0002:000124e0       ??_C@_0FH@IOJANIKC@smart?5compile?11?5variant?3?5if?5the?5@ 0043e4e0     bpr:wam.obj
 0002:00012538       ??_C@_08KBJDGGHB@scompile?$AA@ 0043e538     bpr:wam.obj
 0002:00012548       ??_C@_0FE@PPNFMKBG@reconsult?11?5variant?3?5consults?1co@ 0043e548     bpr:wam.obj
 0002:0001259c       ??_C@_08GDEFBEFN@oconsult?$AA@ 0043e59c     bpr:wam.obj
 0002:000125a8       ??_C@_0EF@IFDDDKHH@reconsult?11?5variant?3?5cleans?5up?5d@ 0043e5a8     bpr:wam.obj
 0002:000125f0       ??_C@_08CJLBKFDI@sconsult?$AA@ 0043e5f0     bpr:wam.obj
 0002:00012600       ??_C@_0FB@KCNILIAB@reconsult?11?5variant?3?5cleans?5up?5d@ 0043e600     bpr:wam.obj
 0002:00012654       ??_C@_0CF@HKNBJHJA@gets?5the?5current?5load?5method?5by?5@ 0043e654     bpr:wam.obj
 0002:0001267c       ??_C@_0BA@CECGPBEA@get_load_method?$AA@ 0043e67c     bpr:wam.obj
 0002:0001268c       ??_C@_0CF@HGLOJNJC@sets?5the?5current?5load?5method?5by?5@ 0043e68c     bpr:wam.obj
 0002:000126b4       ??_C@_0BA@BGDAIDFJ@set_load_method?$AA@ 0043e6b4     bpr:wam.obj
 0002:000126c4       ??_C@_0BD@OIAMIKAE@args?3?5Number?0?5Name?$AA@ 0043e6c4     bpr:wam.obj
 0002:000126d8       ??_C@_0GH@LFMOMJL@includes?1loads?5a?5file?5with?5curre@ 0043e6d8     bpr:wam.obj
 0002:00012740       ??_C@_07FHOHOHLG@include?$AA@ 0043e740     bpr:wam.obj
 0002:00012748       ??_C@_0EG@KGLPEFCJ@adds?5a?5term?5to?5the?5blackboard?0?5u@ 0043e748     bpr:wam.obj
 0002:00012790       ??_C@_04JNGDPEGD@cout?$AA@ 0043e790     bpr:wam.obj
 0002:00012798       ??_C@_0DF@CFEBKFI@tries?5to?5get?5and?5remove?5a?5term?5f@ 0043e798     bpr:wam.obj
 0002:000127d0       ??_C@_03ELFAMOII@cin?$AA@  0043e7d0     bpr:wam.obj
 0002:000127d4       ??_C@_0DC@NGPCKGJP@reads?5a?5term?5matching?5arg?51?5from@ 0043e7d4     bpr:wam.obj
 0002:00012808       ??_C@_02FGFKDEHA@rd?$AA@   0043e808     bpr:wam.obj
 0002:00012810       ??_C@_0EF@KFPJDJHA@gets?5a?5selection?5arg?51?5of?5terms?5@ 0043e810     bpr:wam.obj
 0002:00012858       ??_C@_0DM@KDOPLNDC@gets?5the?5list?5of?5terms?5matching?5@ 0043e858     bpr:wam.obj
 0002:00012894       ??_C@_03NFKEKGGK@all?$AA@  0043e894     bpr:wam.obj
 0002:00012898       ??_C@_0CN@CIPCIOJB@waits?5to?5remove?5a?5term?5from?5Lind@ 0043e898     bpr:wam.obj
 0002:000128c8       ??_C@_02LMMGJAGL@in?$AA@   0043e8c8     bpr:wam.obj
 0002:000128d0       ??_C@_0FL@IKGHHJBO@puts?5a?5term?5on?5Linda?5server?5or?5t@ 0043e8d0     bpr:wam.obj
 0002:0001292c       ??_C@_03KEJHNBPP@out?$AA@  0043e92c     bpr:wam.obj
 0002:00012930       ??_C@_0EM@NBPNDHBE@all_for?$CIX?0Xs?$CJ?5collects?5all?5const@ 0043e930     bpr:wam.obj
 0002:0001297c       ??_C@_07EPDAAOKP@all_for?$AA@ 0043e97c     bpr:wam.obj
 0002:00012988       ??_C@_0GE@MKLBEJJK@notifies?5a?5suspended?5matching?5wa@ 0043e988     bpr:wam.obj
 0002:000129ec       ??_C@_0N@CONMHACE@notify_about?$AA@ 0043e9ec     bpr:wam.obj
 0002:00012a00       ??_C@_0FJ@ECDGFOAH@wait_for?$CITerm?0Constraint?$CJ?5waits?5@ 0043ea00     bpr:wam.obj
 0002:00012a5c       ??_C@_08OFGEMECF@wait_for?$AA@ 0043ea5c     bpr:wam.obj
 0002:00012a68       ??_C@_0EA@LDOBFPOI@local_all?$CIX?0Xs?$CJ?5collects?5all?5fac@ 0043ea68     bpr:wam.obj
 0002:00012aa8       ??_C@_0EB@LCBMEIPG@local_all?$CIX?0G?0Xs?$CJ?5collects?5facts@ 0043eaa8     bpr:wam.obj
 0002:00012aec       ??_C@_09OJLLMMLJ@local_all?$AA@ 0043eaec     bpr:wam.obj
 0002:00012af8       ??_C@_0DE@POPAFMPB@removes?5a?5term?5if?5available?5on?5t@ 0043eaf8     bpr:wam.obj
 0002:00012b2c       ??_C@_09HHEPKEFL@local_cin?$AA@ 0043eb2c     bpr:wam.obj
 0002:00012b38       ??_C@_0DI@FFHDFEHP@waits?5until?5a?5term?5is?5available?5@ 0043eb38     bpr:wam.obj
 0002:00012b70       ??_C@_0L@CGDJDIDH@local_when?$AA@ 0043eb70     bpr:wam.obj
 0002:00012b7c       ??_C@_0DF@KEDLKMEH@tests?5if?5a?5term?5is?5available?5on?5@ 0043eb7c     bpr:wam.obj
 0002:00012bb4       ??_C@_08EKNEDGFE@local_rd?$AA@ 0043ebb4     bpr:wam.obj
 0002:00012bc0       ??_C@_0DE@KHAOPOIP@waits?5for?5a?5term?5produced?5by?5a?5m@ 0043ebc0     bpr:wam.obj
 0002:00012bf4       ??_C@_08KAEIJCEP@local_in?$AA@ 0043ebf4     bpr:wam.obj
 0002:00012c00       ??_C@_0DE@DPPFGED@puts?5a?5term?5on?5local?5blackbord?5u@ 0043ec00     bpr:wam.obj
 0002:00012c34       ??_C@_0L@ICIFGIGH@local_cout?$AA@ 0043ec34     bpr:wam.obj
 0002:00012c40       ??_C@_0EK@JGPMFFHL@produces?5a?5term?5and?5possibly?5wak@ 0043ec40     bpr:wam.obj
 0002:00012c8c       ??_C@_09JIIILLCM@local_out?$AA@ 0043ec8c     bpr:wam.obj
 0002:00012c98       ??_C@_0CJ@MLJDLMOK@gives?5back?5to?5pool?5thread?5guard?5@ 0043ec98     bpr:wam.obj
 0002:00012cc4       ??_C@_0BC@HMOPJGPN@free_thread_guard?$AA@ 0043ecc4     bpr:wam.obj
 0002:00012cd8       ??_C@_0CK@JAPIPKHG@returns?5a?5new?5free?5thread?5guard?5@ 0043ecd8     bpr:wam.obj
 0002:00012d04       ??_C@_0BB@FFABADCK@new_thread_guard?$AA@ 0043ed04     bpr:wam.obj
 0002:00012d18       ??_C@_0CJ@JPIJEFIJ@emits?5mt?9safe?5synchronized?5debug@ 0043ed18     bpr:wam.obj
 0002:00012d44       ??_C@_06JEANDHBF@sdebug?$AA@ 0043ed44     bpr:wam.obj
 0002:00012d4c       ??_C@_0CN@MGHBBAJK@wraps?5Goal?5in?5arg?51?5for?5serializ@ 0043ed4c     bpr:wam.obj
 0002:00012d7c       ??_C@_0DN@MAAFFDPD@wraps?5Goal?5for?5serialized?5execut@ 0043ed7c     bpr:wam.obj
 0002:00012dbc       ??_C@_0M@FIMKELAC@synchronize?$AA@ 0043edbc     bpr:wam.obj
 0002:00012dc8       ??_C@_0DM@GLJKHDCE@wraps?5Goal?5for?5sync?5on?5given?5mut@ 0043edc8     bpr:wam.obj
 0002:00012e08       ??_C@_0FF@GELJJELO@wraps?5Goal?5for?5sync?5on?5given?5mut@ 0043ee08     bpr:wam.obj
 0002:00012e60       ??_C@_0P@EACDLMJG@synchronize_on?$AA@ 0043ee60     bpr:wam.obj
 0002:00012e70       ??_C@_0EA@NNOJKFDC@?$CIGuard?0Data?$CJ?3?5accesses?5mutex?5Gua@ 0043ee70     bpr:wam.obj
 0002:00012eb0       ??_C@_0N@NPECHNH@get_critical?$AA@ 0043eeb0     bpr:wam.obj
 0002:00012ec0       ??_C@_0DP@PHLNAGPF@?$CIGuard?0Data?$CJ?3?5updates?5mutex?5Guar@ 0043eec0     bpr:wam.obj
 0002:00012f00       ??_C@_0N@MIJIGKKJ@put_critical?$AA@ 0043ef00     bpr:wam.obj
 0002:00012f10       ??_C@_0DC@LOAMNEJA@ends?5serialized?5execution?5?9?5exit@ 0043ef10     bpr:wam.obj
 0002:00012f44       ??_C@_0N@LCMMPCFJ@end_critical?$AA@ 0043ef44     bpr:wam.obj
 0002:00012f54       ??_C@_0DE@KHEAGKLG@begin?5serialized?5execution?5?9?5ent@ 0043ef54     bpr:wam.obj
 0002:00012f88       ??_C@_0P@HOMGKGEK@begin_critical?$AA@ 0043ef88     bpr:wam.obj
 0002:00012f98       ??_C@_0FE@GNKALGEN@runs?5Goal?5in?5background?5thread?5?9@ 0043ef98     bpr:wam.obj
 0002:00012ff0       ??_C@_0EF@DHBJDHIB@runs?5Goal?5in?5new?5background?5thre@ 0043eff0     bpr:wam.obj
 0002:00013038       ??_C@_0EN@JAFOHCCH@bg?$CIGoal?0Thread?0EngineAddr?$CJ?3?5runs@ 0043f038     bpr:wam.obj
 0002:00013088       ??_C@_0GC@JDBPJHDP@bg?$CIGoal?0Thread?0EngineAddr?0Engine@ 0043f088     bpr:wam.obj
 0002:000130f0       ??_C@_0GM@IFOPECEO@bg?$CIGoal?0H?0S?0T?0?9Thread?0?9EngineAdd@ 0043f0f0     bpr:wam.obj
 0002:0001315c       ??_C@_02GBFBMEMD@bg?$AA@   0043f15c     bpr:wam.obj
 0002:00013160       ??_C@_0DJ@OENDHLGK@gets?5from?5the?5current?5Engine?5the@ 0043f160     bpr:wam.obj
 0002:0001319c       ??_C@_0BG@IFFLDCCB@current_engine_thread?$AA@ 0043f19c     bpr:wam.obj
 0002:000131b4       ??_C@_0DA@JDHPIKB@gets?5from?5an?5Engine?5the?5thread?5i@ 0043f1b4     bpr:wam.obj
 0002:000131e4       ??_C@_0BC@CNAGFIMC@get_engine_thread?$AA@ 0043f1e4     bpr:wam.obj
 0002:000131f8       ??_C@_0BN@HBJADHIO@suspends?5execution?5of?5thread?$AA@ 0043f1f8     bpr:wam.obj
 0002:00013218       ??_C@_0P@DCKHNKKN@thread_suspend?$AA@ 0043f218     bpr:wam.obj
 0002:00013228       ??_C@_0CG@JMBFBHEH@resumes?5execution?5of?5suspended?5t@ 0043f228     bpr:wam.obj
 0002:00013250       ??_C@_0O@EKPBJKAD@thread_resume?$AA@ 0043f250     bpr:wam.obj
 0002:00013260       ??_C@_0CL@JFDLBHFO@terminates?5?$CIcancels?$CJ?5thread?5give@ 0043f260     bpr:wam.obj
 0002:0001328c       ??_C@_0O@CCBKPOOO@thread_cancel?$AA@ 0043f28c     bpr:wam.obj
 0002:0001329c       ??_C@_0DL@HMHFEHPH@waits?5on?5first?5arg?5Guard?5second?5@ 0043f29c     bpr:wam.obj
 0002:000132d8       ??_C@_0BC@GHOLOJED@thread_timed_wait?$AA@ 0043f2d8     bpr:wam.obj
 0002:000132ec       ??_C@_0DH@EKJLNJLD@notifies?5all?5threads?5waiting?5on?5@ 0043f2ec     bpr:wam.obj
 0002:00013324       ??_C@_0BC@ECGLCNFL@thread_notify_all?$AA@ 0043f324     bpr:wam.obj
 0002:00013338       ??_C@_0DE@GNMPGAO@notifies?5a?5thread?5waiting?5on?5gua@ 0043f338     bpr:wam.obj
 0002:0001336c       ??_C@_0O@JNJMJFE@thread_notify?$AA@ 0043f36c     bpr:wam.obj
 0002:0001337c       ??_C@_0CP@OGJIGCFP@waits?5on?5guard?5until?5notified?5by@ 0043f37c     bpr:wam.obj
 0002:000133ac       ??_C@_0M@PHGEPHDN@thread_wait?$AA@ 0043f3ac     bpr:wam.obj
 0002:000133b8       ??_C@_0DF@OACMOAFD@try?5to?5unlock?5a?5thread?5guard?5for@ 0043f3b8     bpr:wam.obj
 0002:000133f0       ??_C@_0BN@POOADCML@try?5to?5unlock?5a?5thread?5guard?$AA@ 0043f3f0     bpr:wam.obj
 0002:00013410       ??_C@_0BI@JJPFNGHK@try_unlock_thread_guard?$AA@ 0043f410     bpr:wam.obj
 0002:00013428       ??_C@_0BF@MKJCAAEO@unlocks?5thread?5guard?$AA@ 0043f428     bpr:wam.obj
 0002:00013440       ??_C@_0BE@KGBAELMB@unlock_thread_guard?$AA@ 0043f440     bpr:wam.obj
 0002:00013454       ??_C@_0DB@GOCFNFOB@locks?5thread?5guard?5created?5with?5@ 0043f454     bpr:wam.obj
 0002:00013488       ??_C@_0BC@NFGHBIIM@lock_thread_guard?$AA@ 0043f488     bpr:wam.obj
 0002:0001349c       ??_C@_0CP@DCCPABHK@succeeds?5if?5threads?5available?5on@ 0043f49c     bpr:wam.obj
 0002:000134cc       ??_C@_0M@MEJGMKBC@has_threads?$AA@ 0043f4cc     bpr:wam.obj
 0002:000134d8       ??_C@_0CF@HALPLBFM@frees?5resources?5used?5by?5dead?5eng@ 0043f4d8     bpr:wam.obj
 0002:00013500       ??_C@_0BG@KJJCALGG@clean_up_dead_engines?$AA@ 0043f500     bpr:wam.obj
 0002:00013518       ??_C@_0DA@HOBGKEDM@frees?5resources?5used?5by?5all?5engi@ 0043f518     bpr:wam.obj
 0002:00013548       ??_C@_0BD@FNCIHKHB@internal?5predicate?$AA@ 0043f548     bpr:wam.obj
 0002:0001355c       ??_C@_0BB@NFOMDPNK@clean_up_engines?$AA@ 0043f55c     bpr:wam.obj
 0002:00013570       ??_C@_0CG@BGLAAKAF@prints?5out?5the?5list?5of?5active?5en@ 0043f570     bpr:wam.obj
 0002:00013598       ??_C@_0EH@MKNNNLIJ@if?5debugmes?11?5is?5on?5?$CIas?5with?5qui@ 0043f598     bpr:wam.obj
 0002:000135e0       ??_C@_0M@NJEOGKBG@show_engine?$AA@ 0043f5e0     bpr:wam.obj
 0002:000135f0       ??_C@_0EM@MGMMBCLH@?$CIEngine?0Answer?3?5backtracks?5over?5@ 0043f5f0     bpr:wam.obj
 0002:0001363c       ??_C@_0L@CHFKPFLJ@element_of?$AA@ 0043f63c     bpr:wam.obj
 0002:00013648       ??_C@_0FO@FOPLFHDC@?$CIT?$CJ?5tries?5to?5take?5a?5term?5T?5from?5@ 0043f648     bpr:wam.obj
 0002:000136a8       ??_C@_0M@DIECKEFK@from_engine?$AA@ 0043f6a8     bpr:wam.obj
 0002:000136b8       ??_C@_0EK@FBCBODLK@?$CIE?0T?$CJ?5sends?5to?5engine?5E?5a?5term?5T@ 0043f6b8     bpr:wam.obj
 0002:00013704       ??_C@_09DAIEHKAA@to_engine?$AA@ 0043f704     bpr:wam.obj
 0002:00013710       ??_C@_0CE@NCKLHMFF@gets?5a?5handle?5to?5the?5current?5eng@ 0043f710     bpr:wam.obj
 0002:00013734       ??_C@_0M@PNCEKCNC@this_engine?$AA@ 0043f734     bpr:wam.obj
 0002:00013740       ??_C@_0HO@BOCBNNAE@returns?5data?5from?5an?5engine?5as?5i@ 0043f740     bpr:wam.obj
 0002:000137c0       ??_C@_06LNOFJDNM@return?$AA@ 0043f7c0     bpr:wam.obj
 0002:000137c8       ??_C@_0FJ@KJKPAAOC@stops?5and?5frees?5resources?5held?5b@ 0043f7c8     bpr:wam.obj
 0002:00013824       ??_C@_04PEGFANN@stop?$AA@  0043f824     bpr:wam.obj
 0002:00013830       ??_C@_0GA@ECMPBJA@get?$CIE?0A?$CJ?5returns?5a?5new?5answer?5A?$DN@ 0043f830     bpr:wam.obj
 0002:00013890       ??_C@_03HNAFFKGA@get?$AA@  0043f890     bpr:wam.obj
 0002:00013898       ??_C@_0EK@KDHDNLNC@reuse_engine?$CIX?0G?0E?$CJ?5initializes?5@ 0043f898     bpr:wam.obj
 0002:000138e4       ??_C@_0N@EOKEOJHF@reuse_engine?$AA@ 0043f8e4     bpr:wam.obj
 0002:000138f8       ??_C@_0EM@CIAHEBEM@new_engine?$CIX?0G?0E?$CJ?5creates?5an?5eng@ 0043f8f8     bpr:wam.obj
 0002:00013944       ??_C@_0L@GFFPBEBL@new_engine?$AA@ 0043f944     bpr:wam.obj
 0002:00013950       ??_C@_0EN@OKAJMLMJ@open_engine?$CIG?0X?0E?$CJ?5creates?5an?5en@ 0043f950     bpr:wam.obj
 0002:000139a0       ??_C@_0M@NDCIILAG@open_engine?$AA@ 0043f9a0     bpr:wam.obj
 0002:000139ac       ??_C@_0CM@MNMKCAIE@creates?5an?5engine?5as?5big?5as?5the?5@ 0043f9ac     bpr:wam.obj
 0002:000139d8       ??_C@_0BC@MCCLHPMI@create_new_engine?$AA@ 0043f9d8     bpr:wam.obj
 0002:000139ec       ??_C@_0CI@NIJGBCPH@makes?5a?5new?5engine?5or?5reuses?5a?5d@ 0043f9ec     bpr:wam.obj
 0002:00013a18       ??_C@_0EK@GIDEFCHP@?$CI?$CLEngine?0?9Id?$CJ?5gets?5the?5unique?5id@ 0043fa18     bpr:wam.obj
 0002:00013a64       ??_C@_0O@MJDILLIM@get_engine_id?$AA@ 0043fa64     bpr:wam.obj
 0002:00013a74       ??_C@_0CJ@DGMNKJPE@gets?5the?5unique?5id?5of?5the?5curren@ 0043fa74     bpr:wam.obj
 0002:00013aa0       ??_C@_0P@BEBBMCHA@current_engine?$AA@ 0043faa0     bpr:wam.obj
 0002:00013ab0       ??_C@_0DN@GBLGDIHI@returns?5a?5unique?5id?5associated?5t@ 0043fab0     bpr:wam.obj
 0002:00013af0       ??_C@_0BC@BCHELMIC@current_engine_id?$AA@ 0043faf0     bpr:wam.obj
 0002:00013b04       ??_C@_0BP@LLELGPKM@gets?1sets?5level?5of?5?$CCquietness?$CC?$AA@ 0043fb04     bpr:wam.obj
 0002:00013b24       ??_C@_0CL@DFHLNELL@performs?5blackboard?5gc?5now?0?5in?5t@ 0043fb24     bpr:wam.obj
 0002:00013b50       ??_C@_06LCODAHDG@bb_gc0?$AA@ 0043fb50     bpr:wam.obj
 0002:00013b58       ??_C@_0CH@JJKBKNOA@performs?5blackboard?5gc?5now?0?5if?5e@ 0043fb58     bpr:wam.obj
 0002:00013b80       ??_C@_05HINFCOBF@bb_gc?$AA@ 0043fb80     bpr:wam.obj
 0002:00013b88       ??_C@_0CJ@HPGKBMKB@shows?5if?5blackboard?5gc?5is?5enable@ 0043fb88     bpr:wam.obj
 0002:00013bb4       ??_C@_0M@MJDMMLCF@bbgc_status?$AA@ 0043fbb4     bpr:wam.obj
 0002:00013bc0       ??_C@_0BH@BHINGMHN@disables?5blackboard?5gc?$AA@ 0043fbc0     bpr:wam.obj
 0002:00013bd8       ??_C@_06DBCNFENC@nobbgc?$AA@ 0043fbd8     bpr:wam.obj
 0002:00013be0       ??_C@_0BH@IAJCKJIP@enables?5blackboard?5gc?5?$AA@ 0043fbe0     bpr:wam.obj
 0002:00013bf8       ??_C@_0CE@GJIIOJBK@makes?5blackboard?5dynamic?5with?5gc@ 0043fbf8     bpr:wam.obj
 0002:00013c1c       ??_C@_07PEOHILGB@dynbbgc?$AA@ 0043fc1c     bpr:wam.obj
 0002:00013c24       ??_C@_0CD@NNKELPPE@shows?5if?5heap?5gc?5is?5enabled?5or?5n@ 0043fc24     bpr:wam.obj
 0002:00013c48       ??_C@_09JNLCLIFC@gc_status?$AA@ 0043fc48     bpr:wam.obj
 0002:00013c54       ??_C@_0BB@GKEPEFAN@disables?5heap?5gc?$AA@ 0043fc54     bpr:wam.obj
 0002:00013c68       ??_C@_04HPNCMDFK@nogc?$AA@ 0043fc68     bpr:wam.obj
 0002:00013c70       ??_C@_0BA@FALILBKP@enables?5heap?5gc?$AA@ 0043fc70     bpr:wam.obj
 0002:00013c80       ??_C@_0CE@EAJICIH@intialises?5fast?5C?9based?5IO?5routi@ 0043fc80     bpr:wam.obj
 0002:00013ca4       ??_C@_07JLFECMBA@init_io?$AA@ 0043fca4     bpr:wam.obj
 0002:00013cac       ??_C@_0BE@CEDEOHAK@returns?5to?5toplevel?$AA@ 0043fcac     bpr:wam.obj
 0002:00013cc0       ??_C@_05BBAEEBBH@abort?$AA@ 0043fcc0     bpr:wam.obj
 0002:00013cc8       ??_C@_0DF@LFPPPKKN@cleans?5up?5data?5areas?5and?5reiniti@ 0043fcc8     bpr:wam.obj
 0002:00013d00       ??_C@_07LDHOHMPD@restart?$AA@ 0043fd00     bpr:wam.obj
 0002:00013d08       ??_C@_0EB@NJIMFEEE@pushes?5code?5compiled?5into?5the?5wo@ 0043fd08     bpr:wam.obj
 0002:00013d4c       ??_C@_02BKJPHGNJ@pc?$AA@   0043fd4c     bpr:wam.obj
 0002:00013d50       ??_C@_0DH@FLOJHPGE@Prolog?5atom?5returned?5by?5read?5whe@ 0043fd50     bpr:wam.obj
 0002:00013d88       ??_C@_0O@DOLAJFIL@translate_def?$AA@ 0043fd88     bpr:wam.obj
 0002:00013d98       ??_C@_0BB@GIGDJDJP@translate_clause?$AA@ 0043fd98     bpr:wam.obj
 0002:00013dac       ??_C@_0CP@ECFPMBEJ@cuts?5to?5an?5int?5in?5arg?51?0?5a?5choic@ 0043fdac     bpr:wam.obj
 0002:00013ddc       ??_C@_0DC@KCKLOEJM@gets?5a?5choice?5point?5address?0?5use@ 0043fddc     bpr:wam.obj
 0002:00013e10       ??_C@_0N@PEIPIEJN@get_deep_cut?$AA@ 0043fe10     bpr:wam.obj
 0002:00013e20       ??_C@_0IO@GJFLJBOB@succeeds?5like?5true?10?0?5but?5remove@ 0043fe20     bpr:wam.obj
 0002:00013eb0       ??_C@_01DCLJPIOD@?$CB?$AA@ 0043feb0     bpr:wam.obj
 0002:00013eb4       ??_C@_03KPLEBCNE@219?$AA@  0043feb4     bpr:wam.obj
 0002:00013eb8       ??_C@_05HBMNBNLH@n_nop?$AA@ 0043feb8     bpr:wam.obj
 0002:00013ec0       ??_C@_03ENICKBCI@202?$AA@  0043fec0     bpr:wam.obj
 0002:00013ec4       ??_C@_09HJDCDADE@n_builtin?$AA@ 0043fec4     bpr:wam.obj
 0002:00013ed0       ??_C@_07HCGJPNLL@n_arith?$AA@ 0043fed0     bpr:wam.obj
 0002:00013ed8       ??_C@_08GNKOGMBM@n_inline?$AA@ 0043fed8     bpr:wam.obj
 0002:00013ee4       ??_C@_0DB@FHELEDAA@calls?5a?5list?5to?5list?5function?3?5t@ 0043fee4     bpr:wam.obj
 0002:00013f18       ??_C@_0DO@LODPJMDC@returns?5a?5term?5from?5an?5engine?5le@ 0043ff18     bpr:wam.obj
 0002:00013f58       ??_C@_0EG@LLOPKAPG@in?5specialy?5compiled?5profiler?5mo@ 0043ff58     bpr:wam.obj
 0002:00013fa0       ??_C@_0BF@MAAFIGEC@performs?5heap?5gc?5now?$AA@ 0043ffa0     bpr:wam.obj
 0002:00013fb8       ??_C@_0FD@CJGDJDNB@cleans?5up?5and?5resizes?5to?5at?5leas@ 0043ffb8     bpr:wam.obj
 0002:0001400c       ??_C@_05CJBACGMB@hello?$AA@ 0044000c     bpr:wam.obj
 0002:00014014       ??_C@_0DF@GCJLAFEL@bidirectional?3?5converts?5atomic?5t@ 00440014     bpr:wam.obj
 0002:0001404c       ??_C@_0CG@ONDLICHF@builds?5or?5decomposes?5a?5coumpound@ 0044004c     bpr:wam.obj
 0002:00014074       ??_C@_0BJ@OLACNOAN@executes?5?$CIatomic?$CB?$CJ?5arg?51?$AA@ 00440074     bpr:wam.obj
 0002:00014090       ??_C@_0BA@EBFJCPAP@always?5succeeds?$AA@ 00440090     bpr:wam.obj
 0002:000140a0       ??_C@_07JOBGCCJF@in_head?$AA@ 004400a0     bpr:wam.obj
 0002:000140a8       ??_C@_03CBMECOON@127?$AA@  004400a8     bpr:wam.obj
 0002:000140b0       ??_C@_0FG@NICPKHKO@stops?5Prolog?5with?5given?5return?5c@ 004400b0     bpr:wam.obj
 0002:00014108       ??_C@_03DINPBPKM@126?$AA@  00440108     bpr:wam.obj
 0002:0001410c       ??_C@_0DL@JPNOBJKA@sample?53?5arg?5user?5added?5builtin?5@ 0044010c     bpr:wam.obj
 0002:00014148       ??_C@_03BDPCEMGP@125?$AA@  00440148     bpr:wam.obj
 0002:0001414c       ??_C@_0BO@DIPGHHKB@API?5for?5external?5term?5storage?$AA@ 0044014c     bpr:wam.obj
 0002:0001416c       ??_C@_03KOJHNCO@124?$AA@   0044016c     bpr:wam.obj
 0002:00014170       ??_C@_0EG@NOEGHJNG@prints?5out?5a?5clause?5such?5that?5a?5@ 00440170     bpr:wam.obj
 0002:000141b8       ??_C@_03EFKIOLOJ@123?$AA@  004401b8     bpr:wam.obj
 0002:000141bc       ??_C@_0CG@KLLBOBIK@converts?5a?5host?5name?5to?5an?5IP?5ad@ 004401bc     bpr:wam.obj
 0002:000141e4       ??_C@_03FMLDNKKI@122?$AA@  004401e4     bpr:wam.obj
 0002:000141e8       ??_C@_0BE@POFHOEAM@waits?5arg?51?5seconds?$AA@ 004401e8     bpr:wam.obj
 0002:000141fc       ??_C@_03HHJOIJGL@121?$AA@  004401fc     bpr:wam.obj
 0002:00014200       ??_C@_0CA@CGOALGDJ@writes?5to?5a?5socket?0?5from?5a?5file?$AA@ 00440200     bpr:wam.obj
 0002:00014220       ??_C@_03GOIFLICK@120?$AA@  00440220     bpr:wam.obj
 0002:00014224       ??_C@_0BP@MKKIBHIH@reads?5from?5a?5socket?0?5to?5a?5file?$AA@ 00440224     bpr:wam.obj
 0002:00014244       ??_C@_03LNABLNDK@119?$AA@  00440244     bpr:wam.obj
 0002:00014248       ??_C@_0BN@GEBBJOJG@writes?5to?5a?5socket?0?5a?5string?$AA@ 00440248     bpr:wam.obj
 0002:00014268       ??_C@_03KEBKIMHL@118?$AA@  00440268     bpr:wam.obj
 0002:0001426c       ??_C@_0BO@IEMKGMOI@reads?5from?5a?5socket?0?5a?5string?$AA@ 0044026c     bpr:wam.obj
 0002:0001428c       ??_C@_03CDICJALE@117?$AA@  0044028c     bpr:wam.obj
 0002:00014290       ??_C@_0BL@PEMGHLK@writes?5to?5a?5socket?0?5a?5line?$AA@ 00440290     bpr:wam.obj
 0002:000142ac       ??_C@_03DKJJKBPF@116?$AA@  004402ac     bpr:wam.obj
 0002:000142b0       ??_C@_0BM@MPKEFPLC@reads?5from?5a?5socket?0?5a?5line?$AA@ 004402b0     bpr:wam.obj
 0002:000142cc       ??_C@_03BBLEPCDG@115?$AA@  004402cc     bpr:wam.obj
 0002:000142d0       ??_C@_0CD@GNLCGNBM@closes?5a?5server?0?5service?5or?5clie@ 004402d0     bpr:wam.obj
 0002:000142f4       ??_C@_03IKPMDHH@114?$AA@   004402f4     bpr:wam.obj
 0002:000142f8       ??_C@_0CG@FIICKIIN@gets?5port?5of?5peer?5connected?5to?5s@ 004402f8     bpr:wam.obj
 0002:00014320       ??_C@_03EHOOFFLA@113?$AA@  00440320     bpr:wam.obj
 0002:00014324       ??_C@_0CJ@FHNHONHO@gets?5address?5of?5peer?5connected?5t@ 00440324     bpr:wam.obj
 0002:00014350       ??_C@_03FOPFGEPB@112?$AA@  00440350     bpr:wam.obj
 0002:00014354       ??_C@_0CD@DMMDLILG@from?5?$CIserver?0timeout?$CJ?5to?5a?5servi@ 00440354     bpr:wam.obj
 0002:00014378       ??_C@_03HFNIDHDC@111?$AA@  00440378     bpr:wam.obj
 0002:0001437c       ??_C@_0BN@OAHKHIN@opens?5on?5a?5port?5a?5new?5server?$AA@ 0044037c     bpr:wam.obj
 0002:0001439c       ??_C@_03GMMDAGHD@110?$AA@  0044039c     bpr:wam.obj
 0002:000143a0       ??_C@_0BP@NANMAICN@from?5a?5?$CIhost?0port?$CJ?5to?5a?5client?$AA@ 004403a0     bpr:wam.obj
 0002:000143c0       ??_C@_03LMMDNHAN@109?$AA@  004403c0     bpr:wam.obj
 0002:000143c4       ??_C@_0CC@GEGAKEAL@returns?5a?5new?5name?5based?5on?5arg?5@ 004403c4     bpr:wam.obj
 0002:000143e8       ??_C@_03KFNIOGEM@108?$AA@  004403e8     bpr:wam.obj
 0002:000143ec       ??_C@_03CCEAPKID@107?$AA@  004403ec     bpr:wam.obj
 0002:000143f0       ??_C@_0FH@PPFFHMOM@moves?5code?5compiled?5in?5workspace@ 004403f0     bpr:wam.obj
 0002:00014448       ??_C@_03DLFLMLMC@106?$AA@  00440448     bpr:wam.obj
 0002:0001444c       ??_C@_03BAHGJIAB@105?$AA@  0044044c     bpr:wam.obj
 0002:00014450       ??_C@_01LKDEMHDF@s?$AA@    00440450     bpr:wam.obj
 0002:00014454       ??_C@_0CL@IIPKMIPB@finds?5first?5element?5without?5unif@ 00440454     bpr:wam.obj
 0002:00014480       ??_C@_03JGNKJEA@104?$AA@   00440480     bpr:wam.obj
 0002:00014484       ??_C@_03EGCMDPIH@103?$AA@  00440484     bpr:wam.obj
 0002:00014488       ??_C@_0DG@HPLNAIBN@initializes?5random?11?5with?5an?5int@ 00440488     bpr:wam.obj
 0002:000144c0       ??_C@_03FPDHAOMG@102?$AA@  004404c0     bpr:wam.obj
 0002:000144c4       ??_C@_0DG@GCGBBNE@overrides?5a?5compiled?5predicate?5?9@ 004404c4     bpr:wam.obj
 0002:000144fc       ??_C@_03HEBKFNAF@101?$AA@  004404fc     bpr:wam.obj
 0002:00014500       ??_C@_0CE@IPDGOBOK@gets?5the?5choice?5point?5as?5an?5inte@ 00440500     bpr:wam.obj
 0002:00014524       ??_C@_0CH@JFBFNCNN@unwinds?5the?5trail?5up?5to?5a?5choice@ 00440524     bpr:wam.obj
 0002:0001454c       ??_C@_0CI@IPJHCMDA@gets?5thread?5id?5number?5of?5current@ 0044054c     bpr:wam.obj
 0002:00014574       ??_C@_02DMJLEEAJ@98?$AA@   00440574     bpr:wam.obj
 0002:00014578       ??_C@_0N@HBOADFGB@joins?5thread?$AA@ 00440578     bpr:wam.obj
 0002:00014588       ??_C@_02LLADFIMG@97?$AA@   00440588     bpr:wam.obj
 0002:0001458c       ??_C@_0P@IPJEMCII@exits?5a?5thread?$AA@ 0044058c     bpr:wam.obj
 0002:0001459c       ??_C@_02KCBIGJIH@96?$AA@   0044059c     bpr:wam.obj
 0002:000145a0       ??_C@_0GE@IEKGOGP@same?5as?5thread_operation?$CIOp?0?5Mut@ 004405a0     bpr:wam.obj
 0002:00014604       ??_C@_02IJDFDKEE@95?$AA@   00440604     bpr:wam.obj
 0002:00014608       ??_C@_0DE@CIGFPIOB@?$CIE?0R?$CJ?3?5asks?5an?5answer?5of?5engine?5@ 00440608     bpr:wam.obj
 0002:0001463c       ??_C@_02JACOALAF@94?$AA@   0044063c     bpr:wam.obj
 0002:00014640       ??_C@_0BM@IEDLICMK@args?3?5Engine?0PropertyNo?0Val?$AA@ 00440640     bpr:wam.obj
 0002:0001465c       ??_C@_02NPGPJNMC@93?$AA@   0044065c     bpr:wam.obj
 0002:00014660       ??_C@_0BO@KICFAGJA@returns?5current?5engine?5handle?$AA@ 00440660     bpr:wam.obj
 0002:00014680       ??_C@_02MGHEKMID@92?$AA@   00440680     bpr:wam.obj
 0002:00014684       ??_C@_0BP@DJACHPOB@lists?5available?5engine?5handles?$AA@ 00440684     bpr:wam.obj
 0002:000146a4       ??_C@_02ONFJPPEA@91?$AA@   004406a4     bpr:wam.obj
 0002:000146a8       ??_C@_0DN@LCOEPOIL@ask_engine?$CIE?0X?$CJ?5retrieves?5from?5e@ 004406a8     bpr:wam.obj
 0002:000146e8       ??_C@_02PEECMOAB@90?$AA@   004406e8     bpr:wam.obj
 0002:000146f0       ??_C@_0EE@OIGMCKBI@load_engine?$CIE?0Goal?0Answer?$CJ?5prepa@ 004406f0     bpr:wam.obj
 0002:00014734       ??_C@_02CEECBPHP@89?$AA@   00440734     bpr:wam.obj
 0002:00014738       ??_C@_0DI@JGOPDKFO@destroy_engine?$CIE?$CJ?5frees?5memory?5o@ 00440738     bpr:wam.obj
 0002:00014770       ??_C@_02DNFJCODO@88?$AA@   00440770     bpr:wam.obj
 0002:00014778       ??_C@_0EG@BLDAINJP@create_engine?$CIHeap?0Stack?0Trail?0I@ 00440778     bpr:wam.obj
 0002:000147c0       ??_C@_02LKMBDCPB@87?$AA@   004407c0     bpr:wam.obj
 0002:000147c4       ??_C@_0CN@PDCAPCLP@sends?5signal?5arg?51?5to?5process?5wi@ 004407c4     bpr:wam.obj
 0002:000147f4       ??_C@_02KDNKADLA@86?$AA@   004407f4     bpr:wam.obj
 0002:000147f8       ??_C@_0CG@NIDCLAMC@returns?5process?5id?5of?5current?5pr@ 004407f8     bpr:wam.obj
 0002:00014820       ??_C@_02IIPHFAHD@85?$AA@   00440820     bpr:wam.obj
 0002:00014824       ??_C@_0CE@LBDFANPO@starts?5child?5process?5with?5Unix?5f@ 00440824     bpr:wam.obj
 0002:00014848       ??_C@_02JBOMGBDC@84?$AA@   00440848     bpr:wam.obj
 0002:0001484c       ??_C@_0BL@HFOGFPIC@changes?5local?5dir?5to?5arg?51?$AA@ 0044084c     bpr:wam.obj
 0002:00014868       ??_C@_02NOKNPHPF@83?$AA@   00440868     bpr:wam.obj
 0002:00014870       ??_C@_0ED@CLKPCEKE@checks?5if?5arg1?5?$CIa?5path?$CLfile?$CJ?5is?5@ 00440870     bpr:wam.obj
 0002:000148b4       ??_C@_02MHLGMGLE@82?$AA@   004408b4     bpr:wam.obj
 0002:000148b8       ??_C@_0BN@IGDLLMAP@gets?5an?5environment?5variable?$AA@ 004408b8     bpr:wam.obj
 0002:000148d8       ??_C@_0CD@JALFCALH@gets?5a?5cmd?5line?5arg?5from?50?5to?5ar@ 004408d8     bpr:wam.obj
 0002:000148fc       ??_C@_02OMJLJFHH@81?$AA@   004408fc     bpr:wam.obj
 0002:00014900       ??_C@_0BK@KFKMPKCK@gets?5cmd?5line?5arg?5counter?$AA@ 00440900     bpr:wam.obj
 0002:0001491c       ??_C@_02PFIAKEDG@80?$AA@   0044091c     bpr:wam.obj
 0002:00014920       ??_C@_02CPBOFIEC@79?$AA@   00440920     bpr:wam.obj
 0002:00014928       ??_C@_0EA@MFEGOJBI@returns?5the?5size?5of?5the?5file?5ass@ 00440928     bpr:wam.obj
 0002:00014968       ??_C@_02DGAFGJAD@78?$AA@   00440968     bpr:wam.obj
 0002:0001496c       ??_C@_0CL@ELHHENDH@fflush?$CIIntegerStreamNo?$CJ?5flushes?5@ 0044096c     bpr:wam.obj
 0002:00014998       ??_C@_02LBJNHFMM@77?$AA@   00440998     bpr:wam.obj
 0002:000149a0       ??_C@_0EC@JKBJMLMH@fputc?$CIIntegerStreamNo?0CharCode?$CJ?5@ 004409a0     bpr:wam.obj
 0002:000149e4       ??_C@_02KIIGEEIN@76?$AA@   004409e4     bpr:wam.obj
 0002:000149e8       ??_C@_0ED@JHJDDPAN@fgetc?$CIIntegerStreamNo?0CharCode?$CJ?5@ 004409e8     bpr:wam.obj
 0002:00014a2c       ??_C@_02IDKLBHEO@75?$AA@   00440a2c     bpr:wam.obj
 0002:00014a30       ??_C@_0CH@LCIKDEKM@?$CIType?0StreamID?$CJ?5closes?5various?5s@ 00440a30     bpr:wam.obj
 0002:00014a58       ??_C@_02JKLACGAP@74?$AA@   00440a58     bpr:wam.obj
 0002:00014a60       ??_C@_0EB@LJJMINJL@?$CIType?0FileOrCmd?0ReadWriteAppend?0@ 00440a60     bpr:wam.obj
 0002:00014aa4       ??_C@_0DF@NPPELNEB@retrieves?5which?5hidden?5DCG?9strea@ 00440aa4     bpr:wam.obj
 0002:00014adc       ??_C@_02NFPBLAMI@73?$AA@   00440adc     bpr:wam.obj
 0002:00014ae0       ??_C@_02MMOKIBIJ@72?$AA@   00440ae0     bpr:wam.obj
 0002:00014ae4       ??_C@_0DO@BAFIDOFG@switches?5to?5hidden?5DCG?9stream?5nu@ 00440ae4     bpr:wam.obj
 0002:00014b24       ??_C@_02OHMHNCEK@71?$AA@   00440b24     bpr:wam.obj
 0002:00014b28       ??_C@_0FH@KBDPOHM@backtrackable?3?5retrieves?5current@ 00440b28     bpr:wam.obj
 0002:00014b80       ??_C@_02PONMODAL@70?$AA@   00440b80     bpr:wam.obj
 0002:00014b88       ??_C@_0FC@JJPHKDBD@backtrackable?3?5sets?5current?5Assu@ 00440b88     bpr:wam.obj
 0002:00014bdc       ??_C@_02CONMDCHF@69?$AA@   00440bdc     bpr:wam.obj
 0002:00014be0       ??_C@_02DHMHADDE@68?$AA@   00440be0     bpr:wam.obj
 0002:00014be4       ??_C@_02LAFPBPPL@67?$AA@   00440be4     bpr:wam.obj
 0002:00014be8       ??_C@_02KJEECOLK@66?$AA@   00440be8     bpr:wam.obj
 0002:00014bec       ??_C@_01LPLHEDKD@d?$AA@    00440bec     bpr:wam.obj
 0002:00014bf0       ??_C@_01JEJKBAGA@g?$AA@    00440bf0     bpr:wam.obj
 0002:00014bf4       ??_C@_0CB@MOFMKLKJ@efficiently?5concatenates?52?5terms@ 00440bf4     bpr:wam.obj
 0002:00014c18       ??_C@_02ICGJHNHJ@65?$AA@   00440c18     bpr:wam.obj
 0002:00014c1c       ??_C@_02JLHCEMDI@64?$AA@   00440c1c     bpr:wam.obj
 0002:00014c20       ??_C@_02NEDDNKPP@63?$AA@   00440c20     bpr:wam.obj
 0002:00014c24       ??_C@_02MNCIOLLO@62?$AA@   00440c24     bpr:wam.obj
 0002:00014c28       ??_C@_02OGAFLIHN@61?$AA@   00440c28     bpr:wam.obj
 0002:00014c2c       ??_C@_02PPBOIJDM@60?$AA@   00440c2c     bpr:wam.obj
 0002:00014c30       ??_C@_02CMJKIMCM@59?$AA@   00440c30     bpr:wam.obj
 0002:00014c34       ??_C@_02DFIBLNGN@58?$AA@   00440c34     bpr:wam.obj
 0002:00014c38       ??_C@_02LCBJKBKC@57?$AA@   00440c38     bpr:wam.obj
 0002:00014c3c       ??_C@_0CJ@EAKODKFL@true?5if?5arg?51?5is?5a?5file?5older?5th@ 00440c3c     bpr:wam.obj
 0002:00014c68       ??_C@_02KLACJAOD@56?$AA@   00440c68     bpr:wam.obj
 0002:00014c6c       ??_C@_02IACPMDCA@55?$AA@   00440c6c     bpr:wam.obj
 0002:00014c70       ??_C@_02JJDEPCGB@54?$AA@   00440c70     bpr:wam.obj
 0002:00014c74       ??_C@_02NGHFGEKG@53?$AA@   00440c74     bpr:wam.obj
 0002:00014c78       ??_C@_02MPGOFFOH@52?$AA@   00440c78     bpr:wam.obj
 0002:00014c7c       ??_C@_02OEEDAGCE@51?$AA@   00440c7c     bpr:wam.obj
 0002:00014c80       ??_C@_0EP@OGDGHMDB@args?3?5StringToStringFunctionAddr@ 00440c80     bpr:wam.obj
 0002:00014cd0       ??_C@_02CNFIOGBL@49?$AA@   00440cd0     bpr:wam.obj
 0002:00014cd4       ??_C@_02DEEDNHFK@48?$AA@   00440cd4     bpr:wam.obj
 0002:00014cd8       ??_C@_0DC@ONLLLHKK@handles?5a?5terminal?5symbol?5in?5HAG@ 00440cd8     bpr:wam.obj
 0002:00014d0c       ??_C@_02LDNLMLJF@47?$AA@   00440d0c     bpr:wam.obj
 0002:00014d10       ??_C@_02KKMAPKNE@46?$AA@   00440d10     bpr:wam.obj
 0002:00014d14       ??_C@_02IBONKJBH@45?$AA@   00440d14     bpr:wam.obj
 0002:00014d18       ??_C@_02JIPGJIFG@44?$AA@   00440d18     bpr:wam.obj
 0002:00014d1c       ??_C@_0DC@LBJEFJBN@sets?5arg?51?5?9?5an?5int?$CK?5C?5variable?5@ 00440d1c     bpr:wam.obj
 0002:00014d50       ??_C@_02NHLHAOJB@43?$AA@   00440d50     bpr:wam.obj
 0002:00014d54       ??_C@_0DH@BEKNDJHM@gets?5from?5arg?51?5?9?5an?5int?$CK?5C?5vari@ 00440d54     bpr:wam.obj
 0002:00014d8c       ??_C@_02MOKMDPNA@42?$AA@   00440d8c     bpr:wam.obj
 0002:00014d90       ??_C@_0P@LPPJCFIL@frees?5an?5array?$AA@ 00440d90     bpr:wam.obj
 0002:00014da0       ??_C@_02OFIBGMBD@41?$AA@   00440da0     bpr:wam.obj
 0002:00014da4       ??_C@_0BB@LLEDEBLA@creates?5an?5array?$AA@ 00440da4     bpr:wam.obj
 0002:00014db8       ??_C@_02PMJKFNFC@40?$AA@   00440db8     bpr:wam.obj
 0002:00014dbc       ??_C@_0CE@ODPPHNJC@gets?5and?5dereferences?5array?5elem@ 00440dbc     bpr:wam.obj
 0002:00014de0       ??_C@_02CIBHPAJO@39?$AA@   00440de0     bpr:wam.obj
 0002:00014de4       ??_C@_0BE@PDOAJDGA@gets?5?5array?5element?$AA@ 00440de4     bpr:wam.obj
 0002:00014df8       ??_C@_02DBAMMBNP@38?$AA@   00440df8     bpr:wam.obj
 0002:00014dfc       ??_C@_0BD@GGBBENDB@sets?5array?5element?$AA@ 00440dfc     bpr:wam.obj
 0002:00014e10       ??_C@_02LGJENNBA@37?$AA@   00440e10     bpr:wam.obj
 0002:00014e14       ??_C@_02KPIPOMFB@36?$AA@   00440e14     bpr:wam.obj
 0002:00014e18       ??_C@_02IEKCLPJC@35?$AA@   00440e18     bpr:wam.obj
 0002:00014e1c       ??_C@_02JNLJIOND@34?$AA@   00440e1c     bpr:wam.obj
 0002:00014e20       ??_C@_02NCPIBIBE@33?$AA@   00440e20     bpr:wam.obj
 0002:00014e28       ??_C@_0FA@BHJMBAK@?$CIKey?0Depth?0Mod?$CJ?5computes?5hashval@ 00440e28     bpr:wam.obj
 0002:00014e78       ??_C@_02MLODCJFF@32?$AA@   00440e78     bpr:wam.obj
 0002:00014e7c       ??_C@_01JLIPDDHJ@?3?$AA@   00440e7c     bpr:wam.obj
 0002:00014e80       ??_C@_0BF@FFDEOFOP@concatenates?53?5names?$AA@ 00440e80     bpr:wam.obj
 0002:00014e98       ??_C@_02OAMOHKJG@31?$AA@   00440e98     bpr:wam.obj
 0002:00014e9c       ??_C@_0CK@FFEDDDIG@makes?5new?5identifier?5from?5arg?51?5@ 00440e9c     bpr:wam.obj
 0002:00014ec8       ??_C@_02PJNFELNH@30?$AA@   00440ec8     bpr:wam.obj
 0002:00014ecc       ??_C@_0DM@MBKOIKLM@backtrackable?3?5lval?$CIK1?0K2?0V?$CJ?5ass@ 00440ecc     bpr:wam.obj
 0002:00014f08       ??_C@_02CJNFJKKJ@29?$AA@   00440f08     bpr:wam.obj
 0002:00014f0c       ??_C@_02DAMOKLOI@28?$AA@   00440f0c     bpr:wam.obj
 0002:00014f10       ??_C@_02LHFGLHCH@27?$AA@   00440f10     bpr:wam.obj
 0002:00014f14       ??_C@_02KOENIGGG@26?$AA@   00440f14     bpr:wam.obj
 0002:00014f18       ??_C@_02IFGANFKF@25?$AA@   00440f18     bpr:wam.obj
 0002:00014f1c       ??_C@_0DK@BJHEKBCK@destructive?3?5change_arg?$CII?0T?0X?$CJ?5r@ 00440f1c     bpr:wam.obj
 0002:00014f58       ??_C@_02JMHLOEOE@24?$AA@   00440f58     bpr:wam.obj
 0002:00014f5c       ??_C@_0DI@EPDFCHIN@backtrackable?3?5setarg?$CII?0T?0X?$CJ?5rep@ 00440f5c     bpr:wam.obj
 0002:00014f94       ??_C@_02NDDKHCCD@23?$AA@   00440f94     bpr:wam.obj
 0002:00014f98       ??_C@_01OJONOECF@b?$AA@    00440f98     bpr:wam.obj
 0002:00014f9c       ??_C@_01MCMALHOG@a?$AA@    00440f9c     bpr:wam.obj
 0002:00014fa0       ??_C@_01INIBCBCB@f?$AA@    00440fa0     bpr:wam.obj
 0002:00014fa4       ??_C@_0DJ@EHDANNJO@arg?$CII?0T?0X?$CJ?5extracts?5arg?5I?5of?5ter@ 00440fa4     bpr:wam.obj
 0002:00014fe0       ??_C@_02MKCBEDGC@22?$AA@   00440fe0     bpr:wam.obj
 0002:00014fe4       ??_C@_02OBAMBAKB@21?$AA@   00440fe4     bpr:wam.obj
 0002:00014fe8       ??_C@_0DK@JCKIBLKA@bitwise?5or?5of?5first?5arg?5with?5bit@ 00440fe8     bpr:wam.obj
 0002:00015024       ??_C@_02PIBHCBOA@20?$AA@   00441024     bpr:wam.obj
 0002:00015028       ??_C@_0M@HGJEPKOJ@bitwise?5XOR?$AA@ 00441028     bpr:wam.obj
 0002:00015034       ??_C@_02CLJDCEPA@19?$AA@   00441034     bpr:wam.obj
 0002:00015038       ??_C@_0L@CLNLJAHB@bitwise?5OR?$AA@ 00441038     bpr:wam.obj
 0002:00015044       ??_C@_02DCIIBFLB@18?$AA@   00441044     bpr:wam.obj
 0002:00015048       ??_C@_0M@EGNPDNBM@bitwise?5AND?$AA@ 00441048     bpr:wam.obj
 0002:00015054       ??_C@_02LFBAAJHO@17?$AA@   00441054     bpr:wam.obj
 0002:00015058       ??_C@_0CB@KOMLHGMH@right?5shifts?5arg?51?5by?5arg?52?5bits@ 00441058     bpr:wam.obj
 0002:0001507c       ??_C@_02KMALDIDP@16?$AA@   0044107c     bpr:wam.obj
 0002:00015080       ??_C@_0CA@OMBBKCMP@left?5shifts?5arg?51?5by?5arg?52?5bits?$AA@ 00441080     bpr:wam.obj
 0002:000150a0       ??_C@_02IHCGGLPM@15?$AA@   004410a0     bpr:wam.obj
 0002:000150a4       ??_C@_02JODNFKLN@14?$AA@   004410a4     bpr:wam.obj
 0002:000150a8       ??_C@_02NBHMMMHK@13?$AA@   004410a8     bpr:wam.obj
 0002:000150ac       ??_C@_02MIGHPNDL@12?$AA@   004410ac     bpr:wam.obj
 0002:000150b0       ??_C@_02ODEKKOPI@11?$AA@   004410b0     bpr:wam.obj
 0002:000150b4       ??_C@_01LAKCGALK@9?$AA@    004410b4     bpr:wam.obj
 0002:000150b8       ??_C@_0BG@IJJCFCAH@arithmetic?5comparison?$AA@ 004410b8     bpr:wam.obj
 0002:000150d0       ??_C@_02CFIAHFEI@99?$AA@   004410d0     bpr:wam.obj
 0002:000150d4       ??_C@_0CA@KPHHCIFK@writes?5and?5ascii?5code?5as?5a?5char?$AA@ 004410d4     bpr:wam.obj
 0002:000150f4       ??_C@_01KJLJFBPL@8?$AA@    004410f4     bpr:wam.obj
 0002:000150f8       ??_C@_0BO@MDPLOFEH@reads?5a?5char?5as?5an?5ascii?5code?$AA@ 004410f8     bpr:wam.obj
 0002:00015118       ??_C@_0BJ@PJLHFBNP@returns?5a?5random?5integer?$AA@ 00441118     bpr:wam.obj
 0002:00015134       ??_C@_08DHDHNDEI@division?$AA@ 00441134     bpr:wam.obj
 0002:00015140       ??_C@_0BB@LNHNOPND@integer?5division?$AA@ 00441140     bpr:wam.obj
 0002:00015154       ??_C@_06OCKLHECE@modulo?$AA@ 00441154     bpr:wam.obj
 0002:0001515c       ??_C@_08MMOCDOEL@multiply?$AA@ 0044115c     bpr:wam.obj
 0002:00015168       ??_C@_08LJLIHDOM@subtract?$AA@ 00441168     bpr:wam.obj
 0002:00015174       ??_C@_02PKFBJPLJ@10?$AA@   00441174     bpr:wam.obj
 0002:00015178       ??_C@_01FJMABOPO@x?$AA@    00441178     bpr:wam.obj
 0002:0001517c       ??_C@_03BDGOHNNK@add?$AA@  0044117c     bpr:wam.obj
 0002:00015180       ??_C@_05LGHFKIKG@arith?$AA@ 00441180     bpr:wam.obj
 0002:00015188       ??_C@_0CF@GJEJDGCC@true?5if?5head?5of?5a?5compiled?5predi@ 00441188     bpr:wam.obj
 0002:000151b0       ??_C@_01COCBENDE@7?$AA@    004411b0     bpr:wam.obj
 0002:000151b4       ??_C@_0CI@ECDDIABH@true?5if?5an?5integer?5or?5symbolic?5c@ 004411b4     bpr:wam.obj
 0002:000151dc       ??_C@_01DHDKHMHF@6?$AA@    004411dc     bpr:wam.obj
 0002:000151e0       ??_C@_0BD@ELKLJODC@true?5if?5an?5integer?$AA@ 004411e0     bpr:wam.obj
 0002:000151f4       ??_C@_01BMBHCPLG@5?$AA@    004411f4     bpr:wam.obj
 0002:000151f8       ??_C@_0BP@MOGMBNGJ@true?5if?5currently?5instantiated?$AA@ 004411f8     bpr:wam.obj
 0002:00015218       ??_C@_01FAMBOPH@4?$AA@     00441218     bpr:wam.obj
 0002:0001521c       ??_C@_0CG@MBHLCPFA@true?5if?5currently?5an?5unbound?5var@ 0044121c     bpr:wam.obj
 0002:00015244       ??_C@_01EKENIIDA@3?$AA@    00441244     bpr:wam.obj
 0002:00015248       ??_C@_0BC@MDKAOIBF@writes?5a?5new?5line?$AA@ 00441248     bpr:wam.obj
 0002:0001525c       ??_C@_0CF@LMIKLFCK@basic?5but?5quick?5C?9version?5of?5wri@ 0044125c     bpr:wam.obj
 0002:00015284       ??_C@_0N@CPOGHLDC@always?5fails?$AA@ 00441284     bpr:wam.obj
 0002:00015294       ??_C@_07ECLMHEKH@in_body?$AA@ 00441294     bpr:wam.obj
 0002:0001529c       ??_C@_09CDAGEODE@500?5fx?5?$CD?$DP?$AA@ 0044129c     bpr:wam.obj
 0002:000152a8       ??_C@_09FLPCDOOH@500?5fx?5?$CD?9?$AA@ 004412a8     bpr:wam.obj
 0002:000152b4       ??_C@_09BBDACMLG@500?5fx?5?$CD?$DN?$AA@ 004412b4     bpr:wam.obj
 0002:000152c0       ??_C@_09BELDKICA@500?5fx?5?$CD?$CK?$AA@ 004412c0     bpr:wam.obj
 0002:000152cc       ??_C@_09NKIJJGB@500?5fx?5?$CD?$CL?$AA@ 004412cc     bpr:wam.obj
 0002:000152d8       ??_C@_09FOHBLKHB@500?5fx?5?$CD?3?$AA@ 004412d8     bpr:wam.obj
 0002:000152e4       ??_C@_09ICLBNPH@500?5fx?5?$CD?$DM?$AA@ 004412e4     bpr:wam.obj
 0002:000152f0       ??_C@_09DKBNHPHF@500?5fx?5?$CD?$DO?$AA@ 004412f0     bpr:wam.obj
 0002:000152fc       ??_C@_07FMLDOBEP@50?5fx?5?$FO?$AA@ 004412fc     bpr:wam.obj
 0002:00015304       ??_C@_08OLFJJGFO@200?5fx?5?$DP?$AA@ 00441304     bpr:wam.obj
 0002:00015310       ??_C@_08IMBNOLFH@25?5xfx?5?$EA?$AA@ 00441310     bpr:wam.obj
 0002:0001531c       ??_C@_08HKHDMPKC@100?5fx?5?$EA?$AA@ 0044131c     bpr:wam.obj
 0002:00015328       ??_C@_08LOBAMKCD@50?5yfx?5?3?$AA@ 00441328     bpr:wam.obj
 0002:00015334       ??_C@_0N@DHDNBPPF@1200?5xfx?5?3?3?9?$AA@ 00441334     bpr:wam.obj
 0002:00015344       ??_C@_0BF@BLFGPPEP@850?5fx?5discontiguous?$AA@ 00441344     bpr:wam.obj
 0002:0001535c       ??_C@_0BB@EOBCFHDP@850?5fx?5multifile?$AA@ 0044135c     bpr:wam.obj
 0002:00015370       ??_C@_0M@LOCMAEFO@850?5fx?5mode?$AA@ 00441370     bpr:wam.obj
 0002:0001537c       ??_C@_0O@CKALPANG@850?5fx?5module?$AA@ 0044137c     bpr:wam.obj
 0002:0001538c       ??_C@_0O@HMIPKEPN@850?5fx?5public?$AA@ 0044138c     bpr:wam.obj
 0002:0001539c       ??_C@_0P@LPFGHKIP@850?5fx?5dynamic?$AA@ 0044139c     bpr:wam.obj
 0002:000153ac       ??_C@_0M@FONLHCFK@1050?5xfy?5?9?$DO?$AA@ 004413ac     bpr:wam.obj
 0002:000153b8       ??_C@_0L@LBOBPCAD@950?5xfx?5?$DM?$DN?$AA@ 004413b8     bpr:wam.obj
 0002:000153c4       ??_C@_0L@KGGOOCEH@950?5xfy?5?$DN?$DO?$AA@ 004413c4     bpr:wam.obj
 0002:000153d0       ??_C@_09JFNKLGKI@950?5fx?5?$CD?$CD?$AA@ 004413d0     bpr:wam.obj
 0002:000153dc       ??_C@_0N@GGBCEAMO@900?5fx?5nospy?$AA@ 004413dc     bpr:wam.obj
 0002:000153ec       ??_C@_0L@GFLLGHNM@900?5fx?5spy?$AA@ 004413ec     bpr:wam.obj
 0002:000153f8       ??_C@_09HFFJHPDC@900?5fy?5?2?$CL?$AA@ 004413f8     bpr:wam.obj
 0002:00015404       ??_C@_0L@KOEAKBDL@900?5fy?5not?$AA@ 00441404     bpr:wam.obj
 0002:00015410       ??_C@_0L@ENGJNJGB@700?5xfx?5?2?$DN?$AA@ 00441410     bpr:wam.obj
 0002:0001541c       ??_C@_0M@KMAFLMHE@700?5xfx?5?$DN?4?4?$AA@ 0044141c     bpr:wam.obj
 0002:00015428       ??_C@_0L@EHMHIHG@700?5xfx?5?$DN?$DN?$AA@ 00441428     bpr:wam.obj
 0002:00015434       ??_C@_0M@FABAHAKJ@700?5xfx?5?2?$DN?$DN?$AA@ 00441434     bpr:wam.obj
 0002:00015440       ??_C@_0L@EBEOLCDE@700?5xfx?5?$EA?$DM?$AA@ 00441440     bpr:wam.obj
 0002:0001544c       ??_C@_0L@HDHINALG@700?5xfx?5?$EA?$DO?$AA@ 0044144c     bpr:wam.obj
 0002:00015458       ??_C@_0M@FDMEKJMP@700?5xfx?5?$EA?$DN?$DM?$AA@ 00441458     bpr:wam.obj
 0002:00015464       ??_C@_0M@EIJJCGNH@700?5xfx?5?$EA?$DO?$DN?$AA@ 00441464     bpr:wam.obj
 0002:00015470       ??_C@_08KFIJKODK@200?5fx?5?2?$AA@ 00441470     bpr:wam.obj
 0002:0001547c       ??_C@_09KOKFGNJA@200?5yfx?5?2?$AA@ 0044147c     bpr:wam.obj
 0002:00015488       ??_C@_0L@LABIPCHI@200?5yfx?5?1?2?$AA@ 00441488     bpr:wam.obj
 0002:00015494       ??_C@_0L@OCLNAOEE@200?5yfx?5?2?1?$AA@ 00441494     bpr:wam.obj
 0002:000154a0       ??_C@_0L@FMLPBCAO@400?5yfx?5?1?1?$AA@ 004414a0     bpr:wam.obj
 0002:000154ac       ??_C@_0L@CDDAEOLF@400?5yfx?5?$DM?$DM?$AA@ 004414ac     bpr:wam.obj
 0002:000154b8       ??_C@_0L@BCICPIFJ@400?5yfx?5?$DO?$DO?$AA@ 004414b8     bpr:wam.obj
 0002:000154c4       ??_C@_0M@NGMFPGEK@700?5xfx?5?$DN?3?$DN?$AA@ 004414c4     bpr:wam.obj
 0002:000154d0       ??_C@_0M@JKJPEBNI@700?5xfx?5?$DN?2?$DN?$AA@ 004414d0     bpr:wam.obj
 0002:000154dc       ??_C@_09OGCNBONG@700?5xfx?5?$DM?$AA@ 004414dc     bpr:wam.obj
 0002:000154e8       ??_C@_0L@BNGHEJDH@700?5xfx?5?$DN?$DM?$AA@ 004414e8     bpr:wam.obj
 0002:000154f4       ??_C@_09NEBLHMFE@700?5xfx?5?$DO?$AA@ 004414f4     bpr:wam.obj
 0002:00015500       ??_C@_0L@GDKMGCP@700?5xfx?5?$DO?$DN?$AA@ 00441500     bpr:wam.obj
 0002:0001550c       ??_C@_0L@PBLPJEFE@660?5xfy?5?$CL?$CL?$AA@ 0044150c     bpr:wam.obj
 0002:00015518       ??_C@_09IDDACHBB@650?5xfy?5?4?$AA@ 00441518     bpr:wam.obj
 0002:00015524       ??_C@_08KNPMJLDM@300?5fy?5?$HO?$AA@ 00441524     bpr:wam.obj
 0002:00015530       ??_C@_09OPHDLLNC@200?5xfy?5?$FO?$AA@ 00441530     bpr:wam.obj
 0002:0001553c       ??_C@_0L@MPLGOOOD@200?5yfx?5?$CK?$CK?$AA@ 0044153c     bpr:wam.obj
 0002:00015548       ??_C@_0M@KHPCCBMA@400?5yfx?5mod?$AA@ 00441548     bpr:wam.obj
 0002:00015554       ??_C@_08KPPGAJMA@400?5fx?5?$CK?$AA@ 00441554     bpr:wam.obj
 0002:00015560       ??_C@_09NKNOMDKH@400?5yfx?5?$CK?$AA@ 00441560     bpr:wam.obj
 0002:0001556c       ??_C@_09KHKJDHOC@400?5yfx?5?1?$AA@ 0044156c     bpr:wam.obj
 0002:00015578       ??_C@_08HNELCGGO@200?5fy?5?$CL?$AA@ 00441578     bpr:wam.obj
 0002:00015584       ??_C@_09CMAHJJNI@500?5yfx?5?$CL?$AA@ 00441584     bpr:wam.obj
 0002:00015590       ??_C@_08CLBBIBOI@200?5fy?5?9?$AA@ 00441590     bpr:wam.obj
 0002:0001559c       ??_C@_09HKFNDOFO@500?5yfx?5?9?$AA@ 0044159c     bpr:wam.obj
 0002:000155a8       ??_C@_0M@JCAIFHOB@1050?5xfx?5?$EA?$EA?$AA@ 004415a8     bpr:wam.obj
 0002:000155b4       ??_C@_09PPDGCPJH@700?5xfx?5?$DN?$AA@ 004415b4     bpr:wam.obj
 0002:000155c0       ??_C@_0L@BDDJMJB@700?5xfx?5is?$AA@ 004415c0     bpr:wam.obj
 0002:000155cc       ??_C@_0L@MLDAPACH@1200?5fx?5?3?9?$AA@ 004415cc     bpr:wam.obj
 0002:000155d8       ??_C@_0M@KFHINNAI@1200?5xfx?5?3?9?$AA@ 004415d8     bpr:wam.obj
 0002:000155e4       ??_C@_0N@ICHFIELE@1200?5xfx?5?9?9?$DO?$AA@ 004415e4     bpr:wam.obj
 0002:000155f4       ??_C@_0L@HNCHNCHF@1100?5xfy?5?$DL?$AA@ 004415f4     bpr:wam.obj
 0002:00015600       ??_C@_0L@JHGGDNNN@1000?5xfy?5?0?$AA@ 00441600     bpr:wam.obj
 0002:0001560c       ??_C@_03LIJBJAL@if0?$AA@   0044160c     bpr:wam.obj
 0002:00015610       ??_C@_05EFBNDJAP@fcall?$AA@ 00441610     bpr:wam.obj
 0002:00015618       ??_C@_07FAJOENJP@return0?$AA@ 00441618     bpr:wam.obj
 0002:00015620       ??_C@_07LNMDFKEJ@profile?$AA@ 00441620     bpr:wam.obj
 0002:00015628       ??_C@_0BA@BEPOKFGC@garbage_collect?$AA@ 00441628     bpr:wam.obj
 0002:00015638       ??_C@_08EHMNJCFH@bb_reset?$AA@ 00441638     bpr:wam.obj
 0002:00015644       ??_C@_08JOALKMIP@list_asm?$AA@ 00441644     bpr:wam.obj
 0002:00015650       ??_C@_05MAPNABCF@stat0?$AA@ 00441650     bpr:wam.obj
 0002:00015658       ??_C@_05DJGLLEII@load0?$AA@ 00441658     bpr:wam.obj
 0002:00015660       ??_C@_04MEMAJGDJ@name?$AA@ 00441660     bpr:wam.obj
 0002:00015668       ??_C@_07GELKLFDD@functor?$AA@ 00441668     bpr:wam.obj
 0002:00015670       ??_C@_08PLEBOLCJ@restart0?$AA@ 00441670     bpr:wam.obj
 0002:0001567c       ??_C@_06FMIELHHF@abort0?$AA@ 0044167c     bpr:wam.obj
 0002:00015684       ??_C@_04BJJLCKLO@halt?$AA@ 00441684     bpr:wam.obj
 0002:0001568c       ??_C@_0M@NKDGLBGD@new_builtin?$AA@ 0044168c     bpr:wam.obj
 0002:00015698       ??_C@_0O@KBFNCICE@term_store_op?$AA@ 00441698     bpr:wam.obj
 0002:000156a8       ??_C@_06OPIIKHCB@qprint?$AA@ 004416a8     bpr:wam.obj
 0002:000156b0       ??_C@_07FHNCCHIH@host2ip?$AA@ 004416b0     bpr:wam.obj
 0002:000156b8       ??_C@_05PCJCMMHD@sleep?$AA@ 004416b8     bpr:wam.obj
 0002:000156c0       ??_C@_09DGJLBOAO@file2sock?$AA@ 004416c0     bpr:wam.obj
 0002:000156cc       ??_C@_09BFKNGJEE@sock2file?$AA@ 004416cc     bpr:wam.obj
 0002:000156d8       ??_C@_0L@HGMPNEPP@sock_write?$AA@ 004416d8     bpr:wam.obj
 0002:000156e4       ??_C@_09GPLCFJCI@sock_read?$AA@ 004416e4     bpr:wam.obj
 0002:000156f0       ??_C@_0N@KICJOJBN@sock_writeln?$AA@ 004416f0     bpr:wam.obj
 0002:00015700       ??_C@_0M@PFFJFMCF@sock_readln?$AA@ 00441700     bpr:wam.obj
 0002:0001570c       ??_C@_0N@DJJCOIBP@close_socket?$AA@ 0044170c     bpr:wam.obj
 0002:0001571c       ??_C@_09GEFNAEFD@peer_port?$AA@ 0044171c     bpr:wam.obj
 0002:00015728       ??_C@_09KACNEFCE@peer_addr?$AA@ 00441728     bpr:wam.obj
 0002:00015734       ??_C@_0M@CKILCDM@new_service?$AA@ 00441734     bpr:wam.obj
 0002:00015740       ??_C@_0L@KCDKHJGA@new_server?$AA@ 00441740     bpr:wam.obj
 0002:0001574c       ??_C@_0L@ONHIKCOD@new_client?$AA@ 0044174c     bpr:wam.obj
 0002:00015758       ??_C@_08DMFGNFOE@new_name?$AA@ 00441758     bpr:wam.obj
 0002:00015764       ??_C@_07NDKHHDMM@system0?$AA@ 00441764     bpr:wam.obj
 0002:0001576c       ??_C@_09NNNFKMIO@push_code?$AA@ 0044176c     bpr:wam.obj
 0002:00015778       ??_C@_09CLGFOPPC@cdel_scan?$AA@ 00441778     bpr:wam.obj
 0002:00015784       ??_C@_0N@LJOOIOKA@cmember_scan?$AA@ 00441784     bpr:wam.obj
 0002:00015794       ??_C@_0M@HOHGLINN@member_scan?$AA@ 00441794     bpr:wam.obj
 0002:000157a0       ??_C@_0M@PANFJEDO@random_seed?$AA@ 004417a0     bpr:wam.obj
 0002:000157ac       ??_C@_08PNBPAFID@override?$AA@ 004417ac     bpr:wam.obj
 0002:000157b8       ??_C@_0N@GLGAMJGB@get_neck_cut?$AA@ 004417b8     bpr:wam.obj
 0002:000157c8       ??_C@_0L@OLBCKLMK@untrail_to?$AA@ 004417c8     bpr:wam.obj
 0002:000157d4       ??_C@_0P@PDHAGHCB@current_thread?$AA@ 004417d4     bpr:wam.obj
 0002:000157e4       ??_C@_0M@DPOGCJOG@thread_join?$AA@ 004417e4     bpr:wam.obj
 0002:000157f0       ??_C@_0M@MAFFCLMK@thread_exit?$AA@ 004417f0     bpr:wam.obj
 0002:000157fc       ??_C@_08PMCAPDKL@tsync_op?$AA@ 004417fc     bpr:wam.obj
 0002:00015808       ??_C@_0L@HBICAFEG@ask_thread?$AA@ 00441808     bpr:wam.obj
 0002:00015814       ??_C@_0BA@LPLDHMCA@get_engine_prop?$AA@ 00441814     bpr:wam.obj
 0002:00015824       ??_C@_0BE@KJMFCEFD@current_engine_addr?$AA@ 00441824     bpr:wam.obj
 0002:00015838       ??_C@_0N@LHBGADIB@list_engines?$AA@ 00441838     bpr:wam.obj
 0002:00015848       ??_C@_0L@JGODKABH@ask_engine?$AA@ 00441848     bpr:wam.obj
 0002:00015854       ??_C@_0M@FHNEDBP@load_engine?$AA@ 00441854     bpr:wam.obj
 0002:00015860       ??_C@_0P@ECEJNAEC@destroy_engine?$AA@ 00441860     bpr:wam.obj
 0002:00015870       ??_C@_0O@JMCENAPC@create_engine?$AA@ 00441870     bpr:wam.obj
 0002:00015880       ??_C@_09FFAGPEKH@unix_kill?$AA@ 00441880     bpr:wam.obj
 0002:0001588c       ??_C@_08IBHPPFC@unix_pid?$AA@ 0044188c     bpr:wam.obj
 0002:00015898       ??_C@_09NBAEHHHH@unix_fork?$AA@ 00441898     bpr:wam.obj
 0002:000158a4       ??_C@_07JLNDLJGI@unix_cd?$AA@ 004418a4     bpr:wam.obj
 0002:000158ac       ??_C@_0M@PDIABBGC@unix_access?$AA@ 004418ac     bpr:wam.obj
 0002:000158b8       ??_C@_0M@PNEAEILB@unix_getenv?$AA@ 004418b8     bpr:wam.obj
 0002:000158c4       ??_C@_09CENGCJKC@unix_argv?$AA@ 004418c4     bpr:wam.obj
 0002:000158d0       ??_C@_09BDGDMPLG@unix_argc?$AA@ 004418d0     bpr:wam.obj
 0002:000158dc       ??_C@_05CJCAOCOJ@fsize?$AA@ 004418dc     bpr:wam.obj
 0002:000158e4       ??_C@_06KPOIEIFN@fflush?$AA@ 004418e4     bpr:wam.obj
 0002:000158ec       ??_C@_05CIILPKJC@fputc?$AA@ 004418ec     bpr:wam.obj
 0002:000158f4       ??_C@_05KKFCOGJP@fgetc?$AA@ 004418f4     bpr:wam.obj
 0002:000158fc       ??_C@_0N@HBNFNCIC@close_stream?$AA@ 004418fc     bpr:wam.obj
 0002:0001590c       ??_C@_0M@FEDIGJHA@open_stream?$AA@ 0044190c     bpr:wam.obj
 0002:00015918       ??_C@_0M@ECDAFPG@dcg_telling?$AA@ 00441918     bpr:wam.obj
 0002:00015924       ??_C@_08HNPLADDJ@dcg_tell?$AA@ 00441924     bpr:wam.obj
 0002:00015930       ??_C@_07BFJJMFKL@dcg_val?$AA@ 00441930     bpr:wam.obj
 0002:00015938       ??_C@_07BCGPBKOJ@dcg_def?$AA@ 00441938     bpr:wam.obj
 0002:00015940       ??_C@_0M@CAPBMKFG@strip_cont0?$AA@ 00441940     bpr:wam.obj
 0002:0001594c       ??_C@_0M@GBOFFLLK@input_float?$AA@ 0044194c     bpr:wam.obj
 0002:00015958       ??_C@_09MDCIDHMI@float_fun?$AA@ 00441958     bpr:wam.obj
 0002:00015964       ??_C@_0L@HIAMDGME@float_fun2?$AA@ 00441964     bpr:wam.obj
 0002:00015970       ??_C@_0M@MBGCIOLK@term_append?$AA@ 00441970     bpr:wam.obj
 0002:0001597c       ??_C@_03DGEJJJBF@op0?$AA@  0044197c     bpr:wam.obj
 0002:00015980       ??_C@_09LKCJILHI@string_op?$AA@ 00441980     bpr:wam.obj
 0002:0001598c       ??_C@_0M@CPBALKCJ@see_tell_at?$AA@ 0044198c     bpr:wam.obj
 0002:00015998       ??_C@_0BC@ODPAOEIE@seeing_telling_at?$AA@ 00441998     bpr:wam.obj
 0002:000159ac       ??_C@_09IGOOHDAB@seen_told?$AA@ 004419ac     bpr:wam.obj
 0002:000159b8       ??_C@_08OEKKDECP@see_tell?$AA@ 004419b8     bpr:wam.obj
 0002:000159c4       ??_C@_0P@PBJNLEEL@seeing_telling?$AA@ 004419c4     bpr:wam.obj
 0002:000159d4       ??_C@_0L@IKDPFKIG@older_file?$AA@ 004419d4     bpr:wam.obj
 0002:000159e0       ??_C@_08DCBAFPPL@bb_list0?$AA@ 004419e0     bpr:wam.obj
 0002:000159ec       ??_C@_08HABBBAJN@unify_to?$AA@ 004419ec     bpr:wam.obj
 0002:000159f8       ??_C@_09KILDACP@copy_term?$AA@ 004419f8     bpr:wam.obj
 0002:00015a04       ??_C@_0M@DNAMKPBF@det_append0?$AA@ 00441a04     bpr:wam.obj
 0002:00015a10       ??_C@_09JMGBFMEE@add_instr?$AA@ 00441a10     bpr:wam.obj
 0002:00015a1c       ??_C@_0O@MDPNEFJO@call_external?$AA@ 00441a1c     bpr:wam.obj
 0002:00015a2c       ??_C@_09LPINCDNA@term2list?$AA@ 00441a2c     bpr:wam.obj
 0002:00015a38       ??_C@_09NDKIGIIP@list2term?$AA@ 00441a38     bpr:wam.obj
 0002:00015a44       ??_C@_0M@MCMEPNJI@dcg_connect?$AA@ 00441a44     bpr:wam.obj
 0002:00015a50       ??_C@_05LPDHCHAJ@popq0?$AA@ 00441a50     bpr:wam.obj
 0002:00015a58       ??_C@_06BPIBBNLP@pushq0?$AA@ 00441a58     bpr:wam.obj
 0002:00015a60       ??_C@_05NPBGAHOO@addq0?$AA@ 00441a60     bpr:wam.obj
 0002:00015a68       ??_C@_09JAJNBOPA@vset_int0?$AA@ 00441a68     bpr:wam.obj
 0002:00015a74       ??_C@_09GBLBANIN@vget_int0?$AA@ 00441a74     bpr:wam.obj
 0002:00015a80       ??_C@_0O@JEEGPBOI@destroy_array?$AA@ 00441a80     bpr:wam.obj
 0002:00015a90       ??_C@_0L@JENJLGHF@make_array?$AA@ 00441a90     bpr:wam.obj
 0002:00015a9c       ??_C@_09KGBLMLI@array_get?$AA@ 00441a9c     bpr:wam.obj
 0002:00015aa8       ??_C@_0L@BKPGGMPB@array_get0?$AA@ 00441aa8     bpr:wam.obj
 0002:00015ab4       ??_C@_09NFBKHMHA@array_set?$AA@ 00441ab4     bpr:wam.obj
 0002:00015ac0       ??_C@_0N@PBKCPGBA@get_asserted?$AA@ 00441ac0     bpr:wam.obj
 0002:00015ad0       ??_C@_04EBDALDGP@tlet?$AA@ 00441ad0     bpr:wam.obj
 0002:00015ad8       ??_C@_04PLIGDEBB@tval?$AA@ 00441ad8     bpr:wam.obj
 0002:00015ae0       ??_C@_04FOJGEOJC@hval?$AA@ 00441ae0     bpr:wam.obj
 0002:00015ae8       ??_C@_04NMMGNJED@gval?$AA@ 00441ae8     bpr:wam.obj
 0002:00015af0       ??_C@_09IKHNKIPC@deep_hash?$AA@ 00441af0     bpr:wam.obj
 0002:00015afc       ??_C@_07LMBAHEPP@namecat?$AA@ 00441afc     bpr:wam.obj
 0002:00015b04       ??_C@_06NJEJEAMK@symcat?$AA@ 00441b04     bpr:wam.obj
 0002:00015b0c       ??_C@_04KLBGOIFC@lval?$AA@ 00441b0c     bpr:wam.obj
 0002:00015b14       ??_C@_03BALCFKBP@val?$AA@  00441b14     bpr:wam.obj
 0002:00015b18       ??_C@_03KCHOJKKI@set?$AA@  00441b18     bpr:wam.obj
 0002:00015b1c       ??_C@_02IHJIIPDJ@rm?$AA@   00441b1c     bpr:wam.obj
 0002:00015b20       ??_C@_03BHEEIFFN@def?$AA@  00441b20     bpr:wam.obj
 0002:00015b24       ??_C@_0L@EDDPLIGA@change_arg?$AA@ 00441b24     bpr:wam.obj
 0002:00015b30       ??_C@_06BFCLODOJ@setarg?$AA@ 00441b30     bpr:wam.obj
 0002:00015b38       ??_C@_03CAOIPBNL@arg?$AA@  00441b38     bpr:wam.obj
 0002:00015b3c       ??_C@_08GAKOMNBB@compare0?$AA@ 00441b3c     bpr:wam.obj
 0002:00015b48       ??_C@_01KICIPPFI@?2?$AA@   00441b48     bpr:wam.obj
 0002:00015b4c       ??_C@_01IPJKGB@?$CD?$AA@   00441b4c     bpr:wam.obj
 0002:00015b50       ??_C@_02HHAEMJFE@?2?1?$AA@ 00441b50     bpr:wam.obj
 0002:00015b54       ??_C@_02CFKBDFGI@?1?2?$AA@ 00441b54     bpr:wam.obj
 0002:00015b58       ??_C@_02GPIOPFAK@?$DO?$DO?$AA@ 00441b58     bpr:wam.obj
 0002:00015b5c       ??_C@_02FODMEDOG@?$DM?$DM?$AA@ 00441b5c     bpr:wam.obj
 0002:00015b60       ??_C@_09LFIHNFML@arith_dif?$AA@ 00441b60     bpr:wam.obj
 0002:00015b6c       ??_C@_08HABCMMLO@arith_eq?$AA@ 00441b6c     bpr:wam.obj
 0002:00015b78       ??_C@_0L@DNMEHLDF@greater_eq?$AA@ 00441b78     bpr:wam.obj
 0002:00015b84       ??_C@_07BMIFENNI@less_eq?$AA@ 00441b84     bpr:wam.obj
 0002:00015b8c       ??_C@_07HACHKNFG@greater?$AA@ 00441b8c     bpr:wam.obj
 0002:00015b94       ??_C@_04DLECGJKD@less?$AA@ 00441b94     bpr:wam.obj
 0002:00015b9c       ??_C@_03KMONJGDG@put?$AA@  00441b9c     bpr:wam.obj
 0002:00015ba0       ??_C@_04JCIJFCPB@get0?$AA@ 00441ba0     bpr:wam.obj
 0002:00015ba8       ??_C@_06NLFCANPD@random?$AA@ 00441ba8     bpr:wam.obj
 0002:00015bb0       ??_C@_02CBLDBPFN@?1?1?$AA@ 00441bb0     bpr:wam.obj
 0002:00015bb4       ??_C@_03FFONCNID@mod?$AA@  00441bb4     bpr:wam.obj
 0002:00015bb8       ??_C@_0M@DJDHFDED@is_compiled?$AA@ 00441bb8     bpr:wam.obj
 0002:00015bc4       ??_C@_06EBJCPIO@atomic?$AA@ 00441bc4     bpr:wam.obj
 0002:00015bcc       ??_C@_07LKHFMGFB@integer?$AA@ 00441bcc     bpr:wam.obj
 0002:00015bd4       ??_C@_06HMPCCGLJ@nonvar?$AA@ 00441bd4     bpr:wam.obj
 0002:00015bdc       ??_C@_03HMCJLKIP@cnl?$AA@  00441bdc     bpr:wam.obj
 0002:00015be0       ??_C@_06EAKEBPMI@cwrite?$AA@ 00441be0     bpr:wam.obj
 0002:00015be8       ??_C@_04DNGGMPIC@$cut?$AA@ 00441be8     bpr:wam.obj
 0002:00015bf0       ??_C@_06KNIDAEJE@cut_to?$AA@ 00441bf0     bpr:wam.obj
 0002:00015bf8       ??_C@_0BO@FFNAGDDC@array_ref?13?0?5arg?51?3?5bad?5array?$AA@ 00441bf8     bpr:builtins.obj
 0002:00015c18       ??_C@_0CC@OLPICEGF@array_ref?13?3?5arg2?5bad?5array?5inde@ 00441c18     bpr:builtins.obj
 0002:00015c3c       ??_C@_0CF@EPBDPKKF@integer?5ctr?5expected?5in?5get_asse@ 00441c3c     bpr:builtins.obj
 0002:00015c64       ??_C@_0BP@OEFGDLEK@?8?4?8?12?5expected?5in?5get_asserted?$AA@ 00441c64     bpr:builtins.obj
 0002:00015c84       ??_C@_0BP@KAPHBOFC@?8?9?8?12?5expected?5in?5get_asserted?$AA@ 00441c84     bpr:builtins.obj
 0002:00015ca4       ??_C@_0CB@LEPJLFBJ@unix_argv?8s?51st?5arg?5not?5in?5range@ 00441ca4     bpr:builtins.obj
 0002:00015cc8       ??_C@_0CE@MINLCFLF@unix_argv?8s?51st?5arg?5must?5be?5inte@ 00441cc8     bpr:builtins.obj
 0002:00015cec       ??_C@_0CH@BPFMICIM@unix_getenv?8s?51st?5arg?5must?5be?5a?5@ 00441cec     bpr:builtins.obj
 0002:00015d14       ??_C@_0CH@GGKCIMLA@unix_access?8s?51st?5arg?5must?5be?5a?5@ 00441d14     bpr:builtins.obj
 0002:00015d3c       ??_C@_0CH@HNBHBGGH@unix_access?12?3?52nd?5arg?5must?5be?5i@ 00441d3c     bpr:builtins.obj
 0002:00015d64       ??_C@_0CD@CNNBALAH@unix_cd?8s?51st?5arg?5must?5be?5a?5symb@ 00441d64     bpr:builtins.obj
 0002:00015d88       ??_C@_0BJ@ECCEMBIN@unix_cd?11?3?5bad?5directory?$AA@ 00441d88     bpr:builtins.obj
 0002:00015da4       ??_C@_0BN@FEBOBAAF@bad?5file?5name?5in?5open_stream?$AA@ 00441da4     bpr:builtins.obj
 0002:00015dc4       ??_C@_0CB@DNAAMOJJ@unexpected?5option?5in?5open_stream@ 00441dc4     bpr:builtins.obj
 0002:00015de8       ??_C@_0BN@JHPLEMGG@C?9error?3?5popen?5not?5available?$AA@ 00441de8     bpr:builtins.obj
 0002:00015e08       ??_C@_0BB@NEPCAIIN@C?9error?5in?5fopen?$AA@ 00441e08     bpr:builtins.obj
 0002:00015e1c       ??_C@_0BK@GBHOCACO@bad?5opcode?5in?5open_stream?$AA@ 00441e1c     bpr:builtins.obj
 0002:00015e38       ??_C@_0BC@CGMIFBDM@C?9error?5in?5pclose?$AA@ 00441e38     bpr:builtins.obj
 0002:00015e4c       ??_C@_0BL@PNDDOIDI@bad?5opcode?5in?5close_stream?$AA@ 00441e4c     bpr:builtins.obj
 0002:00015e68       ??_C@_0CJ@DJIEGLFB@bb_size?5in?5bb_reset?5should?5be?5an@ 00441e68     bpr:builtins.obj
 0002:00015e94       ??_C@_0DA@GNLIEPLO@1?9st?5arg?5of?5new_name?12?5should?5be@ 00441e94     bpr:builtins.obj
 0002:00015ec4       ??_C@_0M@DEPOBDDI@v?$CFu?$CFlu?$CFs?$CFlu?$AA@ 00441ec4     bpr:builtins.obj
 0002:00015ed0       ??_C@_0BI@PPLLNBGE@symcat?13?3?5bad?5arguments?$AA@ 00441ed0     bpr:builtins.obj
 0002:00015ee8       ??_C@_0L@LHOLKKGE@?$CF?4250s_?$CFld?$AA@ 00441ee8     bpr:builtins.obj
 0002:00015ef4       ??_C@_0M@BAJEFOCJ@?$CF?4250s__?$CFld?$AA@ 00441ef4     bpr:builtins.obj
 0002:00015f00       ??_C@_0O@DOKBFKOC@?$CF?4250s_?$CF?4250s?$AA@ 00441f00     bpr:builtins.obj
 0002:00015f10       ??_C@_06DIJPEION@?$CFs?$CFs?$CFs?$AA@ 00441f10     bpr:builtins.obj
 0002:00015f18       ??_C@_03JALODAI@?$CFld?$AA@ 00441f18     bpr:builtins.obj
 0002:00015f1c       ??_C@_0BI@PMMODJNG@namecat?13?3?5bad?53?9nd?5arg?$AA@ 00441f1c     bpr:builtins.obj
 0002:00015f34       ??_C@_0BI@OLLFCNJF@namecat?13?3?5bad?52?9nd?5arg?$AA@ 00441f34     bpr:builtins.obj
 0002:00015f4c       ??_C@_0BI@NHOHOOMF@namecat?13?3?5bad?51?9st?5arg?$AA@ 00441f4c     bpr:builtins.obj
 0002:00015f64       ??_C@_0BH@IGKPECPI@bad?5file?5ar?5in?5fsize?11?$AA@ 00441f64     bpr:builtins.obj
 0002:00015f7c       ??_C@_0CE@FDDKFNGF@file?5error?5on?52?5arg?5in?5older_fil@ 00441f7c     bpr:builtins.obj
 0002:00015fa0       ??_C@_0CC@BEIGKCJI@bad?5old?5file?5name?5in?5older_file?1@ 00441fa0     bpr:builtins.obj
 0002:00015fc4       ??_C@_0CC@PMLMILOB@bad?5new?5file?5name?5in?5older_file?1@ 00441fc4     bpr:builtins.obj
 0002:00015fe8       ??_C@_0BN@LONLEFPO@bad?5file?5name?5in?5see?5or?5tell?$AA@ 00441fe8     bpr:builtins.obj
 0002:00016008       ??_C@_0N@GLAKPFBI@hdef?5in?5tell?$AA@ 00442008     bpr:builtins.obj
 0002:00016018       ??_C@_0N@DANBKALO@hset?5in?5tell?$AA@ 00442018     bpr:builtins.obj
 0002:00016028       ??_C@_0CF@CPBLHCCL@unimplemented?5bad?5see_tell?5opera@ 00442028     bpr:builtins.obj
 0002:00016050       ??_C@_0M@GJLFECND@hdef?5in?5see?$AA@ 00442050     bpr:builtins.obj
 0002:0001605c       ??_C@_0O@PIGFAEDC@hset?5in?5see?11?$AA@ 0044205c     bpr:builtins.obj
 0002:0001606c       ??_C@_0BN@DKNPLOKF@unable?5to?5reopen?5to?5see?5file?$AA@ 0044206c     bpr:builtins.obj
 0002:0001608c       ??_C@_0CK@HCMPMOJE@unimplemented?5see_at?5or?5tell_at?5@ 0044208c     bpr:builtins.obj
 0002:000160b8       ??_C@_0CN@MFBPNODI@arg?51?5of?5see_at?5or?5tell_at?11?5mus@ 004420b8     bpr:builtins.obj
 0002:000160e8       ??_C@_0CC@BHDHLEGG@unimplemented?5option?5in?5seen_tel@ 004420e8     bpr:builtins.obj
 0002:0001610c       ??_C@_0BI@CPMNHII@bad?5command?5in?5system?12?$AA@ 0044210c     bpr:builtins.obj
 0002:00016124       ??_C@_0BG@IMLEDNGP@functor?5has?5bad?5arity?$AA@ 00442124     bpr:builtins.obj
 0002:0001613c       ??_C@_0L@CDLABIOJ@arity?$DN?$CFld?6?$AA@ 0044213c     bpr:builtins.obj
 0002:00016148       ??_C@_0CD@JGHDALFP@string?5buffer?5overflow?5in?5list2b@ 00442148     bpr:builtins.obj
 0002:0001616c       ??_C@_0O@PGIILNLH@string2list?12?$AA@ 0044216c     bpr:builtins.obj
 0002:0001617c       ??_C@_0BO@CMCIONPO@bad?5data?5in?5args?$CI2?$CJ?5of?5name?12?$AA@ 0044217c     bpr:builtins.obj
 0002:0001619c       ??_C@_0BO@JBOCIBDA@bad?5data?5in?5args?$CI1?$CJ?5of?5name?12?$AA@ 0044219c     bpr:builtins.obj
 0002:000161bc       ??_C@_0CI@EOEMOECO@both?5args?5of?5name?12?5cannot?5be?5va@ 004421bc     bpr:builtins.obj
 0002:000161e4       ??_C@_0CH@KIFADCGP@string2list?5overflow?5in?5name2lis@ 004421e4     bpr:builtins.obj
 0002:0001620c       ??_C@_0DE@DFIPOGMG@bad?5first?5arg?5?$CIfunction?5address?$CJ@ 0044220c     bpr:builtins.obj
 0002:00016240       ??_C@_0CF@LJJBCGLA@bad?5data?5returned?5in?5call_extern@ 00442240     bpr:builtins.obj
 0002:00016268       ??_C@_0DB@GDOMKHOH@char?5list?5second?5arg?5expected?5in@ 00442268     bpr:builtins.obj
 0002:0001629c       ??_C@_0DF@MPNHBMGJ@list?5of?5chars?5second?5arg?5expecte@ 0044229c     bpr:builtins.obj
 0002:000162d4       ??_C@_0CP@MMNNOJNC@bad?5constructor?5starts?51st?5arg?5o@ 004422d4     bpr:builtins.obj
 0002:00016304       ??_C@_0CC@KPCLJLL@unexpected?51st?5arg?5of?5list2term?1@ 00442304     bpr:builtins.obj
 0002:00016328       ??_C@_0DE@IDHHKANB@atomic?5terminator?5should?5end?51st@ 00442328     bpr:builtins.obj
 0002:0001635c       ??_C@_0CG@FJHJHMJM@bad?5functor?5in?51st?5arg?5of?5list2t@ 0044235c     bpr:builtins.obj
 0002:00016384       ??_C@_0M@CBBDOLOK@list2term?12?$AA@ 00442384     bpr:builtins.obj
 0002:00016390       ??_C@_0CD@BPHDEBGB@list?5too?5big?3?51st?5arg?5of?5list2te@ 00442390     bpr:builtins.obj
 0002:000163b4       ??_C@_0CO@LPALGMMD@bad?5constructor?5starts?51st?5arg?5o@ 004423b4     bpr:builtins.obj
 0002:000163e4       ??_C@_0O@NDFAENJK@term_append?13?$AA@ 004423e4     bpr:builtins.obj
 0002:000163f4       ??_C@_0P@GPHNMKJP@value_trailing?$AA@ 004423f4     bpr:builtins.obj
 0002:00016404       ??_C@_0BP@BLHNCMLN@compound?5continuation?5expected?$AA@ 00442404     bpr:builtins.obj
 0002:00016424       ??_C@_0BB@KNOJMCEH@bad?5continuation?$AA@ 00442424     bpr:builtins.obj
 0002:00016438       ??_C@_0BM@MJDBOPPI@bad?5argument?5for?5dcg_stream?$AA@ 00442438     bpr:builtins.obj
 0002:00016454       ??_C@_0CH@NBANFCPK@setarg?13?8s?51st?5arg?5must?5be?5in?51?4@ 00442454     bpr:builtins.obj
 0002:0001647c       ??_C@_0CF@JBNALLHJ@setarg?13?8s?52nd?5arg?5cannot?5be?5unb@ 0044247c     bpr:builtins.obj
 0002:000164a4       ??_C@_0CE@DNNPPKEM@setarg?13?8s?52nd?5arg?5cannot?5be?5ato@ 004424a4     bpr:builtins.obj
 0002:000164c8       ??_C@_0CD@KKIHADFP@setarg?13?8s?51st?5arg?5must?5be?5integ@ 004424c8     bpr:builtins.obj
 0002:000164ec       ??_C@_0CL@EMAOANAM@change_arg?13?8s?51st?5arg?5must?5be?5i@ 004424ec     bpr:builtins.obj
 0002:00016518       ??_C@_0CJ@COOMPNN@change_arg?13?8s?52nd?5arg?5cannot?5be@ 00442518     bpr:builtins.obj
 0002:00016544       ??_C@_0CI@KFEMDMB@change_arg?13?8s?52nd?5arg?5cannot?5be@ 00442544     bpr:builtins.obj
 0002:0001656c       ??_C@_0CH@PJIFHOLE@change_arg?13?8s?51st?5arg?5must?5be?5i@ 0044256c     bpr:builtins.obj
 0002:00016594       ??_C@_09ELALGGOE@BAD_QUEUE?$AA@ 00442594     bpr:builtins.obj
 0002:000165a0       ??_C@_0BC@LAKIGKHP@BAD_TAIL_IN_addq0?$AA@ 004425a0     bpr:builtins.obj
 0002:000165b4       ??_C@_0CF@DKEENACG@irrecoverable?5error?5in?5error?5han@ 004425b4     bpr:builtins.obj
 0002:000165dc       ??_C@_0O@CKDLDIIO@HEAP_OVERFLOW?$AA@ 004425dc     bpr:builtins.obj
 0002:000165ec       ??_C@_0DA@HABGAFOD@bad?5constructor?5starts?52nd?5arg?5o@ 004425ec     bpr:builtins.obj
 0002:0001661c       ??_C@_0BE@IBGNKECF@bad?5data?5in?5compare?$AA@ 0044261c     bpr:term.obj
 0002:00016630       ??_C@_0BK@OCJKLDFJ@NULL?5data?5in?5compareTerms?$AA@ 00442630     bpr:term.obj
 0002:0001664c       ??_C@_0BH@KPMJPFKF@bad?5data?5in?5hashCodeOf?$AA@ 0044264c     bpr:term.obj
 0002:00016664       ??_C@_0BP@DHBJAHCG@maxdepth?5exceded?5in?5hashCodeOf?$AA@ 00442664     bpr:term.obj
 0002:00016684       ??_C@_0BG@NKJGPDON@NULL?5data?5in?5hashCode?$AA@ 00442684     bpr:term.obj
 0002:0001669c       ??_C@_07MHIBGEFC@?$DM?$DP?$CFld?$DP?$DO?$AA@ 0044269c     bpr:term.obj
 0002:000166a4       ??_C@_06NPMEBNE@?$CF?$CD?44lf?$AA@ 004426a4     bpr:term.obj
 0002:000166ac       ??_C@_04FECOJDBD@_?$CFld?$AA@ 004426ac     bpr:term.obj
 0002:000166b4       ??_C@_06OJHGLDPL@?$CInull?$CJ?$AA@ 004426b4     bpr:term.obj
 0002:000166bc       ??_C@_0BP@FPNIIBDK@bad?5data?5in?5internalize_object?$AA@ 004426bc     bpr:term.obj
 0002:000166dc       ??_C@_0BN@NOGECHEG@bad?5op?9code?5in?5term_store_op?$AA@ 004426dc     bpr:term.obj
 0002:000166fc       ??_C@_0BH@GPAOEOPE@compareTerms?$CIK?0V?$CJ?$DN?$CFld?6?$AA@ 004426fc     bpr:term.obj
 0002:00016714       ??_C@_0BN@OLNFHCCP@V?3to?5safely?5sized?5buffer?$DN?$CFs?6?$AA@ 00442714     bpr:term.obj
 0002:00016734       ??_C@_0BG@BIAAOPL@V?3stringLengthOf?$DN?$CFld?6?$AA@ 00442734     bpr:term.obj
 0002:0001674c       ??_C@_0BC@HONHNFNA@V?3toNewString?$DN?$CFs?6?$AA@ 0044274c     bpr:term.obj
 0002:00016760       ??_C@_0BA@PIHKDHEP@V?3hashCode?$DN?$CFld?6?$AA@ 00442760     bpr:term.obj
 0002:00016770       ??_C@_04MNJDMHJB@?$DM?$DNV?6?$AA@ 00442770     bpr:term.obj
 0002:00016778       ??_C@_0BA@BHBHELII@K?3hashCode?$DN?$CFld?6?$AA@ 00442778     bpr:term.obj
 0002:00016788       ??_C@_08OBDGPIMK@?$DM?$DNK?3?$CFld?6?$AA@ 00442788     bpr:term.obj
 0002:00016794       ??_C@_0CJ@BBOMNFCH@op?9code?5of?5C?9function?5must?5be?5an@ 00442794     bpr:term.obj
 0002:000167c0       ??_C@_06HPGHLIIM@?$CF?$CD?48Lf?$AA@ 004427c0     bpr:io.obj
 0002:000167c8       ??_C@_0DE@NAPGKGOC@string?5buffer?5?$CI?9i?5option?$CJ?5exceed@ 004427c8     bpr:io.obj
 0002:000167fc       ??_C@_0BG@NDKLGCIJ@?$CFs?5TAG?$DN?$CFld?0VALUE?$DN?$CFld?6?$AA@ 004427fc     bpr:float.obj
 0002:00016814       ??_C@_0CA@LPGOALAM@bad?5arg?5in?5arithmetic?5operation?$AA@ 00442814     bpr:float.obj
 0002:00016838       __real@0000000000000000    00442838     bpr:float.obj
 0002:00016840       ??_C@_03LBIMGNCB@?$DN?$DN?$DO?$AA@ 00442840     bpr:float.obj
 0002:00016848       __real@3ff0000000000000    00442848     bpr:float.obj
 0002:00016850       ??_C@_0N@HHIOKNCM@?$CFld?$CF?9se?$CF?9ld?5?$AA@ 00442850     bpr:float.obj
 0002:00016860       ??_C@_0BP@DPNAMAP@?$CFs?0?5tolerance?$DN?$CFld?5?$CIbytes?$CJ?6?5?$CFs?6?$AA@ 00442860     bpr:gc.obj
 0002:00016880       ??_C@_0CK@KADGKGKI@?$CK?$CK?$CK?5Not?5enough?5memory?5recovered?5@ 00442880     bpr:gc.obj
 0002:000168ac       ??_C@_0DB@IIELHGDO@?$CK?$CK?$CK?5Please?5start?5with?5more?5heap?0@ 004428ac     bpr:gc.obj
 0002:000168e0       ??_C@_0DE@MJEIKDBG@different?5number?5of?5forwarded?5th@ 004428e0     bpr:gc.obj
 0002:00016914       ??_C@_0CN@FBCFPGMN@Cannot?5allocate?5the?5extra_segmen@ 00442914     bpr:gc.obj
 0002:00016944       ??_C@_0CA@DAKIFLNE@more?5marked?5then?5forwarded?$DN?$CFld?6?$AA@ 00442944     bpr:gc.obj
 0002:00016964       ??_C@_0CA@ENFGAIDP@more?5forwarded?5then?5marked?$DN?$CFld?6?$AA@ 00442964     bpr:gc.obj
 0002:00016984       ??_C@_0CE@KKBEEMPA@Cannot?5allocate?5the?5begin_new_he@ 00442984     bpr:gc.obj
 0002:000169a8       ??_C@_0CK@DFNLKAFE@Cannot?5allocate?5the?5cpoint?5array@ 004429a8     bpr:gc.obj
 0002:000169d4       ??_C@_0CD@DIGKHJAB@GC?9error?3?5no?5memory?5for?5mark?5arr@ 004429d4     bpr:gc.obj
 0002:000169f8       ??_C@_04KJJCFCK@mark?$AA@  004429f8     bpr:gc.obj
 0002:00016a00       ??_C@_0CL@BJBJKHHB@after?5GC?5at?3?5?$CFs?1?$CFld?5?$CIrecovered?5?$CF@ 00442a00     bpr:gc.obj
 0002:00016a2c       ??_C@_0CH@GDGCLJEA@before?5GC?5at?3?5?$CFs?1?$CFld?5?$CIleft?5?$CFld?5b@ 00442a2c     bpr:gc.obj
 0002:00016a54       ??_C@_0CD@NCOAGJKH@Please?5enlarge?5heap?5with?5option?5@ 00442a54     bpr:gc.obj
 0002:00016a78       ??_C@_0P@MIGLKIOC@CorExitProcess?$AA@ 00442a78     LIBCMT:crt0dat.obj
 0002:00016a88       ??_C@_1BI@BGOHAHKC@?$AAm?$AAs?$AAc?$AAo?$AAr?$AAe?$AAe?$AA?4?$AAd?$AAl?$AAl?$AA?$AA@ 00442a88     LIBCMT:crt0dat.obj
 0002:00016aa0       ??_C@_04HBHDLLBA@PATH?$AA@ 00442aa0     LIBCMT:popen.obj
 0002:00016aa8       ??_C@_04NPFIMJFF@?5?1c?5?$AA@ 00442aa8     LIBCMT:popen.obj
 0002:00016ab0       ??_C@_07INNMNHPJ@cmd?4exe?$AA@ 00442ab0     LIBCMT:popen.obj
 0002:00016ab8       ??_C@_07CFPBBAOO@COMSPEC?$AA@ 00442ab8     LIBCMT:popen.obj
 0002:00016ac0       ??_C@_03LLEJOLGL@?4?1?2?$AA@ 00442ac0     LIBCMT:stati32.obj
 0002:00016ac4       ??_C@_02EAOCEIGI@?$DP?$CK?$AA@ 00442ac4     LIBCMT:stati32.obj
 0002:00016ac8       ??_C@_02HNHPBPFE@?1c?$AA@  00442ac8     LIBCMT:system.obj
 0002:00016acc       __FPinit                   00442acc     LIBCMT:_fpinit_.obj
 0002:00016b20       ??_C@_1O@CEDCILHN@?$AA?$CI?$AAn?$AAu?$AAl?$AAl?$AA?$CJ?$AA?$AA@ 00442b20     LIBCMT:output.obj
 0002:00016b30       ___lookuptable             00442b30     LIBCMT:output.obj
 0002:00016b8c       ??_C@_1BO@BKOMIGKJ@?$AAr?$AAu?$AAn?$AAt?$AAi?$AAm?$AAe?$AA?5?$AAe?$AAr?$AAr?$AAo?$AAr?$AA?5?$AA?$AA@ 00442b8c     LIBCMT:crt0msg.obj
 0002:00016bac       ??_C@_15JNBOKNOG@?$AA?$AN?$AA?6?$AA?$AA@ 00442bac     LIBCMT:crt0msg.obj
 0002:00016bb4       ??_C@_1BM@JBBEPPHI@?$AAT?$AAL?$AAO?$AAS?$AAS?$AA?5?$AAe?$AAr?$AAr?$AAo?$AAr?$AA?$AN?$AA?6?$AA?$AA@ 00442bb4     LIBCMT:crt0msg.obj
 0002:00016bd0       ??_C@_1BK@KMOMNAAI@?$AAS?$AAI?$AAN?$AAG?$AA?5?$AAe?$AAr?$AAr?$AAo?$AAr?$AA?$AN?$AA?6?$AA?$AA@ 00442bd0     LIBCMT:crt0msg.obj
 0002:00016bec       ??_C@_1BO@BFCDCGC@?$AAD?$AAO?$AAM?$AAA?$AAI?$AAN?$AA?5?$AAe?$AAr?$AAr?$AAo?$AAr?$AA?$AN?$AA?6?$AA?$AA@ 00442bec     LIBCMT:crt0msg.obj
 0002:00016c10       ??_C@_1BOO@KGEDBGAJ@?$AAR?$AA6?$AA0?$AA3?$AA3?$AA?$AN?$AA?6?$AA?9?$AA?5?$AAA?$AAt?$AAt?$AAe?$AAm?$AAp?$AAt?$AA?5?$AAt?$AAo?$AA?5?$AAu?$AAs?$AAe?$AA?5?$AAM?$AAS?$AAI?$AAL?$AA?5?$AAc?$AAo?$AAd@ 00442c10     LIBCMT:crt0msg.obj
 0002:00016e00       ??_C@_1GG@GOPILAJP@?$AAR?$AA6?$AA0?$AA3?$AA2?$AA?$AN?$AA?6?$AA?9?$AA?5?$AAn?$AAo?$AAt?$AA?5?$AAe?$AAn?$AAo?$AAu?$AAg?$AAh?$AA?5?$AAs?$AAp?$AAa?$AAc?$AAe?$AA?5?$AAf?$AAo?$AAr?$AA?5?$AAl?$AAo@ 00442e00     LIBCMT:crt0msg.obj
 0002:00016e68       ??_C@_1MG@ENCOOIDF@?$AAR?$AA6?$AA0?$AA3?$AA1?$AA?$AN?$AA?6?$AA?9?$AA?5?$AAA?$AAt?$AAt?$AAe?$AAm?$AAp?$AAt?$AA?5?$AAt?$AAo?$AA?5?$AAi?$AAn?$AAi?$AAt?$AAi?$AAa?$AAl?$AAi?$AAz?$AAe?$AA?5?$AAt@ 00442e68     LIBCMT:crt0msg.obj
 0002:00016f30       ??_C@_1DO@BMFCDCD@?$AAR?$AA6?$AA0?$AA3?$AA0?$AA?$AN?$AA?6?$AA?9?$AA?5?$AAC?$AAR?$AAT?$AA?5?$AAn?$AAo?$AAt?$AA?5?$AAi?$AAn?$AAi?$AAt?$AAi?$AAa?$AAl?$AAi?$AAz?$AAe?$AAd?$AA?$AN?$AA?6?$AA?$AA@ 00442f30     LIBCMT:crt0msg.obj
 0002:00016f70       ??_C@_1EK@HHFLMAOL@?$AAR?$AA6?$AA0?$AA2?$AA8?$AA?$AN?$AA?6?$AA?9?$AA?5?$AAu?$AAn?$AAa?$AAb?$AAl?$AAe?$AA?5?$AAt?$AAo?$AA?5?$AAi?$AAn?$AAi?$AAt?$AAi?$AAa?$AAl?$AAi?$AAz?$AAe?$AA?5?$AAh?$AAe@ 00442f70     LIBCMT:crt0msg.obj
 0002:00016fc0       ??_C@_1GK@MFGOKLAG@?$AAR?$AA6?$AA0?$AA2?$AA7?$AA?$AN?$AA?6?$AA?9?$AA?5?$AAn?$AAo?$AAt?$AA?5?$AAe?$AAn?$AAo?$AAu?$AAg?$AAh?$AA?5?$AAs?$AAp?$AAa?$AAc?$AAe?$AA?5?$AAf?$AAo?$AAr?$AA?5?$AAl?$AAo@ 00442fc0     LIBCMT:crt0msg.obj
 0002:00017030       ??_C@_1GK@MCAAGJMO@?$AAR?$AA6?$AA0?$AA2?$AA6?$AA?$AN?$AA?6?$AA?9?$AA?5?$AAn?$AAo?$AAt?$AA?5?$AAe?$AAn?$AAo?$AAu?$AAg?$AAh?$AA?5?$AAs?$AAp?$AAa?$AAc?$AAe?$AA?5?$AAf?$AAo?$AAr?$AA?5?$AAs?$AAt@ 00443030     LIBCMT:crt0msg.obj
 0002:000170a0       ??_C@_1EM@MAADIHMB@?$AAR?$AA6?$AA0?$AA2?$AA5?$AA?$AN?$AA?6?$AA?9?$AA?5?$AAp?$AAu?$AAr?$AAe?$AA?5?$AAv?$AAi?$AAr?$AAt?$AAu?$AAa?$AAl?$AA?5?$AAf?$AAu?$AAn?$AAc?$AAt?$AAi?$AAo?$AAn?$AA?5?$AAc@ 004430a0     LIBCMT:crt0msg.obj
 0002:000170f0       ??_C@_1GK@FHCKBEFA@?$AAR?$AA6?$AA0?$AA2?$AA4?$AA?$AN?$AA?6?$AA?9?$AA?5?$AAn?$AAo?$AAt?$AA?5?$AAe?$AAn?$AAo?$AAu?$AAg?$AAh?$AA?5?$AAs?$AAp?$AAa?$AAc?$AAe?$AA?5?$AAf?$AAo?$AAr?$AA?5?$AA_?$AAo@ 004430f0     LIBCMT:crt0msg.obj
 0002:00017160       ??_C@_1FC@ECHBIFBC@?$AAR?$AA6?$AA0?$AA1?$AA9?$AA?$AN?$AA?6?$AA?9?$AA?5?$AAu?$AAn?$AAa?$AAb?$AAl?$AAe?$AA?5?$AAt?$AAo?$AA?5?$AAo?$AAp?$AAe?$AAn?$AA?5?$AAc?$AAo?$AAn?$AAs?$AAo?$AAl?$AAe?$AA?5@ 00443160     LIBCMT:crt0msg.obj
 0002:000171b8       ??_C@_1EC@JIBHAOPH@?$AAR?$AA6?$AA0?$AA1?$AA8?$AA?$AN?$AA?6?$AA?9?$AA?5?$AAu?$AAn?$AAe?$AAx?$AAp?$AAe?$AAc?$AAt?$AAe?$AAd?$AA?5?$AAh?$AAe?$AAa?$AAp?$AA?5?$AAe?$AAr?$AAr?$AAo?$AAr?$AA?$AN?$AA?6@ 004431b8     LIBCMT:crt0msg.obj
 0002:00017200       ??_C@_1FK@BEOGODMC@?$AAR?$AA6?$AA0?$AA1?$AA7?$AA?$AN?$AA?6?$AA?9?$AA?5?$AAu?$AAn?$AAe?$AAx?$AAp?$AAe?$AAc?$AAt?$AAe?$AAd?$AA?5?$AAm?$AAu?$AAl?$AAt?$AAi?$AAt?$AAh?$AAr?$AAe?$AAa?$AAd?$AA?5@ 00443200     LIBCMT:crt0msg.obj
 0002:00017260       ??_C@_1FI@LOGNIKDM@?$AAR?$AA6?$AA0?$AA1?$AA6?$AA?$AN?$AA?6?$AA?9?$AA?5?$AAn?$AAo?$AAt?$AA?5?$AAe?$AAn?$AAo?$AAu?$AAg?$AAh?$AA?5?$AAs?$AAp?$AAa?$AAc?$AAe?$AA?5?$AAf?$AAo?$AAr?$AA?5?$AAt?$AAh@ 00443260     LIBCMT:crt0msg.obj
 0002:000172b8       ??_C@_1EG@BEHAGFJD@?$AAR?$AA6?$AA0?$AA1?$AA0?$AA?$AN?$AA?6?$AA?9?$AA?5?$AAa?$AAb?$AAo?$AAr?$AAt?$AA?$CI?$AA?$CJ?$AA?5?$AAh?$AAa?$AAs?$AA?5?$AAb?$AAe?$AAe?$AAn?$AA?5?$AAc?$AAa?$AAl?$AAl?$AAe?$AAd@ 004432b8     LIBCMT:crt0msg.obj
 0002:00017300       ??_C@_1FI@HONFMGBI@?$AAR?$AA6?$AA0?$AA0?$AA9?$AA?$AN?$AA?6?$AA?9?$AA?5?$AAn?$AAo?$AAt?$AA?5?$AAe?$AAn?$AAo?$AAu?$AAg?$AAh?$AA?5?$AAs?$AAp?$AAa?$AAc?$AAe?$AA?5?$AAf?$AAo?$AAr?$AA?5?$AAe?$AAn@ 00443300     LIBCMT:crt0msg.obj
 0002:00017358       ??_C@_1FE@LLNEDJMD@?$AAR?$AA6?$AA0?$AA0?$AA8?$AA?$AN?$AA?6?$AA?9?$AA?5?$AAn?$AAo?$AAt?$AA?5?$AAe?$AAn?$AAo?$AAu?$AAg?$AAh?$AA?5?$AAs?$AAp?$AAa?$AAc?$AAe?$AA?5?$AAf?$AAo?$AAr?$AA?5?$AAa?$AAr@ 00443358     LIBCMT:crt0msg.obj
 0002:000173b0       ??_C@_1FK@PGACCAFB@?$AAR?$AA6?$AA0?$AA0?$AA2?$AA?$AN?$AA?6?$AA?9?$AA?5?$AAf?$AAl?$AAo?$AAa?$AAt?$AAi?$AAn?$AAg?$AA?5?$AAp?$AAo?$AAi?$AAn?$AAt?$AA?5?$AAs?$AAu?$AAp?$AAp?$AAo?$AAr?$AAt?$AA?5@ 004433b0     LIBCMT:crt0msg.obj
 0002:000174c0       ??_C@_1EK@MBDPDCGA@?$AAM?$AAi?$AAc?$AAr?$AAo?$AAs?$AAo?$AAf?$AAt?$AA?5?$AAV?$AAi?$AAs?$AAu?$AAa?$AAl?$AA?5?$AAC?$AA?$CL?$AA?$CL?$AA?5?$AAR?$AAu?$AAn?$AAt?$AAi?$AAm?$AAe?$AA?5?$AAL?$AAi?$AAb@ 004434c0     LIBCMT:crt0msg.obj
 0002:0001750c       ??_C@_15IABLJNFO@?$AA?6?$AA?6?$AA?$AA@ 0044350c     LIBCMT:crt0msg.obj
 0002:00017514       ??_C@_17LGKOMLJ@?$AA?4?$AA?4?$AA?4?$AA?$AA@ 00443514     LIBCMT:crt0msg.obj
 0002:0001751c       ??_C@_1CO@EAEJAADC@?$AA?$DM?$AAp?$AAr?$AAo?$AAg?$AAr?$AAa?$AAm?$AA?5?$AAn?$AAa?$AAm?$AAe?$AA?5?$AAu?$AAn?$AAk?$AAn?$AAo?$AAw?$AAn?$AA?$DO?$AA?$AA@ 0044351c     LIBCMT:crt0msg.obj
 0002:0001754c       ??_C@_1DE@JNGNBFGO@?$AAR?$AAu?$AAn?$AAt?$AAi?$AAm?$AAe?$AA?5?$AAE?$AAr?$AAr?$AAo?$AAr?$AA?$CB?$AA?6?$AA?6?$AAP?$AAr?$AAo?$AAg?$AAr?$AAa?$AAm?$AA?3?$AA?5?$AA?$AA@ 0044354c     LIBCMT:crt0msg.obj
 0002:00017580       __XcptActTab               00443580     LIBCMT:winxfltr.obj
 0002:00017610       __First_FPE_Indx           00443610     LIBCMT:winxfltr.obj
 0002:00017614       __Num_FPE                  00443614     LIBCMT:winxfltr.obj
 0002:00017618       __XcptActTabSize           00443618     LIBCMT:winxfltr.obj
 0002:0001761c       __XcptActTabCount          0044361c     LIBCMT:winxfltr.obj
 0002:00017620       ??_C@_1BK@DBDEIDLH@?$AAK?$AAE?$AAR?$AAN?$AAE?$AAL?$AA3?$AA2?$AA?4?$AAD?$AAL?$AAL?$AA?$AA@ 00443620     LIBCMT:tidtable.obj
 0002:0001763c       ??_C@_07PEJMOBNF@FlsFree?$AA@ 0044363c     LIBCMT:tidtable.obj
 0002:00017644       ??_C@_0M@JCPCPOEF@FlsSetValue?$AA@ 00443644     LIBCMT:tidtable.obj
 0002:00017650       ??_C@_0M@GDNOONDI@FlsGetValue?$AA@ 00443650     LIBCMT:tidtable.obj
 0002:0001765c       ??_C@_08KNHFBNJ@FlsAlloc?$AA@ 0044365c     LIBCMT:tidtable.obj
 0002:00017670       ??_C@_0BG@KLEAJEFJ@Illegal?5byte?5sequence?$AA@ 00443670     LIBCMT:syserr.obj
 0002:00017688       ??_C@_0BE@ICMCHPHH@Directory?5not?5empty?$AA@ 00443688     LIBCMT:syserr.obj
 0002:0001769c       ??_C@_0BJ@IHEHINLI@Function?5not?5implemented?$AA@ 0044369c     LIBCMT:syserr.obj
 0002:000176b8       ??_C@_0BD@CLHBCGPB@No?5locks?5available?$AA@ 004436b8     LIBCMT:syserr.obj
 0002:000176cc       ??_C@_0BC@BEDIHIDK@Filename?5too?5long?$AA@ 004436cc     LIBCMT:syserr.obj
 0002:000176e0       ??_C@_0BK@JAEBMJJM@Resource?5deadlock?5avoided?$AA@ 004436e0     LIBCMT:syserr.obj
 0002:000176fc       ??_C@_0BB@FCBJFCAJ@Result?5too?5large?$AA@ 004436fc     LIBCMT:syserr.obj
 0002:00017710       ??_C@_0N@MMJPGLJK@Domain?5error?$AA@ 00443710     LIBCMT:syserr.obj
 0002:00017720       ??_C@_0M@LHEPIIOM@Broken?5pipe?$AA@ 00443720     LIBCMT:syserr.obj
 0002:0001772c       ??_C@_0P@PKCJJLLM@Too?5many?5links?$AA@ 0044372c     LIBCMT:syserr.obj
 0002:0001773c       ??_C@_0BG@DDBFNKBH@Read?9only?5file?5system?$AA@ 0044373c     LIBCMT:syserr.obj
 0002:00017754       ??_C@_0N@FEHLOILP@Invalid?5seek?$AA@ 00443754     LIBCMT:syserr.obj
 0002:00017764       ??_C@_0BI@FEALHKLD@No?5space?5left?5on?5device?$AA@ 00443764     LIBCMT:syserr.obj
 0002:0001777c       ??_C@_0P@LFMMIPAE@File?5too?5large?$AA@ 0044377c     LIBCMT:syserr.obj
 0002:0001778c       ??_C@_0CE@ONOKNLPF@Inappropriate?5I?1O?5control?5operat@ 0044378c     LIBCMT:syserr.obj
 0002:000177b0       ??_C@_0BE@INBJMKGG@Too?5many?5open?5files?$AA@ 004437b0     LIBCMT:syserr.obj
 0002:000177c4       ??_C@_0BO@IIFBODJE@Too?5many?5open?5files?5in?5system?$AA@ 004437c4     LIBCMT:syserr.obj
 0002:000177e4       ??_C@_0BB@HMGGCEBG@Invalid?5argument?$AA@ 004437e4     LIBCMT:syserr.obj
 0002:000177f8       ??_C@_0P@NDHGCGKE@Is?5a?5directory?$AA@ 004437f8     LIBCMT:syserr.obj
 0002:00017808       ??_C@_0BA@CJBACOOL@Not?5a?5directory?$AA@ 00443808     LIBCMT:syserr.obj
 0002:00017818       ??_C@_0P@NLEIANHE@No?5such?5device?$AA@ 00443818     LIBCMT:syserr.obj
 0002:00017828       ??_C@_0O@OAMDNOCP@Improper?5link?$AA@ 00443828     LIBCMT:syserr.obj
 0002:00017838       ??_C@_0M@NAAJNNGH@File?5exists?$AA@ 00443838     LIBCMT:syserr.obj
 0002:00017844       ??_C@_0BA@BIBLIOEK@Resource?5device?$AA@ 00443844     LIBCMT:syserr.obj
 0002:00017854       ??_C@_0O@NIPGCINC@Unknown?5error?$AA@ 00443854     LIBCMT:syserr.obj
 0002:00017864       ??_C@_0M@LOEHLCJD@Bad?5address?$AA@ 00443864     LIBCMT:syserr.obj
 0002:00017870       ??_C@_0BC@HFNFNKAI@Permission?5denied?$AA@ 00443870     LIBCMT:syserr.obj
 0002:00017884       ??_C@_0BB@IMDKMPFB@Not?5enough?5space?$AA@ 00443884     LIBCMT:syserr.obj
 0002:00017898       ??_C@_0CB@EPFKGNAK@Resource?5temporarily?5unavailable@ 00443898     LIBCMT:syserr.obj
 0002:000178bc       ??_C@_0BD@LOHELEP@No?5child?5processes?$AA@ 004438bc     LIBCMT:syserr.obj
 0002:000178d0       ??_C@_0BE@NFGDDCEF@Bad?5file?5descriptor?$AA@ 004438d0     LIBCMT:syserr.obj
 0002:000178e4       ??_C@_0BC@HKPNECK@Exec?5format?5error?$AA@ 004438e4     LIBCMT:syserr.obj
 0002:000178f8       ??_C@_0BC@MFFGCDFL@Arg?5list?5too?5long?$AA@ 004438f8     LIBCMT:syserr.obj
 0002:0001790c       ??_C@_0BK@DPKMCKJ@No?5such?5device?5or?5address?$AA@ 0044390c     LIBCMT:syserr.obj
 0002:00017928       ??_C@_0BD@KKNFOBBD@Input?1output?5error?$AA@ 00443928     LIBCMT:syserr.obj
 0002:0001793c       ??_C@_0BK@FJBOAFDK@Interrupted?5function?5call?$AA@ 0044393c     LIBCMT:syserr.obj
 0002:00017958       ??_C@_0BA@FKIAIBGA@No?5such?5process?$AA@ 00443958     LIBCMT:syserr.obj
 0002:00017968       ??_C@_0BK@FMDHKPNF@No?5such?5file?5or?5directory?$AA@ 00443968     LIBCMT:syserr.obj
 0002:00017984       ??_C@_0BI@BJFCGOHL@Operation?5not?5permitted?$AA@ 00443984     LIBCMT:syserr.obj
 0002:0001799c       ??_C@_08INEPGKHH@No?5error?$AA@ 0044399c     LIBCMT:syserr.obj
 0002:000179a8       ??_C@_1BC@GDGBMEMK@?$AAH?$AAH?$AA?3?$AAm?$AAm?$AA?3?$AAs?$AAs?$AA?$AA@ 004439a8     LIBCMT:nlsdata2.obj
 0002:000179bc       ??_C@_1CI@KNAKOEBC@?$AAd?$AAd?$AAd?$AAd?$AA?0?$AA?5?$AAM?$AAM?$AAM?$AAM?$AA?5?$AAd?$AAd?$AA?0?$AA?5?$AAy?$AAy?$AAy?$AAy?$AA?$AA@ 004439bc     LIBCMT:nlsdata2.obj
 0002:000179e4       ??_C@_1BC@IEBCMHCM@?$AAM?$AAM?$AA?1?$AAd?$AAd?$AA?1?$AAy?$AAy?$AA?$AA@ 004439e4     LIBCMT:nlsdata2.obj
 0002:000179f8       ??_C@_15CLMNNGEL@?$AAP?$AAM?$AA?$AA@ 004439f8     LIBCMT:nlsdata2.obj
 0002:00017a00       ??_C@_15ODEHAHHF@?$AAA?$AAM?$AA?$AA@ 00443a00     LIBCMT:nlsdata2.obj
 0002:00017a08       ??_C@_1BC@FEMKIFH@?$AAD?$AAe?$AAc?$AAe?$AAm?$AAb?$AAe?$AAr?$AA?$AA@ 00443a08     LIBCMT:nlsdata2.obj
 0002:00017a1c       ??_C@_1BC@BGLIFPF@?$AAN?$AAo?$AAv?$AAe?$AAm?$AAb?$AAe?$AAr?$AA?$AA@ 00443a1c     LIBCMT:nlsdata2.obj
 0002:00017a30       ??_C@_1BA@EPANDLNG@?$AAO?$AAc?$AAt?$AAo?$AAb?$AAe?$AAr?$AA?$AA@ 00443a30     LIBCMT:nlsdata2.obj
 0002:00017a40       ??_C@_1BE@DKAAMBJL@?$AAS?$AAe?$AAp?$AAt?$AAe?$AAm?$AAb?$AAe?$AAr?$AA?$AA@ 00443a40     LIBCMT:nlsdata2.obj
 0002:00017a54       ??_C@_1O@PAHLKOAC@?$AAA?$AAu?$AAg?$AAu?$AAs?$AAt?$AA?$AA@ 00443a54     LIBCMT:nlsdata2.obj
 0002:00017a64       ??_C@_19BIFMLPCD@?$AAJ?$AAu?$AAl?$AAy?$AA?$AA@ 00443a64     LIBCMT:nlsdata2.obj
 0002:00017a70       ??_C@_19EPFLPGAP@?$AAJ?$AAu?$AAn?$AAe?$AA?$AA@ 00443a70     LIBCMT:nlsdata2.obj
 0002:00017a7c       ??_C@_1M@GJNLMHFD@?$AAA?$AAp?$AAr?$AAi?$AAl?$AA?$AA@ 00443a7c     LIBCMT:nlsdata2.obj
 0002:00017a88       ??_C@_1M@IKEENEDF@?$AAM?$AAa?$AAr?$AAc?$AAh?$AA?$AA@ 00443a88     LIBCMT:nlsdata2.obj
 0002:00017a94       ??_C@_1BC@JGDDFFAM@?$AAF?$AAe?$AAb?$AAr?$AAu?$AAa?$AAr?$AAy?$AA?$AA@ 00443a94     LIBCMT:nlsdata2.obj
 0002:00017aa8       ??_C@_1BA@EFMEIEBA@?$AAJ?$AAa?$AAn?$AAu?$AAa?$AAr?$AAy?$AA?$AA@ 00443aa8     LIBCMT:nlsdata2.obj
 0002:00017ab8       ??_C@_17EGKACKIF@?$AAD?$AAe?$AAc?$AA?$AA@ 00443ab8     LIBCMT:nlsdata2.obj
 0002:00017ac0       ??_C@_17BBDMLCIG@?$AAN?$AAo?$AAv?$AA?$AA@ 00443ac0     LIBCMT:nlsdata2.obj
 0002:00017ac8       ??_C@_17FNLKOI@?$AAO?$AAc?$AAt?$AA?$AA@ 00443ac8     LIBCMT:nlsdata2.obj
 0002:00017ad0       ??_C@_17HCHCOKMG@?$AAS?$AAe?$AAp?$AA?$AA@ 00443ad0     LIBCMT:nlsdata2.obj
 0002:00017ad8       ??_C@_17ICPELBCN@?$AAA?$AAu?$AAg?$AA?$AA@ 00443ad8     LIBCMT:nlsdata2.obj
 0002:00017ae0       ??_C@_17IJPCKHK@?$AAJ?$AAu?$AAl?$AA?$AA@ 00443ae0     LIBCMT:nlsdata2.obj
 0002:00017ae8       ??_C@_17KCJGOCPB@?$AAJ?$AAu?$AAn?$AA?$AA@ 00443ae8     LIBCMT:nlsdata2.obj
 0002:00017af0       ??_C@_17PNNKMEED@?$AAM?$AAa?$AAy?$AA?$AA@ 00443af0     LIBCMT:nlsdata2.obj
 0002:00017af8       ??_C@_17LFPOIHDD@?$AAA?$AAp?$AAr?$AA?$AA@ 00443af8     LIBCMT:nlsdata2.obj
 0002:00017b00       ??_C@_17CKNLEDEC@?$AAM?$AAa?$AAr?$AA?$AA@ 00443b00     LIBCMT:nlsdata2.obj
 0002:00017b08       ??_C@_17LMDJEKJN@?$AAF?$AAe?$AAb?$AA?$AA@ 00443b08     LIBCMT:nlsdata2.obj
 0002:00017b10       ??_C@_17DKNBKCHM@?$AAJ?$AAa?$AAn?$AA?$AA@ 00443b10     LIBCMT:nlsdata2.obj
 0002:00017b18       ??_C@_1BC@ENMNNPAJ@?$AAS?$AAa?$AAt?$AAu?$AAr?$AAd?$AAa?$AAy?$AA?$AA@ 00443b18     LIBCMT:nlsdata2.obj
 0002:00017b2c       ??_C@_1O@PDICJHAG@?$AAF?$AAr?$AAi?$AAd?$AAa?$AAy?$AA?$AA@ 00443b2c     LIBCMT:nlsdata2.obj
 0002:00017b3c       ??_C@_1BC@HHMNLIHE@?$AAT?$AAh?$AAu?$AAr?$AAs?$AAd?$AAa?$AAy?$AA?$AA@ 00443b3c     LIBCMT:nlsdata2.obj
 0002:00017b50       ??_C@_1BE@EBOGMDOH@?$AAW?$AAe?$AAd?$AAn?$AAe?$AAs?$AAd?$AAa?$AAy?$AA?$AA@ 00443b50     LIBCMT:nlsdata2.obj
 0002:00017b64       ??_C@_1BA@ENFBFFEK@?$AAT?$AAu?$AAe?$AAs?$AAd?$AAa?$AAy?$AA?$AA@ 00443b64     LIBCMT:nlsdata2.obj
 0002:00017b74       ??_C@_1O@MMNBFLIA@?$AAM?$AAo?$AAn?$AAd?$AAa?$AAy?$AA?$AA@ 00443b74     LIBCMT:nlsdata2.obj
 0002:00017b84       ??_C@_1O@IHNHDHPB@?$AAS?$AAu?$AAn?$AAd?$AAa?$AAy?$AA?$AA@ 00443b84     LIBCMT:nlsdata2.obj
 0002:00017b94       ??_C@_17GGIBDPIH@?$AAS?$AAa?$AAt?$AA?$AA@ 00443b94     LIBCMT:nlsdata2.obj
 0002:00017b9c       ??_C@_17HFOLPPLP@?$AAF?$AAr?$AAi?$AA?$AA@ 00443b9c     LIBCMT:nlsdata2.obj
 0002:00017ba4       ??_C@_17PDPHAADD@?$AAT?$AAh?$AAu?$AA?$AA@ 00443ba4     LIBCMT:nlsdata2.obj
 0002:00017bac       ??_C@_17CJEDCEPE@?$AAW?$AAe?$AAd?$AA?$AA@ 00443bac     LIBCMT:nlsdata2.obj
 0002:00017bb4       ??_C@_17BMKGEGOJ@?$AAT?$AAu?$AAe?$AA?$AA@ 00443bb4     LIBCMT:nlsdata2.obj
 0002:00017bbc       ??_C@_17KBOMKBF@?$AAM?$AAo?$AAn?$AA?$AA@ 00443bbc     LIBCMT:nlsdata2.obj
 0002:00017bc4       ??_C@_17MBGCMIPB@?$AAS?$AAu?$AAn?$AA?$AA@ 00443bc4     LIBCMT:nlsdata2.obj
 0002:00017bcc       ??_C@_08JCCMCCIL@HH?3mm?3ss?$AA@ 00443bcc     LIBCMT:nlsdata2.obj
 0002:00017bd8       ??_C@_0BE@CKGJFCPC@dddd?0?5MMMM?5dd?0?5yyyy?$AA@ 00443bd8     LIBCMT:nlsdata2.obj
 0002:00017bec       ??_C@_08BPBNCDIB@MM?1dd?1yy?$AA@ 00443bec     LIBCMT:nlsdata2.obj
 0002:00017bf8       ??_C@_02CJNFDJBF@PM?$AA@   00443bf8     LIBCMT:nlsdata2.obj
 0002:00017bfc       ??_C@_02DEDBPAFC@AM?$AA@   00443bfc     LIBCMT:nlsdata2.obj
 0002:00017c00       ??_C@_08EDHMEBNP@December?$AA@ 00443c00     LIBCMT:nlsdata2.obj
 0002:00017c0c       ??_C@_08HCHEGEOA@November?$AA@ 00443c0c     LIBCMT:nlsdata2.obj
 0002:00017c18       ??_C@_07JJNFCEND@October?$AA@ 00443c18     LIBCMT:nlsdata2.obj
 0002:00017c20       ??_C@_09BHHEALKD@September?$AA@ 00443c20     LIBCMT:nlsdata2.obj
 0002:00017c2c       ??_C@_06LBBHFDDG@August?$AA@ 00443c2c     LIBCMT:nlsdata2.obj
 0002:00017c34       ??_C@_04MIEPOIFP@July?$AA@ 00443c34     LIBCMT:nlsdata2.obj
 0002:00017c3c       ??_C@_04CNLMGBGM@June?$AA@ 00443c3c     LIBCMT:nlsdata2.obj
 0002:00017c44       ??_C@_05DMJDNLEJ@April?$AA@ 00443c44     LIBCMT:nlsdata2.obj
 0002:00017c4c       ??_C@_05HPCKOFNC@March?$AA@ 00443c4c     LIBCMT:nlsdata2.obj
 0002:00017c54       ??_C@_08GNJGEPFN@February?$AA@ 00443c54     LIBCMT:nlsdata2.obj
 0002:00017c60       ??_C@_07CGJPFGJA@January?$AA@ 00443c60     LIBCMT:nlsdata2.obj
 0002:00017c68       ??_C@_03MKABNOCG@Dec?$AA@  00443c68     LIBCMT:nlsdata2.obj
 0002:00017c6c       ??_C@_03JPJOFNIA@Nov?$AA@  00443c6c     LIBCMT:nlsdata2.obj
 0002:00017c70       ??_C@_03BMAOKBAD@Oct?$AA@  00443c70     LIBCMT:nlsdata2.obj
 0002:00017c74       ??_C@_03GGCAPAJC@Sep?$AA@  00443c74     LIBCMT:nlsdata2.obj
 0002:00017c78       ??_C@_03IFJFEIGA@Aug?$AA@  00443c78     LIBCMT:nlsdata2.obj
 0002:00017c7c       ??_C@_03LBGABGKK@Jul?$AA@  00443c7c     LIBCMT:nlsdata2.obj
 0002:00017c80       ??_C@_03IDFGHECI@Jun?$AA@  00443c80     LIBCMT:nlsdata2.obj
 0002:00017c84       ??_C@_03CNMDKL@May?$AA@    00443c84     LIBCMT:nlsdata2.obj
 0002:00017c88       ??_C@_03LEOLGMJP@Apr?$AA@  00443c88     LIBCMT:nlsdata2.obj
 0002:00017c8c       ??_C@_03ODNJBKGA@Mar?$AA@  00443c8c     LIBCMT:nlsdata2.obj
 0002:00017c90       ??_C@_03HJBDCHOM@Feb?$AA@  00443c90     LIBCMT:nlsdata2.obj
 0002:00017c94       ??_C@_03JIHJHPIE@Jan?$AA@  00443c94     LIBCMT:nlsdata2.obj
 0002:00017c98       ??_C@_08INBOOONO@Saturday?$AA@ 00443c98     LIBCMT:nlsdata2.obj
 0002:00017ca4       ??_C@_06JECMNKMI@Friday?$AA@ 00443ca4     LIBCMT:nlsdata2.obj
 0002:00017cac       ??_C@_08HACCIKIA@Thursday?$AA@ 00443cac     LIBCMT:nlsdata2.obj
 0002:00017cb8       ??_C@_09DLIGFAKA@Wednesday?$AA@ 00443cb8     LIBCMT:nlsdata2.obj
 0002:00017cc4       ??_C@_07BAAGCFCM@Tuesday?$AA@ 00443cc4     LIBCMT:nlsdata2.obj
 0002:00017ccc       ??_C@_06JLEDEDGH@Monday?$AA@ 00443ccc     LIBCMT:nlsdata2.obj
 0002:00017cd4       ??_C@_06OOPIFAJ@Sunday?$AA@ 00443cd4     LIBCMT:nlsdata2.obj
 0002:00017cdc       ??_C@_03FEFJNEK@Sat?$AA@   00443cdc     LIBCMT:nlsdata2.obj
 0002:00017ce0       ??_C@_03IDIOELNC@Fri?$AA@  00443ce0     LIBCMT:nlsdata2.obj
 0002:00017ce4       ??_C@_03IOFIKPDN@Thu?$AA@  00443ce4     LIBCMT:nlsdata2.obj
 0002:00017ce8       ??_C@_03MHOMLAJA@Wed?$AA@  00443ce8     LIBCMT:nlsdata2.obj
 0002:00017cec       ??_C@_03NAGEINEP@Tue?$AA@  00443cec     LIBCMT:nlsdata2.obj
 0002:00017cf0       ??_C@_03PDAGKDH@Mon?$AA@   00443cf0     LIBCMT:nlsdata2.obj
 0002:00017cf4       ??_C@_03KOEHGMDN@Sun?$AA@  00443cf4     LIBCMT:nlsdata2.obj
 0002:00017d98       ??_C@_04PNGHFIJN@?4com?$AA@ 00443d98     LIBCMT:stat.obj
 0002:00017da0       ??_C@_04NEEFLLOK@?4bat?$AA@ 00443da0     LIBCMT:stat.obj
 0002:00017da8       ??_C@_04CPCBDHLK@?4cmd?$AA@ 00443da8     LIBCMT:stat.obj
 0002:00017db0       ??_C@_04JLMDILM@?4exe?$AA@ 00443db0     LIBCMT:stat.obj
 0002:00017db8       ??_C@_02CEGDFPFP@?4?2?$AA@ 00443db8     LIBCMT:spawnve.obj
 0002:00017dbc       ??_C@_05KLBDPFGC@e?$CL000?$AA@ 00443dbc     LIBCMT:cvt.obj
 0002:00017dd0       __indefinite               00443dd0     LIBCMT:_87disp_.obj
 0002:00017dda       __piby2                    00443dda     LIBCMT:_87disp_.obj
 0002:00017e08       __DEFAULT_CW_in_mem        00443e08     LIBCMT:_common_.obj
 0002:00017e0a       __pi_by_2_to_61            00443e0a     LIBCMT:_common_.obj
 0002:00017e50       __OP_ATAN2jmptab           00443e50     LIBCMT:_87triga_.obj
 0002:000187d0       __infinity                 004447d0     LIBCMT:_87tran_.obj
 0002:000187da       __minfinity                004447da     LIBCMT:_87tran_.obj
 0002:000187e4       __logemax                  004447e4     LIBCMT:_87tran_.obj
 0002:0001880a       __OP_EXPjmptab             0044480a     LIBCMT:_87tran_.obj
 0002:0001c170       __real@3fe0000000000000    00448170     LIBCMT:_powhlp_.obj
 0002:00022028       ??_C@_04EHEDPDJG@modf?$AA@ 0044e028     LIBCMT:_libm_error_.obj
 0002:00022030       ??_C@_04GFPJNGEK@ceil?$AA@ 0044e030     LIBCMT:_libm_error_.obj
 0002:00022038       ??_C@_05EOHGHCHD@exp10?$AA@ 0044e038     LIBCMT:_libm_error_.obj
 0002:00022040       ??_C@_05HGHHAHAP@log10?$AA@ 0044e040     LIBCMT:_libm_error_.obj
 0002:00022048       ___lookuptable_s           0044e048     LIBCMT:outputs.obj
 0002:000220a4       ??_C@_0BI@DFKBFLJE@GetProcessWindowStation?$AA@ 0044e0a4     LIBCMT:crtmboxw.obj
 0002:000220bc       ??_C@_0BK@DEKFELLI@GetUserObjectInformationW?$AA@ 0044e0bc     LIBCMT:crtmboxw.obj
 0002:000220d8       ??_C@_0BD@HHGDFDBJ@GetLastActivePopup?$AA@ 0044e0d8     LIBCMT:crtmboxw.obj
 0002:000220ec       ??_C@_0BA@HNOPNCHB@GetActiveWindow?$AA@ 0044e0ec     LIBCMT:crtmboxw.obj
 0002:000220fc       ??_C@_0M@DLDCCGNP@MessageBoxW?$AA@ 0044e0fc     LIBCMT:crtmboxw.obj
 0002:00022108       ??_C@_1BG@GOEBHBDC@?$AAU?$AAS?$AAE?$AAR?$AA3?$AA2?$AA?4?$AAD?$AAL?$AAL?$AA?$AA@ 0044e108     LIBCMT:crtmboxw.obj
 0002:00022120       ___newctype                0044e120     LIBCMT:ctype.obj
 0002:00022420       __wctype                   0044e420     LIBCMT:ctype.obj
 0002:00022628       ___newclmap                0044e628     LIBCMT:ctype.obj
 0002:000227a8       ___newcumap                0044e7a8     LIBCMT:ctype.obj
 0002:00022928       ??_C@_02CLFPBFFP@TZ?$AA@   0044e928     LIBCMT:tzset.obj
 0002:0002292c       ___dnames                  0044e92c     LIBCMT:timeset.obj
 0002:00022944       ___mnames                  0044e944     LIBCMT:timeset.obj
 0002:0002296c       ??_C@_0L@NKOGAPMJ@SystemRoot?$AA@ 0044e96c     LIBCMT:cenvarg.obj
 0002:00022978       __atan_table               0044e978     LIBCMT:_atan_table_.obj
 0002:00024188       ??_C@_0L@KDOEJCKC@_nextafter?$AA@ 00450188     LIBCMT:_fpexcept_.obj
 0002:00024194       ??_C@_05JGDBENOH@_logb?$AA@ 00450194     LIBCMT:_fpexcept_.obj
 0002:0002419c       ??_C@_03ONILCKOB@_yn?$AA@  0045019c     LIBCMT:_fpexcept_.obj
 0002:000241a0       ??_C@_03NAKIGLHK@_y1?$AA@  004501a0     LIBCMT:_fpexcept_.obj
 0002:000241a4       ??_C@_03MJLDFKDL@_y0?$AA@  004501a4     LIBCMT:_fpexcept_.obj
 0002:000241a8       ??_C@_05GKKHEGJL@frexp?$AA@ 004501a8     LIBCMT:_fpexcept_.obj
 0002:000241b0       ??_C@_04KEPJIHGP@fmod?$AA@ 004501b0     LIBCMT:_fpexcept_.obj
 0002:000241b8       ??_C@_06MEIMCGCF@_hypot?$AA@ 004501b8     LIBCMT:_fpexcept_.obj
 0002:000241c0       ??_C@_05KBKMEMPO@_cabs?$AA@ 004501c0     LIBCMT:_fpexcept_.obj
 0002:000241c8       ??_C@_05CEJMAHNP@ldexp?$AA@ 004501c8     LIBCMT:_fpexcept_.obj
 0002:000241d0       ??_C@_04ODHECPBC@fabs?$AA@ 004501d0     LIBCMT:_fpexcept_.obj
 0002:000241d8       ??_C@_04FJHINJAO@tanh?$AA@ 004501d8     LIBCMT:_fpexcept_.obj
 0002:000241e0       ??_C@_04HPJJNFIM@cosh?$AA@ 004501e0     LIBCMT:_fpexcept_.obj
 0002:000241e8       ??_C@_04COOMCNPB@sinh?$AA@ 004501e8     LIBCMT:_fpexcept_.obj
 0002:000241f0       ??_C@_1BA@BALFACEM@?$AAC?$AAO?$AAN?$AAO?$AAU?$AAT?$AA$?$AA?$AA@ 004501f0     LIBCMT:initcon.obj
 0002:00024200       ??_C@_06IMKFLFPG@1?$CDQNAN?$AA@ 00450200     LIBCMT:_x10fout_.obj
 0002:00024208       ??_C@_05DNEBIAHO@1?$CDINF?$AA@ 00450208     LIBCMT:_x10fout_.obj
 0002:00024210       ??_C@_05PHHOCPM@1?$CDIND?$AA@ 00450210     LIBCMT:_x10fout_.obj
 0002:00024218       ??_C@_06PGGFOGJG@1?$CDSNAN?$AA@ 00450218     LIBCMT:_x10fout_.obj
 0002:00024220       __load_config_used         00450220     LIBCMT:loadcfg.obj
 0002:00024270       ___safe_se_handler_table   00450270     <linker-defined>
 0002:0002427c       ___rtc_iaa                 0045027c     LIBCMT:_initsect_.obj
 0002:00024280       ___rtc_izz                 00450280     LIBCMT:_initsect_.obj
 0002:00024284       ___rtc_taa                 00450284     LIBCMT:_initsect_.obj
 0002:00024288       ___rtc_tzz                 00450288     LIBCMT:_initsect_.obj
 0002:00024954       __IMPORT_DESCRIPTOR_KERNEL32 00450954     kernel32:KERNEL32.dll
 0002:00024968       __IMPORT_DESCRIPTOR_WSOCK32 00450968     wsock32:WSOCK32.dll
 0002:0002497c       __NULL_IMPORT_DESCRIPTOR   0045097c     kernel32:KERNEL32.dll
 0003:00000000       _user_bp                   00452000     brev.obj
 0003:00001170       _user_bp_size              00453170     brev.obj
 0003:00001174       _c_interface               00453174     c.obj
 0003:0000117c       _max                       0045317c     bpr:ru.obj
 0003:000011c8       _wam_bp                    004531c8     bpr:wam.obj
 0003:000910e4       _wam_bp_size               004e30e4     bpr:wam.obj
 0003:000910f0       __iob                      004e30f0     LIBCMT:_file.obj
 0003:00091370       ___app_type                004e3370     LIBCMT:crt0.obj
 0003:00091374       ___security_cookie         004e3374     LIBCMT:gs_cookie.obj
 0003:00091378       ___security_cookie_complement 004e3378     LIBCMT:gs_cookie.obj
 0003:000914f0       __fltused                  004e34f0     LIBCMT:_fpinit_.obj
 0003:000914f4       __ldused                   004e34f4     LIBCMT:_fpinit_.obj
 0003:00091520       __half                     004e3520     LIBCMT:_pow_.obj
 0003:00091590       ___nullstring              004e3590     LIBCMT:output.obj
 0003:00091594       ___wnullstring             004e3594     LIBCMT:output.obj
 0003:00091598       ___badioinfo               004e3598     LIBCMT:ioinit.obj
 0003:00091700       ___flsindex                004e3700     LIBCMT:tidtable.obj
 0003:00091704       ___getvalueindex           004e3704     LIBCMT:tidtable.obj
 0003:00091710       __cfltcvt_tab              004e3710     LIBCMT:cmiscdat.obj
 0003:00091738       __sys_errlist              004e3738     LIBCMT:syserr.obj
 0003:000917e8       __sys_nerr                 004e37e8     LIBCMT:syserr.obj
 0003:000917f0       __lookuptrailbytes         004e37f0     LIBCMT:read.obj
 0003:000918f0       ___initialmbcinfo          004e38f0     LIBCMT:mbctype.obj
 0003:00091b10       __mbctype                  004e3b10     LIBCMT:mbctype.obj
 0003:00091c18       __mbcasemap                004e3c18     LIBCMT:mbctype.obj
 0003:00091d18       ___ptmbcinfo               004e3d18     LIBCMT:mbctype.obj
 0003:00091e10       ___globallocalestatus      004e3e10     LIBCMT:glstatus.obj
 0003:00091e14       ___clocalestr              004e3e14     LIBCMT:nlsdata2.obj
 0003:00091e18       ___lc_time_c               004e3e18     LIBCMT:nlsdata2.obj
 0003:00091f80       ___initiallocinfo          004e3f80     LIBCMT:nlsdata2.obj
 0003:00092058       ___ptlocinfo               004e4058     LIBCMT:nlsdata2.obj
 0003:0009205c       ___initiallocalestructinfo 004e405c     LIBCMT:nlsdata2.obj
 0003:00092090       ___abort_behavior          004e4090     LIBCMT:abort.obj
 0003:000920a0       ___lconv_static_decimal    004e40a0     LIBCMT:lconv.obj
 0003:000920a4       ___lconv_static_W_decimal  004e40a4     LIBCMT:lconv.obj
 0003:000920a8       ___lconv_c                 004e40a8     LIBCMT:lconv.obj
 0003:000920f8       ___lconv                   004e40f8     LIBCMT:lconv.obj
 0003:000920fc       __pctype                   004e40fc     LIBCMT:ctype.obj
 0003:00092100       __pwctype                  004e4100     LIBCMT:ctype.obj
 0003:00092104       ___mb_cur_max              004e4104     LIBCMT:nlsdata1.obj
 0003:00092108       ___decimal_point           004e4108     LIBCMT:nlsdata1.obj
 0003:0009210c       ___decimal_point_length    004e410c     LIBCMT:nlsdata1.obj
 0003:00092110       __NLG_Destination          004e4110     LIBCMT:exsup.obj
 0003:00092138       __timezone                 004e4138     LIBCMT:timeset.obj
 0003:0009213c       __daylight                 004e413c     LIBCMT:timeset.obj
 0003:00092140       __dstbias                  004e4140     LIBCMT:timeset.obj
 0003:000921c8       __tzname                   004e41c8     LIBCMT:timeset.obj
 0003:000921d0       __lpdays                   004e41d0     LIBCMT:days.obj
 0003:00092204       __days                     004e4204     LIBCMT:days.obj
 0003:00092238       __p_overlay                004e4238     LIBCMT:dospawn.obj
 0003:00092240       __d_inf                    004e4240     LIBCMT:_util_.obj
 0003:00092248       __d_ind                    004e4248     LIBCMT:_util_.obj
 0003:00092250       __d_max                    004e4250     LIBCMT:_util_.obj
 0003:00092258       __d_min                    004e4258     LIBCMT:_util_.obj
 0003:00092260       __d_mzero                  004e4260     LIBCMT:_util_.obj
 0003:00092268       __matherr_flag             004e4268     LIBCMT:_matherr_.obj
 0003:000923a8       __pow10pos                 004e43a8     LIBCMT:_constpow_.obj
 0003:00092508       __pow10neg                 004e4508     LIBCMT:_constpow_.obj
 0003:00092670       __confh                    004e4670     LIBCMT:initcon.obj
 0003:00093c80       _opcount                   004e5c80     bpr:dict.obj
 0003:00093ca0       _bp_heap_top               004e5ca0     bpr:builtins.obj
 0003:00093cf0       __cflush                   004e5cf0     LIBCMT:_file.obj
 0003:00093cf4       __aenvptr                  004e5cf4     LIBCMT:crt0.obj
 0003:00093cf8       __wenvptr                  004e5cf8     LIBCMT:crt0.obj
 0003:00093cfc       ___error_mode              004e5cfc     LIBCMT:crt0.obj
 0003:00093d08       __umaskval                 004e5d08     LIBCMT:crt0dat.obj
 0003:00093d0c       ___argc                    004e5d0c     LIBCMT:crt0dat.obj
 0003:00093d10       ___argv                    004e5d10     LIBCMT:crt0dat.obj
 0003:00093d14       ___wargv                   004e5d14     LIBCMT:crt0dat.obj
 0003:00093d18       __environ                  004e5d18     LIBCMT:crt0dat.obj
 0003:00093d1c       ___initenv                 004e5d1c     LIBCMT:crt0dat.obj
 0003:00093d20       __wenviron                 004e5d20     LIBCMT:crt0dat.obj
 0003:00093d24       ___winitenv                004e5d24     LIBCMT:crt0dat.obj
 0003:00093d28       __pgmptr                   004e5d28     LIBCMT:crt0dat.obj
 0003:00093d2c       __wpgmptr                  004e5d2c     LIBCMT:crt0dat.obj
 0003:00093d30       __exitflag                 004e5d30     LIBCMT:crt0dat.obj
 0003:00093d34       __C_Termination_Done       004e5d34     LIBCMT:crt0dat.obj
 0003:00093d38       __C_Exit_Done              004e5d38     LIBCMT:crt0dat.obj
 0003:00093d54       ___idtabsiz                004e5d54     LIBCMT:popen.obj
 0003:00093d58       ___idpairs                 004e5d58     LIBCMT:popen.obj
 0003:00093d5c       ___fastflag                004e5d5c     LIBCMT:_fpinit_.obj
 0003:00093d60       __stdbuf                   004e5d60     LIBCMT:_sftbuf.obj
 0003:00093d68       ___pInvalidArgHandler      004e5d68     LIBCMT:invarg.obj
 0003:00093d6c       __maxwait                  004e5d6c     LIBCMT:crtheap.obj
 0003:000945f0       _gpFlsAlloc                004e65f0     LIBCMT:tidtable.obj
 0003:000945f4       _gpFlsGetValue             004e65f4     LIBCMT:tidtable.obj
 0003:000945f8       _gpFlsSetValue             004e65f8     LIBCMT:tidtable.obj
 0003:000945fc       _gpFlsFree                 004e65fc     LIBCMT:tidtable.obj
 0003:00094600       __crtheap                  004e6600     LIBCMT:heapinit.obj
 0003:0009492c       ?__pInconsistency@@3P6AXXZA 004e692c     LIBCMT:hooks.obj
 0003:00094934       ___pPurecall               004e6934     LIBCMT:inithelp.obj
 0003:00094938       ?_pnhHeap@@3P6AHI@ZA       004e6938     LIBCMT:handler.obj
 0003:0009493c       __newmode                  004e693c     LIBCMT:_newmode.obj
 0003:00094944       ___mbulinfo                004e6944     LIBCMT:mbctype.obj
 0003:00094950       ___mbcodepage              004e6950     LIBCMT:mbctype.obj
 0003:00094954       ___ismbcodepage            004e6954     LIBCMT:mbctype.obj
 0003:00094958       ___mblcid                  004e6958     LIBCMT:mbctype.obj
 0003:0009495c       ___locale_changed          004e695c     LIBCMT:setlocal.obj
 0003:00094978       ___lconv_static_null       004e6978     LIBCMT:lconv.obj
 0003:0009497c       ___lconv_static_W_null     004e697c     LIBCMT:lconv.obj
 0003:00094980       __commode                  004e6980     LIBCMT:ncommode.obj
 0003:00094a40       __outputformat             004e6a40     LIBCMT:outputformat.obj
 0003:00094a44       __fmode                    004e6a44     LIBCMT:txtmode.obj
 0003:00094a48       _instr_len                 004e6a48     <common>
 0003:00094a4c       _htable                    004e6a4c     <common>
 0003:00094a50       _hcount                    004e6a50     <common>
 0003:00094a54       _hstamp                    004e6a54     <common>
 0003:00094a58       _newatom                   004e6a58     <common>
 0003:00094a5c       _atomtable                 004e6a5c     <common>
 0003:00094a60       _lextable                  004e6a60     <common>
 0003:00094a64       _atomstamp                 004e6a64     <common>
 0003:00094a68       _newlex                    004e6a68     <common>
 0003:00094a80       _g                         004e6a80     <common>
 0003:00094c40       __debugger_hook_dummy      004e6c40     <common>
 0003:00094c44       __pmatherr                 004e6c44     <common>
 0003:00094c48       ___use_sse2_mathfcns       004e6c48     <common>
 0003:00094c4c       ___sse2_available          004e6c4c     <common>
 0003:00094c50       __pDestructExceptionObject 004e6c50     <common>
 0003:00094c54       __nhandle                  004e6c54     <common>
 0003:00094c60       ___pioinfo                 004e6c60     <common>
 0003:00094d60       ___env_initialized         004e6d60     <common>
 0003:00094d64       ___onexitend               004e6d64     <common>
 0003:00094d68       ___onexitbegin             004e6d68     <common>
 0003:00094d6c       ___mbctype_initialized     004e6d6c     <common>
 0003:00094d70       ___dyn_tls_init_callback   004e6d70     <common>
 0003:00094d74       __acmdln                   004e6d74     <common>
 0003:00094d78       __NoHeapEnableTerminationOnCorruption 004e6d78     <common>
 0003:00094d7c       ___piob                    004e6d7c     <common>
 0003:00094d80       __bufin                    004e6d80     <common>
 0003:00095d80       __nstream                  004e7d80     <common>

 entry point at        0001:00013170

 Static symbols

 0001:00000000       _go_4_1_1                  00401000 f   brev.obj
 0001:00000190       _g4_1_1_1                  00401190 f   brev.obj
 0001:000002b0       _timer_2_1_1               004012b0 f   brev.obj
 0001:000007a0       _hdef_int                  004017a0 f   bpr:ru.obj
 0001:000007e0       _hdef_ptr                  004017e0 f   bpr:ru.obj
 0001:00000810       _make_constants            00401810 f   bpr:ru.obj
 0001:00000d70       _hdefaults                 00401d70 f   bpr:ru.obj
 0001:00001060       _init_const_instr          00402060 f   bpr:ru.obj
 0001:00001900       _add_engine                00402900 f   bpr:ru.obj
 0001:00001a20       _del_engine                00402a20 f   bpr:ru.obj
 0001:00002030       _opt_help                  00403030 f   bpr:ru.obj
 0001:00002630       _new_bp                    00403630 f   bpr:ru.obj
 0001:00002e30       _io_trace1                 00403e30 f   bpr:socket.obj
 0001:00002e60       _io_trace_sn               00403e60 f   bpr:socket.obj
 0001:00002e90       _io_trace_ss               00403e90 f   bpr:socket.obj
 0001:00003170       _sock_gets                 00404170 f   bpr:socket.obj
 0001:00004050       _push_code                 00405050 f   bpr:engine.obj
 0001:00004d30       _bp                        00405d30 f   bpr:engine.obj
 0001:00009360       _insert_lex                0040a360 f   bpr:sym.obj
 0001:000093d0       _atomno                    0040a3d0 f   bpr:sym.obj
 0001:0000a7c0       _get_one_int               0040b7c0 f   bpr:load.obj
 0001:0000a900       _link_code                 0040b900 f   bpr:load.obj
 0001:0000bd30       _skip_header               0040cd30 f   bpr:load.obj
 0001:0000bd90       _loadoperator              0040cd90 f   bpr:load.obj
 0001:0000bef0       _load_file                 0040cef0 f   bpr:load.obj
 0001:0000c0c0       _load_instr_array          0040d0c0 f   bpr:load.obj
 0001:0000c270       _load_self                 0040d270 f   bpr:load.obj
 0001:0000c2b0       _is_bp_file                0040d2b0 f   bpr:load.obj
 0001:0000c380       _hkey1                     0040d380 f   bpr:builtins.obj
 0001:0000dbb0       _ocompare                  0040ebb0 f   bpr:builtins.obj
 0001:0000e6f0       _copy_term0                0040f6f0 f   bpr:builtins.obj
 0001:0000fb80       _compareObjects            00410b80 f   bpr:term.obj
 0001:0000fd50       _hashCodeOf                00410d50 f   bpr:term.obj
 0001:0000fea0       _appendTo                  00410ea0 f   bpr:term.obj
 0001:0000fff0       _toString0                 00410ff0 f   bpr:term.obj
 0001:00010220       _externalize_object        00411220 f   bpr:term.obj
 0001:00010440       _internalize_object        00411440 f   bpr:term.obj
 0001:000109e0       _qSOUT0                    004119e0 f   bpr:io.obj
 0001:00010ad0       _out                       00411ad0 f   bpr:io.obj
 0001:00011bb0       _gc_mes                    00412bb0 f   bpr:gc.obj
 0001:00011c30       _init_cps                  00412c30 f   bpr:gc.obj
 0001:00011ca0       _mark_cell1                00412ca0 f   bpr:gc.obj
 0001:00011dd0       _mark_and_early_reset      00412dd0 f   bpr:gc.obj
 0001:00012110       _scan_forwarded            00413110 f   bpr:gc.obj
 0001:00012220       _copy_to_extra_heap        00413220 f   bpr:gc.obj
 0001:00012940       _gc_test0                  00413940 f   bpr:gc.obj
 0001:00012af0       _gc_test1                  00413af0 f   bpr:gc.obj
 0001:00012b50       _gc_test                   00413b50 f   bpr:gc.obj
 0001:00012fe6       _fast_error_exit           00413fe6 f   LIBCMT:crt0.obj
 0001:0001300f       ___tmainCRTStartup         0041400f f   LIBCMT:crt0.obj
 0001:00013409       _doexit                    00414409 f   LIBCMT:crt0dat.obj
 0001:00013726       _ctrlevent_capture@4       00414726 f   LIBCMT:winsig.obj
 0001:000137c2       _siglookup                 004147c2 f   LIBCMT:winsig.obj
 0001:000145f0       __callthreadstartex        004155f0 f   LIBCMT:threadex.obj
 0001:00014631       __threadstartex@4          00415631 f   LIBCMT:threadex.obj
 0001:00014a85       _flsall                    00415a85 f   LIBCMT:fflush.obj
 0001:00014f42       _vscan_fn                  00415f42 f   LIBCMT:sscanf.obj
 0001:00015381       _idtab                     00416381 f   LIBCMT:popen.obj
 0001:00015df6       _IsRootUNCName             00416df6 f   LIBCMT:stati32.obj
 0001:00015e70       __fullpath_helper          00416e70 f   LIBCMT:stati32.obj
 0001:0001777f       _write_char                0041877f f   LIBCMT:output.obj
 0001:000177b2       _write_string              004187b2 f   LIBCMT:output.obj
 0001:0001921d       _parse_cmdline             0041a21d f   LIBCMT:stdargv.obj
 0001:00019ead       __onexit_nolock            0041aead f   LIBCMT:onexit.obj
 0001:0001a1de       ?strtoxl@@YAKPAUlocaleinfo_struct@@PBDPAPBDHH@Z 0041b1de f   LIBCMT:strtol.obj
 0001:0001bb16       ?CPtoLCID@@YAHH@Z          0041cb16 f   LIBCMT:mbctype.obj
 0001:0001bb45       ?setSBCS@@YAXPAUthreadmbcinfostruct@@@Z 0041cb45 f   LIBCMT:mbctype.obj
 0001:0001bba9       ?setSBUpLow@@YAXPAUthreadmbcinfostruct@@@Z 0041cba9 f   LIBCMT:mbctype.obj
 0001:0001bddd       ?getSystemCP@@YAHH@Z       0041cddd f   LIBCMT:mbctype.obj
 0001:0001c634       ___check_float_string      0041d634 f   LIBCMT:input.obj
 0001:0001c68b       __hextodec                 0041d68b f   LIBCMT:input.obj
 0001:0001c6ab       __inc                      0041d6ab f   LIBCMT:input.obj
 0001:0001c6c1       __whiteout                 0041d6c1 f   LIBCMT:input.obj
 0001:0001dce0       __unwind_handler4          0041ece0 f   LIBCMT:exsup4.obj
 0001:0001eb2b       __tsopen_nolock            0041fb2b f   LIBCMT:open.obj
 0001:0001f95b       _comexecmd                 0042095b f   LIBCMT:spawnve.obj
 0001:0001fd24       __shift                    00420d24 f   LIBCMT:cvt.obj
 0001:0001fd69       __cftoe2_l                 00420d69 f   LIBCMT:cvt.obj
 0001:00020327       __cftof2_l                 00421327 f   LIBCMT:cvt.obj
 0001:000247f3       ?x_ismbbtype_l@@YAHPAUlocaleinfo_struct@@IHH@Z 004257f3 f   LIBCMT:ismbbyte.obj
 0001:00024d80       ?__crtLCMapStringA_stat@@YAHPAUlocaleinfo_struct@@KKPBDHPADHHH@Z 00425d80 f   LIBCMT:a_map.obj
 0001:00024fad       ?__crtGetStringTypeA_stat@@YAHPAUlocaleinfo_struct@@KPBDHPAGHHH@Z 00425fad f   LIBCMT:a_str.obj
 0001:00025b70       __unwind_handler           00426b70 f   LIBCMT:exsup.obj
 0001:00025c87       ?__crtCompareStringA_stat@@YAHPAUlocaleinfo_struct@@KKPBDH1HH@Z 00426c87 f   LIBCMT:a_cmp.obj
 0001:00026021       _findenv                   00427021 f   LIBCMT:setenv.obj
 0001:00026073       _copy_environ              00427073 f   LIBCMT:setenv.obj
 0001:00026435       __tzset_nolock             00427435 f   LIBCMT:tzset.obj
 0001:00026748       _cvtdate                   00427748 f   LIBCMT:tzset.obj
 0001:0002693f       __isindst_nolock           0042793f f   LIBCMT:tzset.obj
 0001:0002a81b       __hw_cw                    0042b81b f   LIBCMT:_ieee87_.obj
 0001:0002a8a9       ___hw_cw_sse2              0042b8a9 f   LIBCMT:_ieee87_.obj
