; Listing generated by Microsoft (R) Optimizing Compiler Version 16.00.40219.01 

	TITLE	C:\A17\prolog\ptarau_prolog\src\binpro.c
	.686P
	.XMM
	include listing.inc
	.model	flat

INCLUDELIB LIBCMT
INCLUDELIB OLDNAMES

PUBLIC	??_C@_07IPMECBNO@user_bp?$AA@			; `string'
PUBLIC	??_C@_01PAPGNFGE@c?$AA@				; `string'
PUBLIC	??_C@_04LOAJBDKD@true?$AA@			; `string'
PUBLIC	??_C@_01IDAFKMJL@_?$AA@				; `string'
PUBLIC	??_C@_0P@MNECOOD@prolog?3v0431c0?$AA@		; `string'
PUBLIC	_user_bp
PUBLIC	_user_bp_size
_DATA	SEGMENT
_user_bp DB	0dcH
	ORG $+1
	DW	00H
	DW	01H
	ORG $+2
	DD	FLAT:??_C@_0P@MNECOOD@prolog?3v0431c0?$AA@
	DB	0ddH
	ORG $+1
	DW	03H
	DW	00H
	ORG $+2
	DD	FLAT:??_C@_01IDAFKMJL@_?$AA@
	DB	011H
	ORG $+1
	DW	00H
	DW	01H
	ORG $+2
	DD	FLAT:??_C@_04LOAJBDKD@true?$AA@
	DB	00H
	ORG $+1
	DW	00H
	DW	00H
	ORG $+2
	DD	FLAT:??_C@_01PAPGNFGE@c?$AA@
	DB	0ffH
	ORG $+1
	DW	00H
	DW	00H
	ORG $+2
	DD	FLAT:??_C@_07IPMECBNO@user_bp?$AA@
_user_bp_size DD 03cH
_DATA	ENDS
;	COMDAT ??_C@_07IPMECBNO@user_bp?$AA@
CONST	SEGMENT
??_C@_07IPMECBNO@user_bp?$AA@ DB 'user_bp', 00H		; `string'
CONST	ENDS
;	COMDAT ??_C@_01PAPGNFGE@c?$AA@
CONST	SEGMENT
??_C@_01PAPGNFGE@c?$AA@ DB 'c', 00H			; `string'
CONST	ENDS
;	COMDAT ??_C@_04LOAJBDKD@true?$AA@
CONST	SEGMENT
??_C@_04LOAJBDKD@true?$AA@ DB 'true', 00H		; `string'
CONST	ENDS
;	COMDAT ??_C@_01IDAFKMJL@_?$AA@
CONST	SEGMENT
??_C@_01IDAFKMJL@_?$AA@ DB '_', 00H			; `string'
CONST	ENDS
;	COMDAT ??_C@_0P@MNECOOD@prolog?3v0431c0?$AA@
CONST	SEGMENT
??_C@_0P@MNECOOD@prolog?3v0431c0?$AA@ DB 'prolog:v0431c0', 00H ; `string'
CONST	ENDS
END
