; Listing generated by Microsoft (R) Optimizing Compiler Version 16.00.40219.01 

	TITLE	C:\A17\prolog\ptarau_prolog\src\c.c
	.686P
	.XMM
	include listing.inc
	.model	flat

INCLUDELIB LIBCMT
INCLUDELIB OLDNAMES

PUBLIC	??_C@_0CH@OAENFKOC@c?4c?5?$CISTUB?5ONLY?$CJ?5?3?5undefined?5beha@ ; `string'
PUBLIC	??_C@_00CNPNBAHC@?$AA@				; `string'
PUBLIC	_c_interface
;	COMDAT ??_C@_0CH@OAENFKOC@c?4c?5?$CISTUB?5ONLY?$CJ?5?3?5undefined?5beha@
CONST	SEGMENT
??_C@_0CH@OAENFKOC@c?4c?5?$CISTUB?5ONLY?$CJ?5?3?5undefined?5beha@ DB 'c.c'
	DB	' (STUB ONLY) : undefined behaviour', 0aH, 00H ; `string'
CONST	ENDS
_DATA	SEGMENT
_c_interface DD	FLAT:??_C@_00CNPNBAHC@?$AA@
_c_errmess DD	FLAT:??_C@_0CH@OAENFKOC@c?4c?5?$CISTUB?5ONLY?$CJ?5?3?5undefined?5beha@
_DATA	ENDS
;	COMDAT ??_C@_00CNPNBAHC@?$AA@
CONST	SEGMENT
??_C@_00CNPNBAHC@?$AA@ DB 00H				; `string'
CONST	ENDS
PUBLIC	_main
EXTRN	_bp_main:PROC
; Function compile flags: /Ogtpy
; File c:\a17\prolog\ptarau_prolog\src\c.c
;	COMDAT _main
_TEXT	SEGMENT
_argc$ = 8						; size = 4
_argv$ = 12						; size = 4
_main	PROC						; COMDAT

; 15   :   return bp_main(argc,argv);

  00000	e9 00 00 00 00	 jmp	 _bp_main
_main	ENDP
_TEXT	ENDS
PUBLIC	_init_c
; Function compile flags: /Ogtpy
;	COMDAT _init_c
_TEXT	SEGMENT
_init_c	PROC						; COMDAT

; 23   :   return 1;

  00000	b8 01 00 00 00	 mov	 eax, 1

; 24   : }

  00005	c3		 ret	 0
_init_c	ENDP
_TEXT	ENDS
PUBLIC	??_C@_02DKCKIIND@?$CFs?$AA@			; `string'
PUBLIC	_if0
EXTRN	_fprintf:PROC
EXTRN	___iob_func:PROC
;	COMDAT ??_C@_02DKCKIIND@?$CFs?$AA@
CONST	SEGMENT
??_C@_02DKCKIIND@?$CFs?$AA@ DB '%s', 00H		; `string'
; Function compile flags: /Ogtpy
CONST	ENDS
;	COMDAT _if0
_TEXT	SEGMENT
_regs$ = 8						; size = 4
_H$ = 12						; size = 4
_P$ = 16						; size = 4
_A$ = 20						; size = 4
_wam$ = 24						; size = 4
_if0	PROC						; COMDAT

; 50   :   fprintf(STD_err,"%s",c_errmess);

  00000	a1 00 00 00 00	 mov	 eax, DWORD PTR _c_errmess
  00005	50		 push	 eax
  00006	68 00 00 00 00	 push	 OFFSET ??_C@_02DKCKIIND@?$CFs?$AA@
  0000b	e8 00 00 00 00	 call	 ___iob_func
  00010	83 c0 40	 add	 eax, 64			; 00000040H
  00013	50		 push	 eax
  00014	e8 00 00 00 00	 call	 _fprintf
  00019	83 c4 0c	 add	 esp, 12			; 0000000cH

; 51   :   return NULL;

  0001c	33 c0		 xor	 eax, eax

; 52   : }

  0001e	c3		 ret	 0
_if0	ENDP
_TEXT	ENDS
PUBLIC	_new_builtin
; Function compile flags: /Ogtpy
;	COMDAT _new_builtin
_TEXT	SEGMENT
_H$ = 8							; size = 4
_regs$ = 12						; size = 4
_A$ = 16						; size = 4
_P$ = 20						; size = 4
_wam$ = 24						; size = 4
_new_builtin PROC					; COMDAT

; 56   :   fprintf(STD_err,"%s",c_errmess);

  00000	a1 00 00 00 00	 mov	 eax, DWORD PTR _c_errmess
  00005	50		 push	 eax
  00006	68 00 00 00 00	 push	 OFFSET ??_C@_02DKCKIIND@?$CFs?$AA@
  0000b	e8 00 00 00 00	 call	 ___iob_func
  00010	83 c0 40	 add	 eax, 64			; 00000040H
  00013	50		 push	 eax
  00014	e8 00 00 00 00	 call	 _fprintf
  00019	83 c4 0c	 add	 esp, 12			; 0000000cH

; 57   :   return NULL;

  0001c	33 c0		 xor	 eax, eax

; 58   : }

  0001e	c3		 ret	 0
_new_builtin ENDP
_TEXT	ENDS
END
